---
triple:          'arm64-apple-darwin'
binary-path:     '/Users/bruno/Desktop/vsCode_c++_tests/main2'
relocations:
  - { offsetInCU: 0x39, offset: 0x39, size: 0x8, addend: 0x0, symName: __ZN5Stats5agentE, symObjAddr: 0x4FF90, symBinAddr: 0x100114848, symSize: 0x0 }
  - { offsetInCU: 0x55F2, offset: 0x55F2, size: 0x8, addend: 0x0, symName: __ZNSt3__17advanceB7v160006IP5StatsllvEEvRT_T0_, symObjAddr: 0x4718, symBinAddr: 0x100005B3C, symSize: 0x50 }
  - { offsetInCU: 0x5872, offset: 0x5872, size: 0x8, addend: 0x0, symName: __ZNSt3__17advanceB7v160006INS_16reverse_iteratorIP5StatsEEllvEEvRT_T0_, symObjAddr: 0x4BEC, symBinAddr: 0x100006010, symSize: 0x50 }
  - { offsetInCU: 0x58DD, offset: 0x58DD, size: 0x8, addend: 0x0, symName: __ZNSt3__17advanceB7v160006INS_11__wrap_iterIP5StatsEEllvEEvRT_T0_, symObjAddr: 0x50FC, symBinAddr: 0x100006520, symSize: 0x50 }
  - { offsetInCU: 0x7522, offset: 0x7522, size: 0x8, addend: 0x0, symName: __ZNSt3__17advanceB7v160006IP12DockerConfigllvEEvRT_T0_, symObjAddr: 0x896C, symBinAddr: 0x100009D90, symSize: 0x50 }
  - { offsetInCU: 0x77A2, offset: 0x77A2, size: 0x8, addend: 0x0, symName: __ZNSt3__17advanceB7v160006INS_16reverse_iteratorIP12DockerConfigEEllvEEvRT_T0_, symObjAddr: 0x8DC8, symBinAddr: 0x10000A1EC, symSize: 0x50 }
  - { offsetInCU: 0x929D, offset: 0x929D, size: 0x8, addend: 0x0, symName: __ZNSt3__1neB7v160006IP5StatsEEbRKNS_11__wrap_iterIT_EES7_, symObjAddr: 0x538, symBinAddr: 0x10000195C, symSize: 0x34 }
  - { offsetInCU: 0x92E0, offset: 0x92E0, size: 0x8, addend: 0x0, symName: __ZNSt3__1eqB7v160006IcNS_11char_traitsIcEENS_9allocatorIcEEEEbRKNS_12basic_stringIT_T0_T1_EEPKS6_, symObjAddr: 0x584, symBinAddr: 0x1000019A8, symSize: 0x5C }
  - { offsetInCU: 0x9338, offset: 0x9338, size: 0x8, addend: 0x0, symName: __ZNSt3__1plB7v160006IcNS_11char_traitsIcEENS_9allocatorIcEEEENS_12basic_stringIT_T0_T1_EEOS9_PKS6_, symObjAddr: 0x618, symBinAddr: 0x100001A3C, symSize: 0x40 }
  - { offsetInCU: 0x9390, offset: 0x9390, size: 0x8, addend: 0x0, symName: __ZNSt3__1plB7v160006IcNS_11char_traitsIcEENS_9allocatorIcEEEENS_12basic_stringIT_T0_T1_EEPKS6_OS9_, symObjAddr: 0x658, symBinAddr: 0x100001A7C, symSize: 0x44 }
  - { offsetInCU: 0x93E8, offset: 0x93E8, size: 0x8, addend: 0x0, symName: __ZNSt3__1eqB7v160006INS_9allocatorIcEEEEbRKNS_12basic_stringIcNS_11char_traitsIcEET_EES9_, symObjAddr: 0x750, symBinAddr: 0x100001B74, symSize: 0x148 }
  - { offsetInCU: 0xA40E, offset: 0xA40E, size: 0x8, addend: 0x0, symName: __ZNSt3__1rsB7v160006IcNS_11char_traitsIcEENS_9allocatorIcEEEERNS_13basic_istreamIT_T0_EES9_RNS_12basic_stringIS6_S7_T1_EE, symObjAddr: 0xFBC, symBinAddr: 0x1000023E0, symSize: 0x31C }
  - { offsetInCU: 0xA4E8, offset: 0xA4E8, size: 0x8, addend: 0x0, symName: __ZNSt3__1neB7v160006IPcEEbRKNS_11__wrap_iterIT_EES6_, symObjAddr: 0x1AA8, symBinAddr: 0x100002ECC, symSize: 0x34 }
  - { offsetInCU: 0xA52B, offset: 0xA52B, size: 0x8, addend: 0x0, symName: __ZNSt3__1neB7v160006IP12DockerConfigEEbRKNS_11__wrap_iterIT_EES7_, symObjAddr: 0x1BFC, symBinAddr: 0x100003020, symSize: 0x34 }
  - { offsetInCU: 0xA56E, offset: 0xA56E, size: 0x8, addend: 0x0, symName: __ZNSt3__119__debug_db_insert_cB7v160006INS_6vectorI5StatsNS_9allocatorIS2_EEEEEEvPT_, symObjAddr: 0x24E4, symBinAddr: 0x100003908, symSize: 0x10 }
  - { offsetInCU: 0xA59F, offset: 0xA59F, size: 0x8, addend: 0x0, symName: __ZNSt3__119__debug_db_insert_cB7v160006INS_12basic_stringIcNS_11char_traitsIcEENS_9allocatorIcEEEEEEvPT_, symObjAddr: 0x268C, symBinAddr: 0x100003AB0, symSize: 0x10 }
  - { offsetInCU: 0xA5D0, offset: 0xA5D0, size: 0x8, addend: 0x0, symName: __ZNSt3__118__constexpr_strlenB7v160006EPKc, symObjAddr: 0x2758, symBinAddr: 0x100003B7C, symSize: 0x24 }
  - { offsetInCU: 0xA5FC, offset: 0xA5FC, size: 0x8, addend: 0x0, symName: __ZNSt3__1eqB7v160006IP5StatsEEbRKNS_11__wrap_iterIT_EES7_, symObjAddr: 0x2810, symBinAddr: 0x100003C34, symSize: 0x48 }
  - { offsetInCU: 0xA63F, offset: 0xA63F, size: 0x8, addend: 0x0, symName: __ZNSt3__1eqB7v160006IcNS_11char_traitsIcEEEEbNS_17basic_string_viewIT_T0_EES6_, symObjAddr: 0x2870, symBinAddr: 0x100003C94, symSize: 0xB0 }
  - { offsetInCU: 0xA68E, offset: 0xA68E, size: 0x8, addend: 0x0, symName: __ZNSt3__13minB7v160006ImEERKT_S3_S3_, symObjAddr: 0x2AA8, symBinAddr: 0x100003ECC, symSize: 0x2C }
  - { offsetInCU: 0xA6D1, offset: 0xA6D1, size: 0x8, addend: 0x0, symName: __ZNSt3__13minB7v160006ImNS_6__lessImmEEEERKT_S5_S5_T0_, symObjAddr: 0x2B58, symBinAddr: 0x100003F7C, symSize: 0x54 }
  - { offsetInCU: 0xA766, offset: 0xA766, size: 0x8, addend: 0x0, symName: __ZNSt3__118__constexpr_memcmpB7v160006IcEEiPKT_S3_m, symObjAddr: 0x2BE0, symBinAddr: 0x100004004, symSize: 0x34 }
  - { offsetInCU: 0xA7B7, offset: 0xA7B7, size: 0x8, addend: 0x0, symName: __ZNSt3__128__char_traits_length_checkedB7v160006INS_11char_traitsIcEEEEmPKNT_9char_typeE, symObjAddr: 0x2C58, symBinAddr: 0x10000407C, symSize: 0x24 }
  - { offsetInCU: 0xA7EC, offset: 0xA7EC, size: 0x8, addend: 0x0, symName: __ZNSt3__115__debug_db_swapB7v160006INS_12basic_stringIcNS_11char_traitsIcEENS_9allocatorIcEEEEEEvPT_S8_, symObjAddr: 0x2DAC, symBinAddr: 0x1000041D0, symSize: 0x14 }
  - { offsetInCU: 0xA82B, offset: 0xA82B, size: 0x8, addend: 0x0, symName: __ZNSt3__112__to_addressB7v160006IKcEEPT_S3_, symObjAddr: 0x2E58, symBinAddr: 0x10000427C, symSize: 0x14 }
  - { offsetInCU: 0xA8B7, offset: 0xA8B7, size: 0x8, addend: 0x0, symName: __ZNSt3__112__to_addressB7v160006I5StatsEEPT_S3_, symObjAddr: 0x3360, symBinAddr: 0x100004784, symSize: 0x14 }
  - { offsetInCU: 0xA911, offset: 0xA911, size: 0x8, addend: 0x0, symName: __ZNSt3__112construct_atB7v160006I5StatsJRA5_KcRNS_12basic_stringIcNS_11char_traitsIcEENS_9allocatorIcEEEEEPS1_EEPT_SE_DpOT0_, symObjAddr: 0x33EC, symBinAddr: 0x100004810, symSize: 0x70 }
  - { offsetInCU: 0xA994, offset: 0xA994, size: 0x8, addend: 0x0, symName: __ZNSt3__13maxB7v160006ImEERKT_S3_S3_, symObjAddr: 0x3950, symBinAddr: 0x100004D74, symSize: 0x2C }
  - { offsetInCU: 0xADAD, offset: 0xADAD, size: 0x8, addend: 0x0, symName: __ZNSt3__120__throw_length_errorB7v160006EPKc, symObjAddr: 0x3A3C, symBinAddr: 0x100004E60, symSize: 0x64 }
  - { offsetInCU: 0xADD5, offset: 0xADD5, size: 0x8, addend: 0x0, symName: __ZNSt3__13maxB7v160006ImNS_6__lessImmEEEERKT_S5_S5_T0_, symObjAddr: 0x3B80, symBinAddr: 0x100004FA4, symSize: 0x54 }
  - { offsetInCU: 0xAE2F, offset: 0xAE2F, size: 0x8, addend: 0x0, symName: __ZNSt3__119__allocate_at_leastB7v160006INS_9allocatorI5StatsEEEENS_19__allocation_resultINS_16allocator_traitsIT_E7pointerEEERS6_m, symObjAddr: 0x3CF0, symBinAddr: 0x100005114, symSize: 0x40 }
  - { offsetInCU: 0xAE72, offset: 0xAE72, size: 0x8, addend: 0x0, symName: __ZNSt3__117__libcpp_allocateB7v160006Emm, symObjAddr: 0x3E78, symBinAddr: 0x10000529C, symSize: 0x60 }
  - { offsetInCU: 0xAECC, offset: 0xAECC, size: 0x8, addend: 0x0, symName: __ZNSt3__124__is_overaligned_for_newB7v160006Em, symObjAddr: 0x3ED8, symBinAddr: 0x1000052FC, symSize: 0x20 }
  - { offsetInCU: 0xAEFA, offset: 0xAEFA, size: 0x8, addend: 0x0, symName: __ZNSt3__121__libcpp_operator_newB7v160006IJmSt11align_val_tEEEPvDpT_, symObjAddr: 0x3EF8, symBinAddr: 0x10000531C, symSize: 0x2C }
  - { offsetInCU: 0xAF47, offset: 0xAF47, size: 0x8, addend: 0x0, symName: __ZNSt3__121__libcpp_operator_newB7v160006IJmEEEPvDpT_, symObjAddr: 0x3F24, symBinAddr: 0x100005348, symSize: 0x24 }
  - { offsetInCU: 0xAF80, offset: 0xAF80, size: 0x8, addend: 0x0, symName: __ZNSt3__142__uninitialized_allocator_move_if_noexceptB7v160006INS_9allocatorI5StatsEENS_16reverse_iteratorIPS2_EES6_S6_EET2_RT_T0_T1_S7_, symObjAddr: 0x4080, symBinAddr: 0x1000054A4, symSize: 0x12C }
  - { offsetInCU: 0xB020, offset: 0xB020, size: 0x8, addend: 0x0, symName: __ZNSt3__14swapB7v160006IP5StatsEENS_9enable_ifIXaasr21is_move_constructibleIT_EE5valuesr18is_move_assignableIS4_EE5valueEvE4typeERS4_S7_, symObjAddr: 0x41F8, symBinAddr: 0x10000561C, symSize: 0x3C }
  - { offsetInCU: 0xB071, offset: 0xB071, size: 0x8, addend: 0x0, symName: __ZNSt3__125__debug_db_invalidate_allB7v160006INS_6vectorI5StatsNS_9allocatorIS2_EEEEEEvPT_, symObjAddr: 0x42FC, symBinAddr: 0x100005720, symSize: 0x10 }
  - { offsetInCU: 0xB0A2, offset: 0xB0A2, size: 0x8, addend: 0x0, symName: __ZNSt3__122__make_exception_guardB7v160006INS_29_AllocatorDestroyRangeReverseINS_9allocatorI5StatsEENS_16reverse_iteratorIPS3_EEEEEENS_28__exception_guard_exceptionsIT_EESA_, symObjAddr: 0x4354, symBinAddr: 0x100005778, symSize: 0x4C }
  - { offsetInCU: 0xB0D8, offset: 0xB0D8, size: 0x8, addend: 0x0, symName: __ZNSt3__1neB7v160006IP5StatsS2_EEbRKNS_16reverse_iteratorIT_EERKNS3_IT0_EE, symObjAddr: 0x43E4, symBinAddr: 0x100005808, symSize: 0x48 }
  - { offsetInCU: 0xB124, offset: 0xB124, size: 0x8, addend: 0x0, symName: __ZNSt3__112__to_addressB7v160006INS_16reverse_iteratorIP5StatsEEvEENS_5decayIDTclsr19__to_address_helperIT_EE6__callclsr3stdE7declvalIRKS6_EEEEE4typeES8_, symObjAddr: 0x445C, symBinAddr: 0x100005880, symSize: 0x24 }
  - { offsetInCU: 0xB15A, offset: 0xB15A, size: 0x8, addend: 0x0, symName: __ZNSt3__112construct_atB7v160006I5StatsJS1_EPS1_EEPT_S4_DpOT0_, symObjAddr: 0x45AC, symBinAddr: 0x1000059D0, symSize: 0x3C }
  - { offsetInCU: 0xB1F3, offset: 0xB1F3, size: 0x8, addend: 0x0, symName: __ZNSt3__14prevB7v160006IP5StatsEENS_9enable_ifIXsr25__is_cpp17_input_iteratorIT_EE5valueES4_E4typeES4_NS_15iterator_traitsIS4_E15difference_typeE, symObjAddr: 0x46C8, symBinAddr: 0x100005AEC, symSize: 0x50 }
  - { offsetInCU: 0xB236, offset: 0xB236, size: 0x8, addend: 0x0, symName: __ZNSt3__121__convert_to_integralB7v160006El, symObjAddr: 0x4768, symBinAddr: 0x100005B8C, symSize: 0x14 }
  - { offsetInCU: 0xB262, offset: 0xB262, size: 0x8, addend: 0x0, symName: __ZNSt3__19__advanceB7v160006IP5StatsEEvRT_NS_15iterator_traitsIS3_E15difference_typeENS_26random_access_iterator_tagE, symObjAddr: 0x477C, symBinAddr: 0x100005BA0, symSize: 0x30 }
  - { offsetInCU: 0xB2AB, offset: 0xB2AB, size: 0x8, addend: 0x0, symName: __ZNSt3__119__allocator_destroyB7v160006INS_9allocatorI5StatsEENS_16reverse_iteratorINS4_IPS2_EEEES7_EEvRT_T0_T1_, symObjAddr: 0x48B0, symBinAddr: 0x100005CD4, symSize: 0x70 }
  - { offsetInCU: 0xB310, offset: 0xB310, size: 0x8, addend: 0x0, symName: __ZNSt3__1neB7v160006INS_16reverse_iteratorIP5StatsEES4_EEbRKNS1_IT_EERKNS1_IT0_EE, symObjAddr: 0x495C, symBinAddr: 0x100005D80, symSize: 0x60 }
  - { offsetInCU: 0xB35C, offset: 0xB35C, size: 0x8, addend: 0x0, symName: __ZNSt3__112__to_addressB7v160006INS_16reverse_iteratorINS1_IP5StatsEEEEvEENS_5decayIDTclsr19__to_address_helperIT_EE6__callclsr3stdE7declvalIRKS7_EEEEE4typeES9_, symObjAddr: 0x49E4, symBinAddr: 0x100005E08, symSize: 0x24 }
  - { offsetInCU: 0xB392, offset: 0xB392, size: 0x8, addend: 0x0, symName: __ZNSt3__110destroy_atB7v160006I5StatsLi0EEEvPT_, symObjAddr: 0x4A5C, symBinAddr: 0x100005E80, symSize: 0x24 }
  - { offsetInCU: 0xB3C9, offset: 0xB3C9, size: 0x8, addend: 0x0, symName: __ZNSt3__112__destroy_atB7v160006I5StatsLi0EEEvPT_, symObjAddr: 0x4A80, symBinAddr: 0x100005EA4, symSize: 0x24 }
  - { offsetInCU: 0xB429, offset: 0xB429, size: 0x8, addend: 0x0, symName: __ZNSt3__14prevB7v160006INS_16reverse_iteratorIP5StatsEEEENS_9enable_ifIXsr25__is_cpp17_input_iteratorIT_EE5valueES6_E4typeES6_NS_15iterator_traitsIS6_E15difference_typeE, symObjAddr: 0x4B8C, symBinAddr: 0x100005FB0, symSize: 0x60 }
  - { offsetInCU: 0xB46C, offset: 0xB46C, size: 0x8, addend: 0x0, symName: __ZNSt3__19__advanceB7v160006INS_16reverse_iteratorIP5StatsEEEEvRT_NS_15iterator_traitsIS5_E15difference_typeENS_26random_access_iterator_tagE, symObjAddr: 0x4C3C, symBinAddr: 0x100006060, symSize: 0x2C }
  - { offsetInCU: 0xB4B5, offset: 0xB4B5, size: 0x8, addend: 0x0, symName: __ZNSt3__119__libcpp_deallocateB7v160006EPvmm, symObjAddr: 0x4F24, symBinAddr: 0x100006348, symSize: 0x60 }
  - { offsetInCU: 0xB51A, offset: 0xB51A, size: 0x8, addend: 0x0, symName: __ZNSt3__127__do_deallocate_handle_sizeB7v160006IJSt11align_val_tEEEvPvmDpT_, symObjAddr: 0x4F84, symBinAddr: 0x1000063A8, symSize: 0x30 }
  - { offsetInCU: 0xB56D, offset: 0xB56D, size: 0x8, addend: 0x0, symName: __ZNSt3__127__do_deallocate_handle_sizeB7v160006IJEEEvPvmDpT_, symObjAddr: 0x4FB4, symBinAddr: 0x1000063D8, symSize: 0x28 }
  - { offsetInCU: 0xB5AB, offset: 0xB5AB, size: 0x8, addend: 0x0, symName: __ZNSt3__124__libcpp_operator_deleteB7v160006IJPvSt11align_val_tEEEvDpT_, symObjAddr: 0x4FDC, symBinAddr: 0x100006400, symSize: 0x2C }
  - { offsetInCU: 0xB5F4, offset: 0xB5F4, size: 0x8, addend: 0x0, symName: __ZNSt3__124__libcpp_operator_deleteB7v160006IJPvEEEvDpT_, symObjAddr: 0x5008, symBinAddr: 0x10000642C, symSize: 0x24 }
  - { offsetInCU: 0xB629, offset: 0xB629, size: 0x8, addend: 0x0, symName: __ZNSt3__1miB7v160006IPK5StatsPS1_EEDTmicldtfp_4baseEcldtfp0_4baseEERKNS_11__wrap_iterIT_EERKNS6_IT0_EE, symObjAddr: 0x5078, symBinAddr: 0x10000649C, symSize: 0x48 }
  - { offsetInCU: 0xB675, offset: 0xB675, size: 0x8, addend: 0x0, symName: __ZNSt3__18distanceB7v160006INS_11__wrap_iterIP5StatsEEEENS_15iterator_traitsIT_E15difference_typeES6_S6_, symObjAddr: 0x50C0, symBinAddr: 0x1000064E4, symSize: 0x3C }
  - { offsetInCU: 0xB6B8, offset: 0xB6B8, size: 0x8, addend: 0x0, symName: __ZNSt3__14copyB7v160006INS_11__wrap_iterIP5StatsEES3_EET0_T_S6_S5_, symObjAddr: 0x5324, symBinAddr: 0x100006748, symSize: 0x50 }
  - { offsetInCU: 0xB712, offset: 0xB712, size: 0x8, addend: 0x0, symName: __ZNSt3__110__distanceB7v160006INS_11__wrap_iterIP5StatsEEEENS_15iterator_traitsIT_E15difference_typeES6_S6_NS_26random_access_iterator_tagE, symObjAddr: 0x55D0, symBinAddr: 0x1000069F4, symSize: 0x30 }
  - { offsetInCU: 0xB75F, offset: 0xB75F, size: 0x8, addend: 0x0, symName: __ZNSt3__1miB7v160006IP5StatsS2_EEDTmicldtfp_4baseEcldtfp0_4baseEERKNS_11__wrap_iterIT_EERKNS4_IT0_EE, symObjAddr: 0x5600, symBinAddr: 0x100006A24, symSize: 0x48 }
  - { offsetInCU: 0xB7AB, offset: 0xB7AB, size: 0x8, addend: 0x0, symName: __ZNSt3__19__advanceB7v160006INS_11__wrap_iterIP5StatsEEEEvRT_NS_15iterator_traitsIS5_E15difference_typeENS_26random_access_iterator_tagE, symObjAddr: 0x5648, symBinAddr: 0x100006A6C, symSize: 0x2C }
  - { offsetInCU: 0xB7F4, offset: 0xB7F4, size: 0x8, addend: 0x0, symName: __ZNSt3__130__uninitialized_allocator_copyB7v160006INS_9allocatorI5StatsEENS_11__wrap_iterIPS2_EES6_S5_EET2_RT_T0_T1_S7_, symObjAddr: 0x56A4, symBinAddr: 0x100006AC8, symSize: 0xF8 }
  - { offsetInCU: 0xB892, offset: 0xB892, size: 0x8, addend: 0x0, symName: __ZNSt3__122__make_exception_guardB7v160006INS_29_AllocatorDestroyRangeReverseINS_9allocatorI5StatsEEPS3_EEEENS_28__exception_guard_exceptionsIT_EES8_, symObjAddr: 0x579C, symBinAddr: 0x100006BC0, symSize: 0x4C }
  - { offsetInCU: 0xB8C8, offset: 0xB8C8, size: 0x8, addend: 0x0, symName: __ZNSt3__112construct_atB7v160006I5StatsJRS1_EPS1_EEPT_S5_DpOT0_, symObjAddr: 0x5940, symBinAddr: 0x100006D64, symSize: 0x3C }
  - { offsetInCU: 0xB938, offset: 0xB938, size: 0x8, addend: 0x0, symName: __ZNSt3__119__allocator_destroyB7v160006INS_9allocatorI5StatsEENS_16reverse_iteratorIPS2_EES6_EEvRT_T0_T1_, symObjAddr: 0x5AD8, symBinAddr: 0x100006EFC, symSize: 0x70 }
  - { offsetInCU: 0xB99B, offset: 0xB99B, size: 0x8, addend: 0x0, symName: __ZNSt3__113move_backwardB7v160006IP5StatsS2_EET0_T_S4_S3_, symObjAddr: 0x5B48, symBinAddr: 0x100006F6C, symSize: 0x40 }
  - { offsetInCU: 0xB9F5, offset: 0xB9F5, size: 0x8, addend: 0x0, symName: __ZNSt3__115__move_backwardB7v160006INS_17_ClassicAlgPolicyEP5StatsS3_S3_EENS_4pairIT0_T2_EES5_T1_S6_, symObjAddr: 0x5B88, symBinAddr: 0x100006FAC, symSize: 0x44 }
  - { offsetInCU: 0xBA61, offset: 0xBA61, size: 0x8, addend: 0x0, symName: __ZNSt3__123__dispatch_copy_or_moveB7v160006INS_17_ClassicAlgPolicyENS_20__move_backward_loopIS1_EENS_23__move_backward_trivialEP5StatsS6_S6_EENS_4pairIT2_T4_EES8_T3_S9_, symObjAddr: 0x5BCC, symBinAddr: 0x100006FF0, symSize: 0x44 }
  - { offsetInCU: 0xBADF, offset: 0xBADF, size: 0x8, addend: 0x0, symName: __ZNSt3__121__unwrap_and_dispatchB7v160006INS_10__overloadINS_20__move_backward_loopINS_17_ClassicAlgPolicyEEENS_23__move_backward_trivialEEEP5StatsS8_S8_Li0EEENS_4pairIT0_T2_EESA_T1_SB_, symObjAddr: 0x5C10, symBinAddr: 0x100007034, symSize: 0xB4 }
  - { offsetInCU: 0xBB6D, offset: 0xBB6D, size: 0x8, addend: 0x0, symName: __ZNSt3__114__unwrap_rangeB7v160006IP5StatsS2_EEDaT_T0_, symObjAddr: 0x5CC4, symBinAddr: 0x1000070E8, symSize: 0x3C }
  - { offsetInCU: 0xBCE8, offset: 0xBCE8, size: 0x8, addend: 0x0, symName: __ZNSt3__113__unwrap_iterB7v160006IP5StatsNS_18__unwrap_iter_implIS2_Lb1EEELi0EEEDTclsrT0_8__unwrapclsr3stdE7declvalIT_EEEES6_, symObjAddr: 0x5DA4, symBinAddr: 0x1000071C8, symSize: 0x24 }
  - { offsetInCU: 0xBD2C, offset: 0xBD2C, size: 0x8, addend: 0x0, symName: __ZNSt3__19make_pairB7v160006IP5StatsS2_EENS_4pairINS_18__unwrap_ref_decayIT_E4typeENS4_IT0_E4typeEEEOS5_OS8_, symObjAddr: 0x5DC8, symBinAddr: 0x1000071EC, symSize: 0x38 }
  - { offsetInCU: 0xBD7B, offset: 0xBD7B, size: 0x8, addend: 0x0, symName: __ZNSt3__114__rewrap_rangeB7v160006IP5StatsS2_S2_EET0_S3_T1_, symObjAddr: 0x5E00, symBinAddr: 0x100007224, symSize: 0x2C }
  - { offsetInCU: 0xBDD0, offset: 0xBDD0, size: 0x8, addend: 0x0, symName: __ZNSt3__113__rewrap_iterB7v160006IP5StatsS2_NS_18__unwrap_iter_implIS2_Lb1EEEEET_S5_T0_, symObjAddr: 0x5E2C, symBinAddr: 0x100007250, symSize: 0x3C }
  - { offsetInCU: 0xBF55, offset: 0xBF55, size: 0x8, addend: 0x0, symName: __ZNSt3__16__copyB7v160006INS_17_ClassicAlgPolicyENS_11__wrap_iterIP5StatsEES5_S4_EENS_4pairIT0_T2_EES7_T1_S8_, symObjAddr: 0x6064, symBinAddr: 0x100007488, symSize: 0x54 }
  - { offsetInCU: 0xBFC1, offset: 0xBFC1, size: 0x8, addend: 0x0, symName: __ZNSt3__123__dispatch_copy_or_moveB7v160006INS_17_ClassicAlgPolicyENS_11__copy_loopIS1_EENS_14__copy_trivialENS_11__wrap_iterIP5StatsEES8_S7_EENS_4pairIT2_T4_EESA_T3_SB_, symObjAddr: 0x60B8, symBinAddr: 0x1000074DC, symSize: 0x54 }
  - { offsetInCU: 0xC03F, offset: 0xC03F, size: 0x8, addend: 0x0, symName: __ZNSt3__121__unwrap_and_dispatchB7v160006INS_10__overloadINS_11__copy_loopINS_17_ClassicAlgPolicyEEENS_14__copy_trivialEEENS_11__wrap_iterIP5StatsEESA_S9_Li0EEENS_4pairIT0_T2_EESC_T1_SD_, symObjAddr: 0x610C, symBinAddr: 0x100007530, symSize: 0xCC }
  - { offsetInCU: 0xC0CD, offset: 0xC0CD, size: 0x8, addend: 0x0, symName: __ZNSt3__114__unwrap_rangeB7v160006INS_11__wrap_iterIP5StatsEES4_EEDaT_T0_, symObjAddr: 0x61D8, symBinAddr: 0x1000075FC, symSize: 0x4C }
  - { offsetInCU: 0xC16B, offset: 0xC16B, size: 0x8, addend: 0x0, symName: __ZNSt3__19make_pairB7v160006INS_11__wrap_iterIP5StatsEES3_EENS_4pairINS_18__unwrap_ref_decayIT_E4typeENS6_IT0_E4typeEEEOS7_OSA_, symObjAddr: 0x62AC, symBinAddr: 0x1000076D0, symSize: 0x38 }
  - { offsetInCU: 0xC1BA, offset: 0xC1BA, size: 0x8, addend: 0x0, symName: __ZNSt3__114__rewrap_rangeB7v160006INS_11__wrap_iterIP5StatsEES4_S3_EET0_S5_T1_, symObjAddr: 0x62E4, symBinAddr: 0x100007708, symSize: 0x3C }
  - { offsetInCU: 0xC25F, offset: 0xC25F, size: 0x8, addend: 0x0, symName: __ZNSt3__113__unwrap_iterB7v160006INS_11__wrap_iterIP5StatsEENS_18__unwrap_iter_implIS4_Lb1EEELi0EEEDTclsrT0_8__unwrapclsr3stdE7declvalIT_EEEES8_, symObjAddr: 0x6388, symBinAddr: 0x1000077AC, symSize: 0x2C }
  - { offsetInCU: 0xC2F6, offset: 0xC2F6, size: 0x8, addend: 0x0, symName: __ZNSt3__112__to_addressB7v160006INS_11__wrap_iterIP5StatsEEvEENS_5decayIDTclsr19__to_address_helperIT_EE6__callclsr3stdE7declvalIRKS6_EEEEE4typeES8_, symObjAddr: 0x63DC, symBinAddr: 0x100007800, symSize: 0x24 }
  - { offsetInCU: 0xC46B, offset: 0xC46B, size: 0x8, addend: 0x0, symName: __ZNSt3__113__rewrap_iterB7v160006INS_11__wrap_iterIP5StatsEES3_NS_18__unwrap_iter_implIS4_Lb1EEEEET_S7_T0_, symObjAddr: 0x6550, symBinAddr: 0x100007974, symSize: 0x4C }
  - { offsetInCU: 0xC4C0, offset: 0xC4C0, size: 0x8, addend: 0x0, symName: __ZNSt3__142__uninitialized_allocator_move_if_noexceptB7v160006INS_9allocatorI5StatsEEPS2_S4_S4_EET2_RT_T0_T1_S5_, symObjAddr: 0x6708, symBinAddr: 0x100007B2C, symSize: 0xF4 }
  - { offsetInCU: 0xC55E, offset: 0xC55E, size: 0x8, addend: 0x0, symName: __ZNSt3__118__debug_db_erase_cB7v160006INS_6vectorI5StatsNS_9allocatorIS2_EEEEEEvPT_, symObjAddr: 0x6970, symBinAddr: 0x100007D94, symSize: 0x10 }
  - { offsetInCU: 0xC58F, offset: 0xC58F, size: 0x8, addend: 0x0, symName: __ZNSt3__112construct_atB7v160006I5StatsJRA12_KcRNS_12basic_stringIcNS_11char_traitsIcEENS_9allocatorIcEEEEEPS1_EEPT_SE_DpOT0_, symObjAddr: 0x6C30, symBinAddr: 0x100008054, symSize: 0x70 }
  - { offsetInCU: 0xC612, offset: 0xC612, size: 0x8, addend: 0x0, symName: __ZNSt3__1eqB7v160006IPcEEbRKNS_11__wrap_iterIT_EES6_, symObjAddr: 0x6F84, symBinAddr: 0x1000083A8, symSize: 0x48 }
  - { offsetInCU: 0xC655, offset: 0xC655, size: 0x8, addend: 0x0, symName: __ZNSt3__1eqB7v160006IP12DockerConfigEEbRKNS_11__wrap_iterIT_EES7_, symObjAddr: 0x7144, symBinAddr: 0x100008568, symSize: 0x48 }
  - { offsetInCU: 0xC698, offset: 0xC698, size: 0x8, addend: 0x0, symName: __ZNSt3__112__to_addressB7v160006I12DockerConfigEEPT_S3_, symObjAddr: 0x76E4, symBinAddr: 0x100008B08, symSize: 0x14 }
  - { offsetInCU: 0xC6F2, offset: 0xC6F2, size: 0x8, addend: 0x0, symName: __ZNSt3__112construct_atB7v160006I12DockerConfigJRS1_EPS1_EEPT_S5_DpOT0_, symObjAddr: 0x7770, symBinAddr: 0x100008B94, symSize: 0x3C }
  - { offsetInCU: 0xC762, offset: 0xC762, size: 0x8, addend: 0x0, symName: __ZNSt3__119__allocate_at_leastB7v160006INS_9allocatorI12DockerConfigEEEENS_19__allocation_resultINS_16allocator_traitsIT_E7pointerEEERS6_m, symObjAddr: 0x7F8C, symBinAddr: 0x1000093B0, symSize: 0x40 }
  - { offsetInCU: 0xC7A5, offset: 0xC7A5, size: 0x8, addend: 0x0, symName: __ZNSt3__142__uninitialized_allocator_move_if_noexceptB7v160006INS_9allocatorI12DockerConfigEENS_16reverse_iteratorIPS2_EES6_S6_EET2_RT_T0_T1_S7_, symObjAddr: 0x8234, symBinAddr: 0x100009658, symSize: 0x12C }
  - { offsetInCU: 0xC845, offset: 0xC845, size: 0x8, addend: 0x0, symName: __ZNSt3__14swapB7v160006IP12DockerConfigEENS_9enable_ifIXaasr21is_move_constructibleIT_EE5valuesr18is_move_assignableIS4_EE5valueEvE4typeERS4_S7_, symObjAddr: 0x83AC, symBinAddr: 0x1000097D0, symSize: 0x3C }
  - { offsetInCU: 0xC896, offset: 0xC896, size: 0x8, addend: 0x0, symName: __ZNSt3__125__debug_db_invalidate_allB7v160006INS_6vectorI12DockerConfigNS_9allocatorIS2_EEEEEEvPT_, symObjAddr: 0x84B0, symBinAddr: 0x1000098D4, symSize: 0x10 }
  - { offsetInCU: 0xC8C7, offset: 0xC8C7, size: 0x8, addend: 0x0, symName: __ZNSt3__122__make_exception_guardB7v160006INS_29_AllocatorDestroyRangeReverseINS_9allocatorI12DockerConfigEENS_16reverse_iteratorIPS3_EEEEEENS_28__exception_guard_exceptionsIT_EESA_, symObjAddr: 0x8508, symBinAddr: 0x10000992C, symSize: 0x4C }
  - { offsetInCU: 0xC8FD, offset: 0xC8FD, size: 0x8, addend: 0x0, symName: __ZNSt3__1neB7v160006IP12DockerConfigS2_EEbRKNS_16reverse_iteratorIT_EERKNS3_IT0_EE, symObjAddr: 0x8598, symBinAddr: 0x1000099BC, symSize: 0x48 }
  - { offsetInCU: 0xC949, offset: 0xC949, size: 0x8, addend: 0x0, symName: __ZNSt3__112__to_addressB7v160006INS_16reverse_iteratorIP12DockerConfigEEvEENS_5decayIDTclsr19__to_address_helperIT_EE6__callclsr3stdE7declvalIRKS6_EEEEE4typeES8_, symObjAddr: 0x8610, symBinAddr: 0x100009A34, symSize: 0x24 }
  - { offsetInCU: 0xC97F, offset: 0xC97F, size: 0x8, addend: 0x0, symName: __ZNSt3__112construct_atB7v160006I12DockerConfigJS1_EPS1_EEPT_S4_DpOT0_, symObjAddr: 0x8760, symBinAddr: 0x100009B84, symSize: 0x3C }
  - { offsetInCU: 0xCA18, offset: 0xCA18, size: 0x8, addend: 0x0, symName: __ZNSt3__14prevB7v160006IP12DockerConfigEENS_9enable_ifIXsr25__is_cpp17_input_iteratorIT_EE5valueES4_E4typeES4_NS_15iterator_traitsIS4_E15difference_typeE, symObjAddr: 0x891C, symBinAddr: 0x100009D40, symSize: 0x50 }
  - { offsetInCU: 0xCA5B, offset: 0xCA5B, size: 0x8, addend: 0x0, symName: __ZNSt3__19__advanceB7v160006IP12DockerConfigEEvRT_NS_15iterator_traitsIS3_E15difference_typeENS_26random_access_iterator_tagE, symObjAddr: 0x89BC, symBinAddr: 0x100009DE0, symSize: 0x30 }
  - { offsetInCU: 0xCAA4, offset: 0xCAA4, size: 0x8, addend: 0x0, symName: __ZNSt3__119__allocator_destroyB7v160006INS_9allocatorI12DockerConfigEENS_16reverse_iteratorINS4_IPS2_EEEES7_EEvRT_T0_T1_, symObjAddr: 0x8AF0, symBinAddr: 0x100009F14, symSize: 0x70 }
  - { offsetInCU: 0xCB09, offset: 0xCB09, size: 0x8, addend: 0x0, symName: __ZNSt3__1neB7v160006INS_16reverse_iteratorIP12DockerConfigEES4_EEbRKNS1_IT_EERKNS1_IT0_EE, symObjAddr: 0x8B9C, symBinAddr: 0x100009FC0, symSize: 0x60 }
  - { offsetInCU: 0xCB55, offset: 0xCB55, size: 0x8, addend: 0x0, symName: __ZNSt3__112__to_addressB7v160006INS_16reverse_iteratorINS1_IP12DockerConfigEEEEvEENS_5decayIDTclsr19__to_address_helperIT_EE6__callclsr3stdE7declvalIRKS7_EEEEE4typeES9_, symObjAddr: 0x8C24, symBinAddr: 0x10000A048, symSize: 0x24 }
  - { offsetInCU: 0xCB8B, offset: 0xCB8B, size: 0x8, addend: 0x0, symName: __ZNSt3__110destroy_atB7v160006I12DockerConfigLi0EEEvPT_, symObjAddr: 0x8C9C, symBinAddr: 0x10000A0C0, symSize: 0x24 }
  - { offsetInCU: 0xCBC2, offset: 0xCBC2, size: 0x8, addend: 0x0, symName: __ZNSt3__112__destroy_atB7v160006I12DockerConfigLi0EEEvPT_, symObjAddr: 0x8CC0, symBinAddr: 0x10000A0E4, symSize: 0x24 }
  - { offsetInCU: 0xCC22, offset: 0xCC22, size: 0x8, addend: 0x0, symName: __ZNSt3__14prevB7v160006INS_16reverse_iteratorIP12DockerConfigEEEENS_9enable_ifIXsr25__is_cpp17_input_iteratorIT_EE5valueES6_E4typeES6_NS_15iterator_traitsIS6_E15difference_typeE, symObjAddr: 0x8D68, symBinAddr: 0x10000A18C, symSize: 0x60 }
  - { offsetInCU: 0xCC65, offset: 0xCC65, size: 0x8, addend: 0x0, symName: __ZNSt3__19__advanceB7v160006INS_16reverse_iteratorIP12DockerConfigEEEEvRT_NS_15iterator_traitsIS5_E15difference_typeENS_26random_access_iterator_tagE, symObjAddr: 0x8E18, symBinAddr: 0x10000A23C, symSize: 0x2C }
  - { offsetInCU: 0xCCAE, offset: 0xCCAE, size: 0x8, addend: 0x0, symName: __ZNSt3__19use_facetB7v160006INS_5ctypeIcEEEERKT_RKNS_6localeE, symObjAddr: 0x96EC, symBinAddr: 0x10000AB10, symSize: 0x2C }
  - { offsetInCU: 0xD08E, offset: 0xD08E, size: 0x8, addend: 0x0, symName: __ZNSt3__125__debug_db_invalidate_allB7v160006INS_12basic_stringIcNS_11char_traitsIcEENS_9allocatorIcEEEEEEvPT_, symObjAddr: 0x99C0, symBinAddr: 0x10000ADE4, symSize: 0x10 }
  - { offsetInCU: 0xD44B, offset: 0xD44B, size: 0x8, addend: 0x0, symName: __ZSt28__throw_bad_array_new_lengthB7v160006v, symObjAddr: 0x3E44, symBinAddr: 0x100005268, symSize: 0x34 }
  - { offsetInCU: 0xD95F, offset: 0xD95F, size: 0x8, addend: 0x0, symName: __ZNSt3__16vectorI5StatsNS_9allocatorIS1_EEE26__swap_out_circular_bufferERNS_14__split_bufferIS1_RS3_EE, symObjAddr: 0x3750, symBinAddr: 0x100004B74, symSize: 0x118 }
  - { offsetInCU: 0xDA1C, offset: 0xDA1C, size: 0x8, addend: 0x0, symName: __ZNSt3__16vectorI5StatsNS_9allocatorIS1_EEE26__swap_out_circular_bufferERNS_14__split_bufferIS1_RS3_EEPS1_, symObjAddr: 0x5464, symBinAddr: 0x100006888, symSize: 0x154 }
  - { offsetInCU: 0xDD0A, offset: 0xDD0A, size: 0x8, addend: 0x0, symName: __ZNSt3__16vectorI12DockerConfigNS_9allocatorIS1_EEE26__swap_out_circular_bufferERNS_14__split_bufferIS1_RS3_EE, symObjAddr: 0x7B88, symBinAddr: 0x100008FAC, symSize: 0x118 }
  - { offsetInCU: 0xF7B8, offset: 0xF7B8, size: 0x8, addend: 0x0, symName: __Z7isdigiti, symObjAddr: 0x1AF4, symBinAddr: 0x100002F18, symSize: 0x28 }
  - { offsetInCU: 0x10050, offset: 0x10050, size: 0x8, addend: 0x0, symName: __Z15getContainerIdsv, symObjAddr: 0x0, symBinAddr: 0x100001424, symSize: 0x80 }
  - { offsetInCU: 0x100B0, offset: 0x100B0, size: 0x8, addend: 0x0, symName: __ZNSt3__16bitsetILm4EEC1B7v160006Ey, symObjAddr: 0x80, symBinAddr: 0x1000014A4, symSize: 0x34 }
  - { offsetInCU: 0x100E8, offset: 0x100E8, size: 0x8, addend: 0x0, symName: __Z12getNameandIPRNSt3__16vectorI5StatsNS_9allocatorIS1_EEEE, symObjAddr: 0xB4, symBinAddr: 0x1000014D8, symSize: 0x3C4 }
  - { offsetInCU: 0x10197, offset: 0x10197, size: 0x8, addend: 0x0, symName: __ZNSt3__16vectorI5StatsNS_9allocatorIS1_EEEC1B7v160006Ev, symObjAddr: 0x478, symBinAddr: 0x10000189C, symSize: 0x2C }
  - { offsetInCU: 0x101C6, offset: 0x101C6, size: 0x8, addend: 0x0, symName: __ZNSt3__112basic_stringIcNS_11char_traitsIcEENS_9allocatorIcEEEC1B7v160006IDnEEPKc, symObjAddr: 0x4A4, symBinAddr: 0x1000018C8, symSize: 0x34 }
  - { offsetInCU: 0x10204, offset: 0x10204, size: 0x8, addend: 0x0, symName: __ZNSt3__16vectorI5StatsNS_9allocatorIS1_EEE5beginB7v160006Ev, symObjAddr: 0x4D8, symBinAddr: 0x1000018FC, symSize: 0x30 }
  - { offsetInCU: 0x1022C, offset: 0x1022C, size: 0x8, addend: 0x0, symName: __ZNSt3__16vectorI5StatsNS_9allocatorIS1_EEE3endB7v160006Ev, symObjAddr: 0x508, symBinAddr: 0x10000192C, symSize: 0x30 }
  - { offsetInCU: 0x10254, offset: 0x10254, size: 0x8, addend: 0x0, symName: __ZNKSt3__111__wrap_iterIP5StatsEdeB7v160006Ev, symObjAddr: 0x56C, symBinAddr: 0x100001990, symSize: 0x18 }
  - { offsetInCU: 0x1027A, offset: 0x1027A, size: 0x8, addend: 0x0, symName: __ZNK5Stats7getNameEv, symObjAddr: 0x5E0, symBinAddr: 0x100001A04, symSize: 0x38 }
  - { offsetInCU: 0x102A0, offset: 0x102A0, size: 0x8, addend: 0x0, symName: __ZNK5Stats8getValueEv, symObjAddr: 0x69C, symBinAddr: 0x100001AC0, symSize: 0x3C }
  - { offsetInCU: 0x102C6, offset: 0x102C6, size: 0x8, addend: 0x0, symName: __ZNKSt3__112basic_stringIcNS_11char_traitsIcEENS_9allocatorIcEEE5c_strB7v160006Ev, symObjAddr: 0x6D8, symBinAddr: 0x100001AFC, symSize: 0x24 }
  - { offsetInCU: 0x102EC, offset: 0x102EC, size: 0x8, addend: 0x0, symName: __ZNKSt3__112basic_stringIcNS_11char_traitsIcEENS_9allocatorIcEEE4sizeB7v160006Ev, symObjAddr: 0x6FC, symBinAddr: 0x100001B20, symSize: 0x54 }
  - { offsetInCU: 0x10312, offset: 0x10312, size: 0x8, addend: 0x0, symName: __ZNKSt3__112basic_stringIcNS_11char_traitsIcEENS_9allocatorIcEEE6substrB7v160006Emm, symObjAddr: 0x898, symBinAddr: 0x100001CBC, symSize: 0x68 }
  - { offsetInCU: 0x10356, offset: 0x10356, size: 0x8, addend: 0x0, symName: __ZN5Stats8setAgentENSt3__117basic_string_viewIcNS0_11char_traitsIcEEEE, symObjAddr: 0x900, symBinAddr: 0x100001D24, symSize: 0x34 }
  - { offsetInCU: 0x10379, offset: 0x10379, size: 0x8, addend: 0x0, symName: __ZNKSt3__112basic_stringIcNS_11char_traitsIcEENS_9allocatorIcEEEcvNS_17basic_string_viewIcS2_EEB7v160006Ev, symObjAddr: 0x934, symBinAddr: 0x100001D58, symSize: 0x50 }
  - { offsetInCU: 0x103BA, offset: 0x103BA, size: 0x8, addend: 0x0, symName: __ZNSt3__16vectorI5StatsNS_9allocatorIS1_EEE12emplace_backIJRA5_KcRNS_12basic_stringIcNS_11char_traitsIcEENS2_IcEEEEEEERS1_DpOT_, symObjAddr: 0x984, symBinAddr: 0x100001DA8, symSize: 0x80 }
  - { offsetInCU: 0x10410, offset: 0x10410, size: 0x8, addend: 0x0, symName: __ZNSt3__111__wrap_iterIP5StatsEppB7v160006Ev, symObjAddr: 0xA04, symBinAddr: 0x100001E28, symSize: 0x20 }
  - { offsetInCU: 0x10436, offset: 0x10436, size: 0x8, addend: 0x0, symName: __ZNSt3__16vectorI5StatsNS_9allocatorIS1_EEE6insertINS_11__wrap_iterIPS1_EELi0EEES8_NS6_IPKS1_EET_SC_, symObjAddr: 0xA24, symBinAddr: 0x100001E48, symSize: 0x328 }
  - { offsetInCU: 0x10555, offset: 0x10555, size: 0x8, addend: 0x0, symName: __ZNSt3__111__wrap_iterIPK5StatsEC1B7v160006IPS1_EERKNS0_IT_EEPNS_9enable_ifIXsr14is_convertibleIS7_S3_EE5valueEvE4typeE, symObjAddr: 0xD4C, symBinAddr: 0x100002170, symSize: 0x3C }
  - { offsetInCU: 0x105A0, offset: 0x105A0, size: 0x8, addend: 0x0, symName: __ZNSt3__16vectorI5StatsNS_9allocatorIS1_EEED1B7v160006Ev, symObjAddr: 0xD88, symBinAddr: 0x1000021AC, symSize: 0x2C }
  - { offsetInCU: 0x105C9, offset: 0x105C9, size: 0x8, addend: 0x0, symName: __Z12streamParserRKNSt3__112basic_stringIcNS_11char_traitsIcEENS_9allocatorIcEEEERNS_6vectorI5StatsNS3_IS9_EEEE, symObjAddr: 0xDB4, symBinAddr: 0x1000021D8, symSize: 0xE0 }
  - { offsetInCU: 0x10776, offset: 0x10776, size: 0x8, addend: 0x0, symName: __ZNSt3__119basic_istringstreamIcNS_11char_traitsIcEENS_9allocatorIcEEEC1B7v160006ERKNS_12basic_stringIcS2_S4_EEj, symObjAddr: 0xE94, symBinAddr: 0x1000022B8, symSize: 0xFC }
  - { offsetInCU: 0x107BE, offset: 0x107BE, size: 0x8, addend: 0x0, symName: __ZNSt3__112basic_stringIcNS_11char_traitsIcEENS_9allocatorIcEEEC1B7v160006Ev, symObjAddr: 0xF90, symBinAddr: 0x1000023B4, symSize: 0x2C }
  - { offsetInCU: 0x107E8, offset: 0x107E8, size: 0x8, addend: 0x0, symName: __ZNKSt3__19basic_iosIcNS_11char_traitsIcEEEcvbB7v160006Ev, symObjAddr: 0x12D8, symBinAddr: 0x1000026FC, symSize: 0x2C }
  - { offsetInCU: 0x10824, offset: 0x10824, size: 0x8, addend: 0x0, symName: __ZNSt3__16vectorI5StatsNS_9allocatorIS1_EEE12emplace_backIJRA12_KcRNS_12basic_stringIcNS_11char_traitsIcEENS2_IcEEEEEEERS1_DpOT_, symObjAddr: 0x1304, symBinAddr: 0x100002728, symSize: 0x80 }
  - { offsetInCU: 0x1087F, offset: 0x1087F, size: 0x8, addend: 0x0, symName: __ZNSt3__119basic_istringstreamIcNS_11char_traitsIcEENS_9allocatorIcEEED1Ev, symObjAddr: 0x1384, symBinAddr: 0x1000027A8, symSize: 0x40 }
  - { offsetInCU: 0x108AB, offset: 0x108AB, size: 0x8, addend: 0x0, symName: __Z12streamParserRKNSt3__112basic_stringIcNS_11char_traitsIcEENS_9allocatorIcEEEERNS_6vectorI12DockerConfigNS3_IS9_EEEES5_b, symObjAddr: 0x13C4, symBinAddr: 0x1000027E8, symSize: 0x604 }
  - { offsetInCU: 0x10A96, offset: 0x10A96, size: 0x8, addend: 0x0, symName: __ZN12DockerConfigC1Ev, symObjAddr: 0x19DC, symBinAddr: 0x100002E00, symSize: 0x2C }
  - { offsetInCU: 0x10AC0, offset: 0x10AC0, size: 0x8, addend: 0x0, symName: __ZNSt3__112basic_stringIcNS_11char_traitsIcEENS_9allocatorIcEEE5beginB7v160006Ev, symObjAddr: 0x1A08, symBinAddr: 0x100002E2C, symSize: 0x4C }
  - { offsetInCU: 0x10AE6, offset: 0x10AE6, size: 0x8, addend: 0x0, symName: __ZNSt3__112basic_stringIcNS_11char_traitsIcEENS_9allocatorIcEEE3endB7v160006Ev, symObjAddr: 0x1A54, symBinAddr: 0x100002E78, symSize: 0x54 }
  - { offsetInCU: 0x10B0C, offset: 0x10B0C, size: 0x8, addend: 0x0, symName: __ZNKSt3__111__wrap_iterIPcEdeB7v160006Ev, symObjAddr: 0x1ADC, symBinAddr: 0x100002F00, symSize: 0x18 }
  - { offsetInCU: 0x10B32, offset: 0x10B32, size: 0x8, addend: 0x0, symName: __ZNSt3__112basic_stringIcNS_11char_traitsIcEENS_9allocatorIcEEEpLB7v160006Ec, symObjAddr: 0x1B1C, symBinAddr: 0x100002F40, symSize: 0x34 }
  - { offsetInCU: 0x10B67, offset: 0x10B67, size: 0x8, addend: 0x0, symName: __ZNSt3__111__wrap_iterIPcEppB7v160006Ev, symObjAddr: 0x1B50, symBinAddr: 0x100002F74, symSize: 0x20 }
  - { offsetInCU: 0x10B8D, offset: 0x10B8D, size: 0x8, addend: 0x0, symName: __ZNSt3__112basic_stringIcNS_11char_traitsIcEENS_9allocatorIcEEEpLB7v160006ERKS5_, symObjAddr: 0x1B70, symBinAddr: 0x100002F94, symSize: 0x2C }
  - { offsetInCU: 0x10BC2, offset: 0x10BC2, size: 0x8, addend: 0x0, symName: __ZNSt3__16vectorI12DockerConfigNS_9allocatorIS1_EEE5beginB7v160006Ev, symObjAddr: 0x1B9C, symBinAddr: 0x100002FC0, symSize: 0x30 }
  - { offsetInCU: 0x10BEA, offset: 0x10BEA, size: 0x8, addend: 0x0, symName: __ZNSt3__16vectorI12DockerConfigNS_9allocatorIS1_EEE3endB7v160006Ev, symObjAddr: 0x1BCC, symBinAddr: 0x100002FF0, symSize: 0x30 }
  - { offsetInCU: 0x10C12, offset: 0x10C12, size: 0x8, addend: 0x0, symName: __ZNKSt3__111__wrap_iterIP12DockerConfigEdeB7v160006Ev, symObjAddr: 0x1C30, symBinAddr: 0x100003054, symSize: 0x18 }
  - { offsetInCU: 0x10C38, offset: 0x10C38, size: 0x8, addend: 0x0, symName: __ZNSt3__111__wrap_iterIP12DockerConfigEppB7v160006Ev, symObjAddr: 0x1C48, symBinAddr: 0x10000306C, symSize: 0x20 }
  - { offsetInCU: 0x10C5E, offset: 0x10C5E, size: 0x8, addend: 0x0, symName: __ZNSt3__112basic_stringIcNS_11char_traitsIcEENS_9allocatorIcEEEaSB7v160006EOS5_, symObjAddr: 0x1C68, symBinAddr: 0x10000308C, symSize: 0x34 }
  - { offsetInCU: 0x10C93, offset: 0x10C93, size: 0x8, addend: 0x0, symName: __ZNSt3__112basic_stringIcNS_11char_traitsIcEENS_9allocatorIcEEEaSB7v160006EPKc, symObjAddr: 0x1C9C, symBinAddr: 0x1000030C0, symSize: 0x2C }
  - { offsetInCU: 0x10CC8, offset: 0x10CC8, size: 0x8, addend: 0x0, symName: __ZNSt3__16vectorI12DockerConfigNS_9allocatorIS1_EEE12emplace_backIJRS1_EEES6_DpOT_, symObjAddr: 0x1CC8, symBinAddr: 0x1000030EC, symSize: 0x74 }
  - { offsetInCU: 0x10D0A, offset: 0x10D0A, size: 0x8, addend: 0x0, symName: __ZN12DockerConfigD1Ev, symObjAddr: 0x1D3C, symBinAddr: 0x100003160, symSize: 0x2C }
  - { offsetInCU: 0x10D35, offset: 0x10D35, size: 0x8, addend: 0x0, symName: __Z12dockerHealthRNSt3__16vectorI5StatsNS_9allocatorIS1_EEEE, symObjAddr: 0x1D68, symBinAddr: 0x10000318C, symSize: 0x90 }
  - { offsetInCU: 0x10D6C, offset: 0x10D6C, size: 0x8, addend: 0x0, symName: __ZNKSt3__112basic_stringIcNS_11char_traitsIcEENS_9allocatorIcEEE5emptyB7v160006Ev, symObjAddr: 0x1DF8, symBinAddr: 0x10000321C, symSize: 0x30 }
  - { offsetInCU: 0x10D92, offset: 0x10D92, size: 0x8, addend: 0x0, symName: __ZN5Stats10setBooleanEb, symObjAddr: 0x1E28, symBinAddr: 0x10000324C, symSize: 0x2C }
  - { offsetInCU: 0x10DB4, offset: 0x10DB4, size: 0x8, addend: 0x0, symName: __Z11dockerStatsRNSt3__16vectorI5StatsNS_9allocatorIS1_EEEERNS0_I12DockerConfigNS2_IS6_EEEE, symObjAddr: 0x1E54, symBinAddr: 0x100003278, symSize: 0x568 }
  - { offsetInCU: 0x10E5D, offset: 0x10E5D, size: 0x8, addend: 0x0, symName: __ZN5Stats8getAgentEv, symObjAddr: 0x23BC, symBinAddr: 0x1000037E0, symSize: 0x30 }
  - { offsetInCU: 0x10E71, offset: 0x10E71, size: 0x8, addend: 0x0, symName: __ZNSt3__16bitsetILm4EEC2B7v160006Ey, symObjAddr: 0x23EC, symBinAddr: 0x100003810, symSize: 0x34 }
  - { offsetInCU: 0x10EAA, offset: 0x10EAA, size: 0x8, addend: 0x0, symName: __ZNSt3__18__bitsetILm1ELm4EEC2Ey, symObjAddr: 0x2420, symBinAddr: 0x100003844, symSize: 0x24 }
  - { offsetInCU: 0x10EE5, offset: 0x10EE5, size: 0x8, addend: 0x0, symName: __ZNSt3__16vectorI5StatsNS_9allocatorIS1_EEEC2B7v160006Ev, symObjAddr: 0x2444, symBinAddr: 0x100003868, symSize: 0x58 }
  - { offsetInCU: 0x10F1B, offset: 0x10F1B, size: 0x8, addend: 0x0, symName: __ZNSt3__117__compressed_pairIP5StatsNS_9allocatorIS1_EEEC1B7v160006IDnNS_18__default_init_tagEEEOT_OT0_, symObjAddr: 0x249C, symBinAddr: 0x1000038C0, symSize: 0x3C }
  - { offsetInCU: 0x10F73, offset: 0x10F73, size: 0x8, addend: 0x0, symName: __ZNSt3__117__compressed_pairIP5StatsNS_9allocatorIS1_EEEC2B7v160006IDnNS_18__default_init_tagEEEOT_OT0_, symObjAddr: 0x24F4, symBinAddr: 0x100003918, symSize: 0x40 }
  - { offsetInCU: 0x10FCB, offset: 0x10FCB, size: 0x8, addend: 0x0, symName: __ZNSt3__122__compressed_pair_elemIP5StatsLi0ELb0EEC2B7v160006IDnvEEOT_, symObjAddr: 0x2534, symBinAddr: 0x100003958, symSize: 0x1C }
  - { offsetInCU: 0x1100D, offset: 0x1100D, size: 0x8, addend: 0x0, symName: __ZNSt3__122__compressed_pair_elemINS_9allocatorI5StatsEELi1ELb1EEC2B7v160006ENS_18__default_init_tagE, symObjAddr: 0x2550, symBinAddr: 0x100003974, symSize: 0x2C }
  - { offsetInCU: 0x11041, offset: 0x11041, size: 0x8, addend: 0x0, symName: __ZNSt3__19allocatorI5StatsEC2B7v160006Ev, symObjAddr: 0x257C, symBinAddr: 0x1000039A0, symSize: 0x2C }
  - { offsetInCU: 0x1106B, offset: 0x1106B, size: 0x8, addend: 0x0, symName: __ZNSt3__116__non_trivial_ifILb1ENS_9allocatorI5StatsEEEC2B7v160006Ev, symObjAddr: 0x25A8, symBinAddr: 0x1000039CC, symSize: 0x14 }
  - { offsetInCU: 0x11095, offset: 0x11095, size: 0x8, addend: 0x0, symName: __ZNSt3__112basic_stringIcNS_11char_traitsIcEENS_9allocatorIcEEEC2B7v160006IDnEEPKc, symObjAddr: 0x25BC, symBinAddr: 0x1000039E0, symSize: 0x60 }
  - { offsetInCU: 0x110D3, offset: 0x110D3, size: 0x8, addend: 0x0, symName: __ZNSt3__117__compressed_pairINS_12basic_stringIcNS_11char_traitsIcEENS_9allocatorIcEEE5__repES5_EC1B7v160006INS_18__default_init_tagESA_EEOT_OT0_, symObjAddr: 0x261C, symBinAddr: 0x100003A40, symSize: 0x3C }
  - { offsetInCU: 0x1112B, offset: 0x1112B, size: 0x8, addend: 0x0, symName: __ZNSt3__111char_traitsIcE6lengthEPKc, symObjAddr: 0x2658, symBinAddr: 0x100003A7C, symSize: 0x34 }
  - { offsetInCU: 0x1114E, offset: 0x1114E, size: 0x8, addend: 0x0, symName: __ZNSt3__117__compressed_pairINS_12basic_stringIcNS_11char_traitsIcEENS_9allocatorIcEEE5__repES5_EC2B7v160006INS_18__default_init_tagESA_EEOT_OT0_, symObjAddr: 0x269C, symBinAddr: 0x100003AC0, symSize: 0x3C }
  - { offsetInCU: 0x111A6, offset: 0x111A6, size: 0x8, addend: 0x0, symName: __ZNSt3__122__compressed_pair_elemINS_12basic_stringIcNS_11char_traitsIcEENS_9allocatorIcEEE5__repELi0ELb0EEC2B7v160006ENS_18__default_init_tagE, symObjAddr: 0x26D8, symBinAddr: 0x100003AFC, symSize: 0x14 }
  - { offsetInCU: 0x111DA, offset: 0x111DA, size: 0x8, addend: 0x0, symName: __ZNSt3__122__compressed_pair_elemINS_9allocatorIcEELi1ELb1EEC2B7v160006ENS_18__default_init_tagE, symObjAddr: 0x26EC, symBinAddr: 0x100003B10, symSize: 0x2C }
  - { offsetInCU: 0x1120E, offset: 0x1120E, size: 0x8, addend: 0x0, symName: __ZNSt3__19allocatorIcEC2B7v160006Ev, symObjAddr: 0x2718, symBinAddr: 0x100003B3C, symSize: 0x2C }
  - { offsetInCU: 0x11238, offset: 0x11238, size: 0x8, addend: 0x0, symName: __ZNSt3__116__non_trivial_ifILb1ENS_9allocatorIcEEEC2B7v160006Ev, symObjAddr: 0x2744, symBinAddr: 0x100003B68, symSize: 0x14 }
  - { offsetInCU: 0x11262, offset: 0x11262, size: 0x8, addend: 0x0, symName: __ZNSt3__16vectorI5StatsNS_9allocatorIS1_EEE11__make_iterB7v160006EPS1_, symObjAddr: 0x277C, symBinAddr: 0x100003BA0, symSize: 0x34 }
  - { offsetInCU: 0x11297, offset: 0x11297, size: 0x8, addend: 0x0, symName: __ZNSt3__111__wrap_iterIP5StatsEC1B7v160006EPKvS2_, symObjAddr: 0x27B0, symBinAddr: 0x100003BD4, symSize: 0x3C }
  - { offsetInCU: 0x112DD, offset: 0x112DD, size: 0x8, addend: 0x0, symName: __ZNSt3__111__wrap_iterIP5StatsEC2B7v160006EPKvS2_, symObjAddr: 0x27EC, symBinAddr: 0x100003C10, symSize: 0x24 }
  - { offsetInCU: 0x11323, offset: 0x11323, size: 0x8, addend: 0x0, symName: __ZNKSt3__111__wrap_iterIP5StatsE4baseB7v160006Ev, symObjAddr: 0x2858, symBinAddr: 0x100003C7C, symSize: 0x18 }
  - { offsetInCU: 0x11349, offset: 0x11349, size: 0x8, addend: 0x0, symName: __ZNSt3__117basic_string_viewIcNS_11char_traitsIcEEEC1B7v160006EPKc, symObjAddr: 0x2920, symBinAddr: 0x100003D44, symSize: 0x34 }
  - { offsetInCU: 0x11382, offset: 0x11382, size: 0x8, addend: 0x0, symName: __ZNKSt3__117basic_string_viewIcNS_11char_traitsIcEEE4sizeB7v160006Ev, symObjAddr: 0x2954, symBinAddr: 0x100003D78, symSize: 0x18 }
  - { offsetInCU: 0x113A8, offset: 0x113A8, size: 0x8, addend: 0x0, symName: __ZNKSt3__117basic_string_viewIcNS_11char_traitsIcEEE7compareES3_, symObjAddr: 0x296C, symBinAddr: 0x100003D90, symSize: 0x13C }
  - { offsetInCU: 0x113FB, offset: 0x113FB, size: 0x8, addend: 0x0, symName: __ZNSt3__111char_traitsIcE7compareEPKcS3_m, symObjAddr: 0x2AD4, symBinAddr: 0x100003EF8, symSize: 0x6C }
  - { offsetInCU: 0x1143A, offset: 0x1143A, size: 0x8, addend: 0x0, symName: __ZNKSt3__117basic_string_viewIcNS_11char_traitsIcEEE4dataB7v160006Ev, symObjAddr: 0x2B40, symBinAddr: 0x100003F64, symSize: 0x18 }
  - { offsetInCU: 0x11474, offset: 0x11474, size: 0x8, addend: 0x0, symName: __ZNKSt3__16__lessImmEclB7v160006ERKmS3_, symObjAddr: 0x2BAC, symBinAddr: 0x100003FD0, symSize: 0x34 }
  - { offsetInCU: 0x114B6, offset: 0x114B6, size: 0x8, addend: 0x0, symName: __ZNSt3__117basic_string_viewIcNS_11char_traitsIcEEEC2B7v160006EPKc, symObjAddr: 0x2C14, symBinAddr: 0x100004038, symSize: 0x44 }
  - { offsetInCU: 0x114EF, offset: 0x114EF, size: 0x8, addend: 0x0, symName: __ZNSt3__112basic_stringIcNS_11char_traitsIcEENS_9allocatorIcEEEC1B7v160006EOS5_, symObjAddr: 0x2C7C, symBinAddr: 0x1000040A0, symSize: 0x34 }
  - { offsetInCU: 0x11528, offset: 0x11528, size: 0x8, addend: 0x0, symName: __ZNSt3__112basic_stringIcNS_11char_traitsIcEENS_9allocatorIcEEEC2B7v160006EOS5_, symObjAddr: 0x2CB0, symBinAddr: 0x1000040D4, symSize: 0x84 }
  - { offsetInCU: 0x11561, offset: 0x11561, size: 0x8, addend: 0x0, symName: __ZNSt3__112basic_stringIcNS_11char_traitsIcEENS_9allocatorIcEEE14__default_initB7v160006Ev, symObjAddr: 0x2D34, symBinAddr: 0x100004158, symSize: 0x40 }
  - { offsetInCU: 0x11587, offset: 0x11587, size: 0x8, addend: 0x0, symName: __ZNKSt3__112basic_stringIcNS_11char_traitsIcEENS_9allocatorIcEEE9__is_longB7v160006Ev, symObjAddr: 0x2D74, symBinAddr: 0x100004198, symSize: 0x38 }
  - { offsetInCU: 0x115AD, offset: 0x115AD, size: 0x8, addend: 0x0, symName: __ZNSt3__117__compressed_pairINS_12basic_stringIcNS_11char_traitsIcEENS_9allocatorIcEEE5__repES5_E5firstB7v160006Ev, symObjAddr: 0x2DC0, symBinAddr: 0x1000041E4, symSize: 0x24 }
  - { offsetInCU: 0x115D3, offset: 0x115D3, size: 0x8, addend: 0x0, symName: __ZNSt3__122__compressed_pair_elemINS_12basic_stringIcNS_11char_traitsIcEENS_9allocatorIcEEE5__repELi0ELb0EE5__getB7v160006Ev, symObjAddr: 0x2DE4, symBinAddr: 0x100004208, symSize: 0x14 }
  - { offsetInCU: 0x115F9, offset: 0x115F9, size: 0x8, addend: 0x0, symName: __ZNKSt3__117__compressed_pairINS_12basic_stringIcNS_11char_traitsIcEENS_9allocatorIcEEE5__repES5_E5firstB7v160006Ev, symObjAddr: 0x2DF8, symBinAddr: 0x10000421C, symSize: 0x24 }
  - { offsetInCU: 0x1161F, offset: 0x1161F, size: 0x8, addend: 0x0, symName: __ZNKSt3__122__compressed_pair_elemINS_12basic_stringIcNS_11char_traitsIcEENS_9allocatorIcEEE5__repELi0ELb0EE5__getB7v160006Ev, symObjAddr: 0x2E1C, symBinAddr: 0x100004240, symSize: 0x14 }
  - { offsetInCU: 0x11645, offset: 0x11645, size: 0x8, addend: 0x0, symName: __ZNKSt3__112basic_stringIcNS_11char_traitsIcEENS_9allocatorIcEEE4dataB7v160006Ev, symObjAddr: 0x2E30, symBinAddr: 0x100004254, symSize: 0x28 }
  - { offsetInCU: 0x1166B, offset: 0x1166B, size: 0x8, addend: 0x0, symName: __ZNKSt3__112basic_stringIcNS_11char_traitsIcEENS_9allocatorIcEEE13__get_pointerB7v160006Ev, symObjAddr: 0x2E6C, symBinAddr: 0x100004290, symSize: 0x54 }
  - { offsetInCU: 0x11691, offset: 0x11691, size: 0x8, addend: 0x0, symName: __ZNKSt3__112basic_stringIcNS_11char_traitsIcEENS_9allocatorIcEEE18__get_long_pointerB7v160006Ev, symObjAddr: 0x2EC0, symBinAddr: 0x1000042E4, symSize: 0x28 }
  - { offsetInCU: 0x116B7, offset: 0x116B7, size: 0x8, addend: 0x0, symName: __ZNKSt3__112basic_stringIcNS_11char_traitsIcEENS_9allocatorIcEEE19__get_short_pointerB7v160006Ev, symObjAddr: 0x2EE8, symBinAddr: 0x10000430C, symSize: 0x28 }
  - { offsetInCU: 0x116DD, offset: 0x116DD, size: 0x8, addend: 0x0, symName: __ZNSt3__114pointer_traitsIPKcE10pointer_toB7v160006ERS1_, symObjAddr: 0x2F10, symBinAddr: 0x100004334, symSize: 0x14 }
  - { offsetInCU: 0x11700, offset: 0x11700, size: 0x8, addend: 0x0, symName: __ZNKSt3__112basic_stringIcNS_11char_traitsIcEENS_9allocatorIcEEE15__get_long_sizeB7v160006Ev, symObjAddr: 0x2F24, symBinAddr: 0x100004348, symSize: 0x28 }
  - { offsetInCU: 0x11726, offset: 0x11726, size: 0x8, addend: 0x0, symName: __ZNKSt3__112basic_stringIcNS_11char_traitsIcEENS_9allocatorIcEEE16__get_short_sizeB7v160006Ev, symObjAddr: 0x2F4C, symBinAddr: 0x100004370, symSize: 0x34 }
  - { offsetInCU: 0x1174C, offset: 0x1174C, size: 0x8, addend: 0x0, symName: __ZNSt3__19allocatorIcEC1B7v160006Ev, symObjAddr: 0x2F80, symBinAddr: 0x1000043A4, symSize: 0x2C }
  - { offsetInCU: 0x11776, offset: 0x11776, size: 0x8, addend: 0x0, symName: __ZNSt3__112basic_stringIcNS_11char_traitsIcEENS_9allocatorIcEEEaSINS_17basic_string_viewIcS2_EEvEERS5_RKT_, symObjAddr: 0x2FAC, symBinAddr: 0x1000043D0, symSize: 0x38 }
  - { offsetInCU: 0x117C4, offset: 0x117C4, size: 0x8, addend: 0x0, symName: __ZNSt3__112basic_stringIcNS_11char_traitsIcEENS_9allocatorIcEEE6assignINS_17basic_string_viewIcS2_EEEENS_9enable_ifIXsr33__can_be_converted_to_string_viewIcS2_T_EE5valueERS5_E4typeERKSA_, symObjAddr: 0x2FE4, symBinAddr: 0x100004408, symSize: 0x60 }
  - { offsetInCU: 0x11811, offset: 0x11811, size: 0x8, addend: 0x0, symName: __ZNSt3__117basic_string_viewIcNS_11char_traitsIcEEEC1B7v160006EPKcm, symObjAddr: 0x3044, symBinAddr: 0x100004468, symSize: 0x3C }
  - { offsetInCU: 0x11859, offset: 0x11859, size: 0x8, addend: 0x0, symName: __ZNSt3__117basic_string_viewIcNS_11char_traitsIcEEEC2B7v160006EPKcm, symObjAddr: 0x3080, symBinAddr: 0x1000044A4, symSize: 0x50 }
  - { offsetInCU: 0x118A1, offset: 0x118A1, size: 0x8, addend: 0x0, symName: __ZNSt3__16vectorI5StatsNS_9allocatorIS1_EEE9__end_capB7v160006Ev, symObjAddr: 0x30D0, symBinAddr: 0x1000044F4, symSize: 0x28 }
  - { offsetInCU: 0x118C7, offset: 0x118C7, size: 0x8, addend: 0x0, symName: __ZNSt3__16vectorI5StatsNS_9allocatorIS1_EEE22__construct_one_at_endB7v160006IJRA5_KcRNS_12basic_stringIcNS_11char_traitsIcEENS2_IcEEEEEEEvDpOT_, symObjAddr: 0x30F8, symBinAddr: 0x10000451C, symSize: 0x98 }
  - { offsetInCU: 0x1192A, offset: 0x1192A, size: 0x8, addend: 0x0, symName: __ZNSt3__16vectorI5StatsNS_9allocatorIS1_EEE24__emplace_back_slow_pathIJRA5_KcRNS_12basic_stringIcNS_11char_traitsIcEENS2_IcEEEEEEEvDpOT_, symObjAddr: 0x3190, symBinAddr: 0x1000045B4, symSize: 0xE0 }
  - { offsetInCU: 0x1199E, offset: 0x1199E, size: 0x8, addend: 0x0, symName: __ZNSt3__16vectorI5StatsNS_9allocatorIS1_EEE4backB7v160006Ev, symObjAddr: 0x3270, symBinAddr: 0x100004694, symSize: 0x1C }
  - { offsetInCU: 0x119C4, offset: 0x119C4, size: 0x8, addend: 0x0, symName: __ZNSt3__117__compressed_pairIP5StatsNS_9allocatorIS1_EEE5firstB7v160006Ev, symObjAddr: 0x328C, symBinAddr: 0x1000046B0, symSize: 0x24 }
  - { offsetInCU: 0x119EA, offset: 0x119EA, size: 0x8, addend: 0x0, symName: __ZNSt3__122__compressed_pair_elemIP5StatsLi0ELb0EE5__getB7v160006Ev, symObjAddr: 0x32B0, symBinAddr: 0x1000046D4, symSize: 0x14 }
  - { offsetInCU: 0x11A29, offset: 0x11A29, size: 0x8, addend: 0x0, symName: __ZNSt3__16vectorI5StatsNS_9allocatorIS1_EEE21_ConstructTransactionC1B7v160006ERS4_m, symObjAddr: 0x32C4, symBinAddr: 0x1000046E8, symSize: 0x3C }
  - { offsetInCU: 0x11A71, offset: 0x11A71, size: 0x8, addend: 0x0, symName: __ZNSt3__116allocator_traitsINS_9allocatorI5StatsEEE9constructB7v160006IS2_JRA5_KcRNS_12basic_stringIcNS_11char_traitsIcEENS1_IcEEEEEvvEEvRS3_PT_DpOT0_, symObjAddr: 0x3300, symBinAddr: 0x100004724, symSize: 0x38 }
  - { offsetInCU: 0x11ADA, offset: 0x11ADA, size: 0x8, addend: 0x0, symName: __ZNSt3__16vectorI5StatsNS_9allocatorIS1_EEE7__allocB7v160006Ev, symObjAddr: 0x3338, symBinAddr: 0x10000475C, symSize: 0x28 }
  - { offsetInCU: 0x11B00, offset: 0x11B00, size: 0x8, addend: 0x0, symName: __ZNSt3__16vectorI5StatsNS_9allocatorIS1_EEE21_ConstructTransactionD1B7v160006Ev, symObjAddr: 0x3374, symBinAddr: 0x100004798, symSize: 0x2C }
  - { offsetInCU: 0x11B2A, offset: 0x11B2A, size: 0x8, addend: 0x0, symName: __ZNSt3__16vectorI5StatsNS_9allocatorIS1_EEE21_ConstructTransactionC2B7v160006ERS4_m, symObjAddr: 0x33A0, symBinAddr: 0x1000047C4, symSize: 0x4C }
  - { offsetInCU: 0x11B72, offset: 0x11B72, size: 0x8, addend: 0x0, symName: __ZN5StatsC1ENSt3__117basic_string_viewIcNS0_11char_traitsIcEEEES4_, symObjAddr: 0x345C, symBinAddr: 0x100004880, symSize: 0x4C }
  - { offsetInCU: 0x11BB8, offset: 0x11BB8, size: 0x8, addend: 0x0, symName: __ZN5StatsC2ENSt3__117basic_string_viewIcNS0_11char_traitsIcEEEES4_, symObjAddr: 0x34A8, symBinAddr: 0x1000048CC, symSize: 0x84 }
  - { offsetInCU: 0x11BFE, offset: 0x11BFE, size: 0x8, addend: 0x0, symName: __ZNSt3__112basic_stringIcNS_11char_traitsIcEENS_9allocatorIcEEEC1INS_17basic_string_viewIcS2_EEvEERKT_, symObjAddr: 0x352C, symBinAddr: 0x100004950, symSize: 0x34 }
  - { offsetInCU: 0x11C43, offset: 0x11C43, size: 0x8, addend: 0x0, symName: __ZNSt3__112basic_stringIcNS_11char_traitsIcEENS_9allocatorIcEEEC2INS_17basic_string_viewIcS2_EEvEERKT_, symObjAddr: 0x3560, symBinAddr: 0x100004984, symSize: 0x78 }
  - { offsetInCU: 0x11CA5, offset: 0x11CA5, size: 0x8, addend: 0x0, symName: __ZNSt3__117__compressed_pairIP5StatsNS_9allocatorIS1_EEE6secondB7v160006Ev, symObjAddr: 0x35D8, symBinAddr: 0x1000049FC, symSize: 0x24 }
  - { offsetInCU: 0x11CCB, offset: 0x11CCB, size: 0x8, addend: 0x0, symName: __ZNSt3__122__compressed_pair_elemINS_9allocatorI5StatsEELi1ELb1EE5__getB7v160006Ev, symObjAddr: 0x35FC, symBinAddr: 0x100004A20, symSize: 0x14 }
  - { offsetInCU: 0x11CF1, offset: 0x11CF1, size: 0x8, addend: 0x0, symName: __ZNSt3__16vectorI5StatsNS_9allocatorIS1_EEE21_ConstructTransactionD2B7v160006Ev, symObjAddr: 0x3610, symBinAddr: 0x100004A34, symSize: 0x20 }
  - { offsetInCU: 0x11D1B, offset: 0x11D1B, size: 0x8, addend: 0x0, symName: __ZNKSt3__16vectorI5StatsNS_9allocatorIS1_EEE11__recommendB7v160006Em, symObjAddr: 0x3630, symBinAddr: 0x100004A54, symSize: 0xB4 }
  - { offsetInCU: 0x11D70, offset: 0x11D70, size: 0x8, addend: 0x0, symName: __ZNKSt3__16vectorI5StatsNS_9allocatorIS1_EEE4sizeB7v160006Ev, symObjAddr: 0x36E4, symBinAddr: 0x100004B08, symSize: 0x28 }
  - { offsetInCU: 0x11D96, offset: 0x11D96, size: 0x8, addend: 0x0, symName: __ZNSt3__114__split_bufferI5StatsRNS_9allocatorIS1_EEEC1EmmS4_, symObjAddr: 0x370C, symBinAddr: 0x100004B30, symSize: 0x44 }
  - { offsetInCU: 0x11DEC, offset: 0x11DEC, size: 0x8, addend: 0x0, symName: __ZNSt3__114__split_bufferI5StatsRNS_9allocatorIS1_EEED1Ev, symObjAddr: 0x3868, symBinAddr: 0x100004C8C, symSize: 0x2C }
  - { offsetInCU: 0x11E18, offset: 0x11E18, size: 0x8, addend: 0x0, symName: __ZNKSt3__16vectorI5StatsNS_9allocatorIS1_EEE8max_sizeEv, symObjAddr: 0x3894, symBinAddr: 0x100004CB8, symSize: 0x60 }
  - { offsetInCU: 0x11E40, offset: 0x11E40, size: 0x8, addend: 0x0, symName: __ZNKSt3__16vectorI5StatsNS_9allocatorIS1_EEE20__throw_length_errorB7v160006Ev, symObjAddr: 0x38F4, symBinAddr: 0x100004D18, symSize: 0x1C }
  - { offsetInCU: 0x11E66, offset: 0x11E66, size: 0x8, addend: 0x0, symName: __ZNKSt3__16vectorI5StatsNS_9allocatorIS1_EEE8capacityB7v160006Ev, symObjAddr: 0x3910, symBinAddr: 0x100004D34, symSize: 0x40 }
  - { offsetInCU: 0x11E96, offset: 0x11E96, size: 0x8, addend: 0x0, symName: __ZNSt3__116allocator_traitsINS_9allocatorI5StatsEEE8max_sizeB7v160006IS3_vvEEmRKS3_, symObjAddr: 0x397C, symBinAddr: 0x100004DA0, symSize: 0x28 }
  - { offsetInCU: 0x11EC2, offset: 0x11EC2, size: 0x8, addend: 0x0, symName: __ZNKSt3__16vectorI5StatsNS_9allocatorIS1_EEE7__allocB7v160006Ev, symObjAddr: 0x39A4, symBinAddr: 0x100004DC8, symSize: 0x28 }
  - { offsetInCU: 0x11EE8, offset: 0x11EE8, size: 0x8, addend: 0x0, symName: __ZNSt3__114numeric_limitsIlE3maxB7v160006Ev, symObjAddr: 0x39CC, symBinAddr: 0x100004DF0, symSize: 0x14 }
  - { offsetInCU: 0x11EFC, offset: 0x11EFC, size: 0x8, addend: 0x0, symName: __ZNSt3__114numeric_limitsImE3maxB7v160006Ev, symObjAddr: 0x39E0, symBinAddr: 0x100004E04, symSize: 0x14 }
  - { offsetInCU: 0x11F10, offset: 0x11F10, size: 0x8, addend: 0x0, symName: __ZNSt3__123__libcpp_numeric_limitsImLb1EE3maxB7v160006Ev, symObjAddr: 0x39F4, symBinAddr: 0x100004E18, symSize: 0x8 }
  - { offsetInCU: 0x11F24, offset: 0x11F24, size: 0x8, addend: 0x0, symName: __ZNKSt3__117__compressed_pairIP5StatsNS_9allocatorIS1_EEE6secondB7v160006Ev, symObjAddr: 0x39FC, symBinAddr: 0x100004E20, symSize: 0x24 }
  - { offsetInCU: 0x11F4A, offset: 0x11F4A, size: 0x8, addend: 0x0, symName: __ZNKSt3__122__compressed_pair_elemINS_9allocatorI5StatsEELi1ELb1EE5__getB7v160006Ev, symObjAddr: 0x3A20, symBinAddr: 0x100004E44, symSize: 0x14 }
  - { offsetInCU: 0x11F70, offset: 0x11F70, size: 0x8, addend: 0x0, symName: __ZNSt3__123__libcpp_numeric_limitsIlLb1EE3maxB7v160006Ev, symObjAddr: 0x3A34, symBinAddr: 0x100004E58, symSize: 0x8 }
  - { offsetInCU: 0x11F84, offset: 0x11F84, size: 0x8, addend: 0x0, symName: __ZNSt12length_errorC1B7v160006EPKc, symObjAddr: 0x3AA0, symBinAddr: 0x100004EC4, symSize: 0x34 }
  - { offsetInCU: 0x11FBC, offset: 0x11FBC, size: 0x8, addend: 0x0, symName: __ZNSt12length_errorC2B7v160006EPKc, symObjAddr: 0x3AD4, symBinAddr: 0x100004EF8, symSize: 0x4C }
  - { offsetInCU: 0x11FF4, offset: 0x11FF4, size: 0x8, addend: 0x0, symName: __ZNKSt3__16vectorI5StatsNS_9allocatorIS1_EEE9__end_capB7v160006Ev, symObjAddr: 0x3B20, symBinAddr: 0x100004F44, symSize: 0x28 }
  - { offsetInCU: 0x1201A, offset: 0x1201A, size: 0x8, addend: 0x0, symName: __ZNKSt3__117__compressed_pairIP5StatsNS_9allocatorIS1_EEE5firstB7v160006Ev, symObjAddr: 0x3B48, symBinAddr: 0x100004F6C, symSize: 0x24 }
  - { offsetInCU: 0x12040, offset: 0x12040, size: 0x8, addend: 0x0, symName: __ZNKSt3__122__compressed_pair_elemIP5StatsLi0ELb0EE5__getB7v160006Ev, symObjAddr: 0x3B6C, symBinAddr: 0x100004F90, symSize: 0x14 }
  - { offsetInCU: 0x12066, offset: 0x12066, size: 0x8, addend: 0x0, symName: __ZNSt3__114__split_bufferI5StatsRNS_9allocatorIS1_EEEC2EmmS4_, symObjAddr: 0x3BD4, symBinAddr: 0x100004FF8, symSize: 0xE0 }
  - { offsetInCU: 0x120D9, offset: 0x120D9, size: 0x8, addend: 0x0, symName: __ZNSt3__117__compressed_pairIP5StatsRNS_9allocatorIS1_EEEC1B7v160006IDnS5_EEOT_OT0_, symObjAddr: 0x3CB4, symBinAddr: 0x1000050D8, symSize: 0x3C }
  - { offsetInCU: 0x12131, offset: 0x12131, size: 0x8, addend: 0x0, symName: __ZNSt3__114__split_bufferI5StatsRNS_9allocatorIS1_EEE7__allocB7v160006Ev, symObjAddr: 0x3D30, symBinAddr: 0x100005154, symSize: 0x28 }
  - { offsetInCU: 0x12157, offset: 0x12157, size: 0x8, addend: 0x0, symName: __ZNSt3__114__split_bufferI5StatsRNS_9allocatorIS1_EEE9__end_capB7v160006Ev, symObjAddr: 0x3D58, symBinAddr: 0x10000517C, symSize: 0x28 }
  - { offsetInCU: 0x1217D, offset: 0x1217D, size: 0x8, addend: 0x0, symName: __ZNSt3__117__compressed_pairIP5StatsRNS_9allocatorIS1_EEEC2B7v160006IDnS5_EEOT_OT0_, symObjAddr: 0x3D80, symBinAddr: 0x1000051A4, symSize: 0x48 }
  - { offsetInCU: 0x121D5, offset: 0x121D5, size: 0x8, addend: 0x0, symName: __ZNSt3__122__compressed_pair_elemIRNS_9allocatorI5StatsEELi1ELb0EEC2B7v160006IS4_vEEOT_, symObjAddr: 0x3DC8, symBinAddr: 0x1000051EC, symSize: 0x20 }
  - { offsetInCU: 0x12217, offset: 0x12217, size: 0x8, addend: 0x0, symName: __ZNSt3__19allocatorI5StatsE8allocateB7v160006Em, symObjAddr: 0x3DE8, symBinAddr: 0x10000520C, symSize: 0x5C }
  - { offsetInCU: 0x1224B, offset: 0x1224B, size: 0x8, addend: 0x0, symName: __ZNSt3__117__compressed_pairIP5StatsRNS_9allocatorIS1_EEE6secondB7v160006Ev, symObjAddr: 0x3F48, symBinAddr: 0x10000536C, symSize: 0x28 }
  - { offsetInCU: 0x12271, offset: 0x12271, size: 0x8, addend: 0x0, symName: __ZNSt3__122__compressed_pair_elemIRNS_9allocatorI5StatsEELi1ELb0EE5__getB7v160006Ev, symObjAddr: 0x3F70, symBinAddr: 0x100005394, symSize: 0x18 }
  - { offsetInCU: 0x12297, offset: 0x12297, size: 0x8, addend: 0x0, symName: __ZNSt3__117__compressed_pairIP5StatsRNS_9allocatorIS1_EEE5firstB7v160006Ev, symObjAddr: 0x3F88, symBinAddr: 0x1000053AC, symSize: 0x24 }
  - { offsetInCU: 0x122BD, offset: 0x122BD, size: 0x8, addend: 0x0, symName: __ZNKSt3__16vectorI5StatsNS_9allocatorIS1_EEE17__annotate_deleteB7v160006Ev, symObjAddr: 0x3FAC, symBinAddr: 0x1000053D0, symSize: 0xD4 }
  - { offsetInCU: 0x122E3, offset: 0x122E3, size: 0x8, addend: 0x0, symName: __ZNSt3__116reverse_iteratorIP5StatsEC1B7v160006ES2_, symObjAddr: 0x41AC, symBinAddr: 0x1000055D0, symSize: 0x34 }
  - { offsetInCU: 0x1231B, offset: 0x1231B, size: 0x8, addend: 0x0, symName: __ZNKSt3__116reverse_iteratorIP5StatsE4baseB7v160006Ev, symObjAddr: 0x41E0, symBinAddr: 0x100005604, symSize: 0x18 }
  - { offsetInCU: 0x12341, offset: 0x12341, size: 0x8, addend: 0x0, symName: __ZNKSt3__16vectorI5StatsNS_9allocatorIS1_EEE14__annotate_newB7v160006Em, symObjAddr: 0x4234, symBinAddr: 0x100005658, symSize: 0xC8 }
  - { offsetInCU: 0x12376, offset: 0x12376, size: 0x8, addend: 0x0, symName: __ZNKSt3__16vectorI5StatsNS_9allocatorIS1_EEE31__annotate_contiguous_containerB7v160006EPKvS6_S6_S6_, symObjAddr: 0x430C, symBinAddr: 0x100005730, symSize: 0x20 }
  - { offsetInCU: 0x123CC, offset: 0x123CC, size: 0x8, addend: 0x0, symName: __ZNKSt3__16vectorI5StatsNS_9allocatorIS1_EEE4dataB7v160006Ev, symObjAddr: 0x432C, symBinAddr: 0x100005750, symSize: 0x28 }
  - { offsetInCU: 0x123F2, offset: 0x123F2, size: 0x8, addend: 0x0, symName: __ZNSt3__129_AllocatorDestroyRangeReverseINS_9allocatorI5StatsEENS_16reverse_iteratorIPS2_EEEC1B7v160006ERS3_RS6_S9_, symObjAddr: 0x43A0, symBinAddr: 0x1000057C4, symSize: 0x44 }
  - { offsetInCU: 0x1244F, offset: 0x1244F, size: 0x8, addend: 0x0, symName: __ZNSt3__116allocator_traitsINS_9allocatorI5StatsEEE9constructB7v160006IS2_JS2_EvvEEvRS3_PT_DpOT0_, symObjAddr: 0x442C, symBinAddr: 0x100005850, symSize: 0x30 }
  - { offsetInCU: 0x124A4, offset: 0x124A4, size: 0x8, addend: 0x0, symName: __ZNKSt3__116reverse_iteratorIP5StatsEdeB7v160006Ev, symObjAddr: 0x4480, symBinAddr: 0x1000058A4, symSize: 0x28 }
  - { offsetInCU: 0x124D8, offset: 0x124D8, size: 0x8, addend: 0x0, symName: __ZNSt3__116reverse_iteratorIP5StatsEppB7v160006Ev, symObjAddr: 0x44A8, symBinAddr: 0x1000058CC, symSize: 0x20 }
  - { offsetInCU: 0x124FE, offset: 0x124FE, size: 0x8, addend: 0x0, symName: __ZNSt3__128__exception_guard_exceptionsINS_29_AllocatorDestroyRangeReverseINS_9allocatorI5StatsEENS_16reverse_iteratorIPS3_EEEEE10__completeB7v160006Ev, symObjAddr: 0x44C8, symBinAddr: 0x1000058EC, symSize: 0x1C }
  - { offsetInCU: 0x12524, offset: 0x12524, size: 0x8, addend: 0x0, symName: __ZNSt3__128__exception_guard_exceptionsINS_29_AllocatorDestroyRangeReverseINS_9allocatorI5StatsEENS_16reverse_iteratorIPS3_EEEEED1B7v160006Ev, symObjAddr: 0x44E4, symBinAddr: 0x100005908, symSize: 0x2C }
  - { offsetInCU: 0x1254E, offset: 0x1254E, size: 0x8, addend: 0x0, symName: __ZNSt3__128__exception_guard_exceptionsINS_29_AllocatorDestroyRangeReverseINS_9allocatorI5StatsEENS_16reverse_iteratorIPS3_EEEEEC1B7v160006ES8_, symObjAddr: 0x4510, symBinAddr: 0x100005934, symSize: 0x34 }
  - { offsetInCU: 0x12587, offset: 0x12587, size: 0x8, addend: 0x0, symName: __ZNSt3__128__exception_guard_exceptionsINS_29_AllocatorDestroyRangeReverseINS_9allocatorI5StatsEENS_16reverse_iteratorIPS3_EEEEEC2B7v160006ES8_, symObjAddr: 0x4544, symBinAddr: 0x100005968, symSize: 0x30 }
  - { offsetInCU: 0x125C0, offset: 0x125C0, size: 0x8, addend: 0x0, symName: __ZNSt3__129_AllocatorDestroyRangeReverseINS_9allocatorI5StatsEENS_16reverse_iteratorIPS2_EEEC2B7v160006ERS3_RS6_S9_, symObjAddr: 0x4574, symBinAddr: 0x100005998, symSize: 0x38 }
  - { offsetInCU: 0x12617, offset: 0x12617, size: 0x8, addend: 0x0, symName: __ZN5StatsC1EOS_, symObjAddr: 0x45E8, symBinAddr: 0x100005A0C, symSize: 0x34 }
  - { offsetInCU: 0x1264C, offset: 0x1264C, size: 0x8, addend: 0x0, symName: __ZN5StatsC2EOS_, symObjAddr: 0x461C, symBinAddr: 0x100005A40, symSize: 0x48 }
  - { offsetInCU: 0x12686, offset: 0x12686, size: 0x8, addend: 0x0, symName: __ZNSt3__119__to_address_helperINS_16reverse_iteratorIP5StatsEEvE6__callB7v160006ERKS4_, symObjAddr: 0x4664, symBinAddr: 0x100005A88, symSize: 0x38 }
  - { offsetInCU: 0x126A9, offset: 0x126A9, size: 0x8, addend: 0x0, symName: __ZNKSt3__116reverse_iteratorIP5StatsEptB7v160006Ev, symObjAddr: 0x469C, symBinAddr: 0x100005AC0, symSize: 0x2C }
  - { offsetInCU: 0x126CF, offset: 0x126CF, size: 0x8, addend: 0x0, symName: __ZNSt3__128__exception_guard_exceptionsINS_29_AllocatorDestroyRangeReverseINS_9allocatorI5StatsEENS_16reverse_iteratorIPS3_EEEEED2B7v160006Ev, symObjAddr: 0x47AC, symBinAddr: 0x100005BD0, symSize: 0x50 }
  - { offsetInCU: 0x126F9, offset: 0x126F9, size: 0x8, addend: 0x0, symName: __ZNKSt3__129_AllocatorDestroyRangeReverseINS_9allocatorI5StatsEENS_16reverse_iteratorIPS2_EEEclB7v160006Ev, symObjAddr: 0x47FC, symBinAddr: 0x100005C20, symSize: 0xB4 }
  - { offsetInCU: 0x12720, offset: 0x12720, size: 0x8, addend: 0x0, symName: __ZNSt3__116reverse_iteratorINS0_IP5StatsEEEC1B7v160006ES3_, symObjAddr: 0x4920, symBinAddr: 0x100005D44, symSize: 0x3C }
  - { offsetInCU: 0x12758, offset: 0x12758, size: 0x8, addend: 0x0, symName: __ZNSt3__116allocator_traitsINS_9allocatorI5StatsEEE7destroyB7v160006IS2_vvEEvRS3_PT_, symObjAddr: 0x49BC, symBinAddr: 0x100005DE0, symSize: 0x28 }
  - { offsetInCU: 0x12793, offset: 0x12793, size: 0x8, addend: 0x0, symName: __ZNSt3__116reverse_iteratorINS0_IP5StatsEEEppB7v160006Ev, symObjAddr: 0x4A08, symBinAddr: 0x100005E2C, symSize: 0x30 }
  - { offsetInCU: 0x127B9, offset: 0x127B9, size: 0x8, addend: 0x0, symName: __ZNKSt3__116reverse_iteratorINS0_IP5StatsEEE4baseB7v160006Ev, symObjAddr: 0x4A38, symBinAddr: 0x100005E5C, symSize: 0x24 }
  - { offsetInCU: 0x127DF, offset: 0x127DF, size: 0x8, addend: 0x0, symName: __ZN5StatsD1Ev, symObjAddr: 0x4AA4, symBinAddr: 0x100005EC8, symSize: 0x2C }
  - { offsetInCU: 0x1280B, offset: 0x1280B, size: 0x8, addend: 0x0, symName: __ZN5StatsD2Ev, symObjAddr: 0x4AD0, symBinAddr: 0x100005EF4, symSize: 0x38 }
  - { offsetInCU: 0x1283C, offset: 0x1283C, size: 0x8, addend: 0x0, symName: __ZNSt3__119__to_address_helperINS_16reverse_iteratorINS1_IP5StatsEEEEvE6__callB7v160006ERKS5_, symObjAddr: 0x4B08, symBinAddr: 0x100005F2C, symSize: 0x38 }
  - { offsetInCU: 0x1285F, offset: 0x1285F, size: 0x8, addend: 0x0, symName: __ZNKSt3__116reverse_iteratorINS0_IP5StatsEEEptB7v160006Ev, symObjAddr: 0x4B40, symBinAddr: 0x100005F64, symSize: 0x4C }
  - { offsetInCU: 0x12885, offset: 0x12885, size: 0x8, addend: 0x0, symName: __ZNSt3__116reverse_iteratorIP5StatsEpLB7v160006El, symObjAddr: 0x4C68, symBinAddr: 0x10000608C, symSize: 0x30 }
  - { offsetInCU: 0x128B9, offset: 0x128B9, size: 0x8, addend: 0x0, symName: __ZNSt3__116reverse_iteratorIP5StatsEmmB7v160006Ev, symObjAddr: 0x4C98, symBinAddr: 0x1000060BC, symSize: 0x20 }
  - { offsetInCU: 0x128DF, offset: 0x128DF, size: 0x8, addend: 0x0, symName: __ZNSt3__116reverse_iteratorINS0_IP5StatsEEEC2B7v160006ES3_, symObjAddr: 0x4CB8, symBinAddr: 0x1000060DC, symSize: 0x2C }
  - { offsetInCU: 0x12917, offset: 0x12917, size: 0x8, addend: 0x0, symName: __ZNSt3__116reverse_iteratorIP5StatsEC2B7v160006ES2_, symObjAddr: 0x4CE4, symBinAddr: 0x100006108, symSize: 0x28 }
  - { offsetInCU: 0x1294F, offset: 0x1294F, size: 0x8, addend: 0x0, symName: __ZNSt3__114__split_bufferI5StatsRNS_9allocatorIS1_EEED2Ev, symObjAddr: 0x4D0C, symBinAddr: 0x100006130, symSize: 0x8C }
  - { offsetInCU: 0x1297B, offset: 0x1297B, size: 0x8, addend: 0x0, symName: __ZNSt3__114__split_bufferI5StatsRNS_9allocatorIS1_EEE5clearB7v160006Ev, symObjAddr: 0x4D98, symBinAddr: 0x1000061BC, symSize: 0x28 }
  - { offsetInCU: 0x129A1, offset: 0x129A1, size: 0x8, addend: 0x0, symName: __ZNSt3__116allocator_traitsINS_9allocatorI5StatsEEE10deallocateB7v160006ERS3_PS2_m, symObjAddr: 0x4DC0, symBinAddr: 0x1000061E4, symSize: 0x34 }
  - { offsetInCU: 0x129E3, offset: 0x129E3, size: 0x8, addend: 0x0, symName: __ZNKSt3__114__split_bufferI5StatsRNS_9allocatorIS1_EEE8capacityB7v160006Ev, symObjAddr: 0x4DF4, symBinAddr: 0x100006218, symSize: 0x40 }
  - { offsetInCU: 0x12A09, offset: 0x12A09, size: 0x8, addend: 0x0, symName: __ZNSt3__114__split_bufferI5StatsRNS_9allocatorIS1_EEE17__destruct_at_endB7v160006EPS1_, symObjAddr: 0x4E34, symBinAddr: 0x100006258, symSize: 0x2C }
  - { offsetInCU: 0x12A3D, offset: 0x12A3D, size: 0x8, addend: 0x0, symName: __ZNSt3__114__split_bufferI5StatsRNS_9allocatorIS1_EEE17__destruct_at_endB7v160006EPS1_NS_17integral_constantIbLb0EEE, symObjAddr: 0x4E60, symBinAddr: 0x100006284, symSize: 0x80 }
  - { offsetInCU: 0x12A7D, offset: 0x12A7D, size: 0x8, addend: 0x0, symName: __ZNSt3__19allocatorI5StatsE10deallocateB7v160006EPS1_m, symObjAddr: 0x4EE0, symBinAddr: 0x100006304, symSize: 0x44 }
  - { offsetInCU: 0x12ABF, offset: 0x12ABF, size: 0x8, addend: 0x0, symName: __ZNKSt3__114__split_bufferI5StatsRNS_9allocatorIS1_EEE9__end_capB7v160006Ev, symObjAddr: 0x502C, symBinAddr: 0x100006450, symSize: 0x28 }
  - { offsetInCU: 0x12AE5, offset: 0x12AE5, size: 0x8, addend: 0x0, symName: __ZNKSt3__117__compressed_pairIP5StatsRNS_9allocatorIS1_EEE5firstB7v160006Ev, symObjAddr: 0x5054, symBinAddr: 0x100006478, symSize: 0x24 }
  - { offsetInCU: 0x12B0B, offset: 0x12B0B, size: 0x8, addend: 0x0, symName: __ZNSt3__16vectorI5StatsNS_9allocatorIS1_EEE18__construct_at_endINS_11__wrap_iterIPS1_EELi0EEEvT_S9_m, symObjAddr: 0x514C, symBinAddr: 0x100006570, symSize: 0x9C }
  - { offsetInCU: 0x12B7E, offset: 0x12B7E, size: 0x8, addend: 0x0, symName: __ZNSt3__16vectorI5StatsNS_9allocatorIS1_EEE12__move_rangeEPS1_S5_S5_, symObjAddr: 0x51E8, symBinAddr: 0x10000660C, symSize: 0x13C }
  - { offsetInCU: 0x12C3A, offset: 0x12C3A, size: 0x8, addend: 0x0, symName: __ZNSt3__114__split_bufferI5StatsRNS_9allocatorIS1_EEE18__construct_at_endINS_11__wrap_iterIPS1_EEEENS_9enable_ifIXsr27__is_cpp17_forward_iteratorIT_EE5valueEvE4typeESB_SB_, symObjAddr: 0x5374, symBinAddr: 0x100006798, symSize: 0xF0 }
  - { offsetInCU: 0x12C96, offset: 0x12C96, size: 0x8, addend: 0x0, symName: __ZNKSt3__111__wrap_iterIPK5StatsE4baseB7v160006Ev, symObjAddr: 0x55B8, symBinAddr: 0x1000069DC, symSize: 0x18 }
  - { offsetInCU: 0x12CBC, offset: 0x12CBC, size: 0x8, addend: 0x0, symName: __ZNSt3__111__wrap_iterIP5StatsEpLB7v160006El, symObjAddr: 0x5674, symBinAddr: 0x100006A98, symSize: 0x30 }
  - { offsetInCU: 0x12CF0, offset: 0x12CF0, size: 0x8, addend: 0x0, symName: __ZNSt3__129_AllocatorDestroyRangeReverseINS_9allocatorI5StatsEEPS2_EC1B7v160006ERS3_RS4_S7_, symObjAddr: 0x57E8, symBinAddr: 0x100006C0C, symSize: 0x44 }
  - { offsetInCU: 0x12D47, offset: 0x12D47, size: 0x8, addend: 0x0, symName: __ZNSt3__116allocator_traitsINS_9allocatorI5StatsEEE9constructB7v160006IS2_JRS2_EvvEEvRS3_PT_DpOT0_, symObjAddr: 0x582C, symBinAddr: 0x100006C50, symSize: 0x30 }
  - { offsetInCU: 0x12D9C, offset: 0x12D9C, size: 0x8, addend: 0x0, symName: __ZNSt3__128__exception_guard_exceptionsINS_29_AllocatorDestroyRangeReverseINS_9allocatorI5StatsEEPS3_EEE10__completeB7v160006Ev, symObjAddr: 0x585C, symBinAddr: 0x100006C80, symSize: 0x1C }
  - { offsetInCU: 0x12DC2, offset: 0x12DC2, size: 0x8, addend: 0x0, symName: __ZNSt3__128__exception_guard_exceptionsINS_29_AllocatorDestroyRangeReverseINS_9allocatorI5StatsEEPS3_EEED1B7v160006Ev, symObjAddr: 0x5878, symBinAddr: 0x100006C9C, symSize: 0x2C }
  - { offsetInCU: 0x12DEC, offset: 0x12DEC, size: 0x8, addend: 0x0, symName: __ZNSt3__128__exception_guard_exceptionsINS_29_AllocatorDestroyRangeReverseINS_9allocatorI5StatsEEPS3_EEEC1B7v160006ES6_, symObjAddr: 0x58A4, symBinAddr: 0x100006CC8, symSize: 0x34 }
  - { offsetInCU: 0x12E25, offset: 0x12E25, size: 0x8, addend: 0x0, symName: __ZNSt3__128__exception_guard_exceptionsINS_29_AllocatorDestroyRangeReverseINS_9allocatorI5StatsEEPS3_EEEC2B7v160006ES6_, symObjAddr: 0x58D8, symBinAddr: 0x100006CFC, symSize: 0x30 }
  - { offsetInCU: 0x12E5E, offset: 0x12E5E, size: 0x8, addend: 0x0, symName: __ZNSt3__129_AllocatorDestroyRangeReverseINS_9allocatorI5StatsEEPS2_EC2B7v160006ERS3_RS4_S7_, symObjAddr: 0x5908, symBinAddr: 0x100006D2C, symSize: 0x38 }
  - { offsetInCU: 0x12EB5, offset: 0x12EB5, size: 0x8, addend: 0x0, symName: __ZN5StatsC1ERKS_, symObjAddr: 0x597C, symBinAddr: 0x100006DA0, symSize: 0x34 }
  - { offsetInCU: 0x12EEA, offset: 0x12EEA, size: 0x8, addend: 0x0, symName: __ZN5StatsC2ERKS_, symObjAddr: 0x59B0, symBinAddr: 0x100006DD4, symSize: 0x70 }
  - { offsetInCU: 0x12F1F, offset: 0x12F1F, size: 0x8, addend: 0x0, symName: __ZNSt3__128__exception_guard_exceptionsINS_29_AllocatorDestroyRangeReverseINS_9allocatorI5StatsEEPS3_EEED2B7v160006Ev, symObjAddr: 0x5A20, symBinAddr: 0x100006E44, symSize: 0x50 }
  - { offsetInCU: 0x12F49, offset: 0x12F49, size: 0x8, addend: 0x0, symName: __ZNKSt3__129_AllocatorDestroyRangeReverseINS_9allocatorI5StatsEEPS2_EclB7v160006Ev, symObjAddr: 0x5A70, symBinAddr: 0x100006E94, symSize: 0x68 }
  - { offsetInCU: 0x12F93, offset: 0x12F93, size: 0x8, addend: 0x0, symName: __ZNKSt3__120__move_backward_loopINS_17_ClassicAlgPolicyEEclB7v160006IP5StatsS5_S5_EENS_4pairIT_T1_EES7_T0_S8_, symObjAddr: 0x5D00, symBinAddr: 0x100007124, symSize: 0xA4 }
  - { offsetInCU: 0x1301A, offset: 0x1301A, size: 0x8, addend: 0x0, symName: __ZNSt3__119__unwrap_range_implIP5StatsS2_E8__unwrapB7v160006ES2_S2_, symObjAddr: 0x5E68, symBinAddr: 0x10000728C, symSize: 0x58 }
  - { offsetInCU: 0x13051, offset: 0x13051, size: 0x8, addend: 0x0, symName: __ZNSt3__14pairIP5StatsS2_EC1B7v160006IS2_S2_LPv0EEEOT_OT0_, symObjAddr: 0x5EC0, symBinAddr: 0x1000072E4, symSize: 0x3C }
  - { offsetInCU: 0x130AF, offset: 0x130AF, size: 0x8, addend: 0x0, symName: __ZNSt3__14pairIP5StatsS2_EC2B7v160006IS2_S2_LPv0EEEOT_OT0_, symObjAddr: 0x5EFC, symBinAddr: 0x100007320, symSize: 0x34 }
  - { offsetInCU: 0x1310D, offset: 0x1310D, size: 0x8, addend: 0x0, symName: __ZNSt3__18_IterOpsINS_17_ClassicAlgPolicyEE4nextB7v160006IP5StatsEET_S6_S6_, symObjAddr: 0x5F30, symBinAddr: 0x100007354, symSize: 0x18 }
  - { offsetInCU: 0x13143, offset: 0x13143, size: 0x8, addend: 0x0, symName: __ZNSt3__18_IterOpsINS_17_ClassicAlgPolicyEE11__iter_moveB7v160006IRP5StatsEENS_9enable_ifIXsr12is_referenceIDTdeclsr3stdE7declvalIRT_EEEEE5valueEDTclsr3stdE4movedeclsr3stdE7declvalIS9_EEEEE4typeEOS8_, symObjAddr: 0x5F48, symBinAddr: 0x10000736C, symSize: 0x28 }
  - { offsetInCU: 0x1316F, offset: 0x1316F, size: 0x8, addend: 0x0, symName: __ZN5StatsaSEOS_, symObjAddr: 0x5F70, symBinAddr: 0x100007394, symSize: 0x48 }
  - { offsetInCU: 0x131A0, offset: 0x131A0, size: 0x8, addend: 0x0, symName: __ZNSt3__18_IterOpsINS_17_ClassicAlgPolicyEE25__validate_iter_referenceB7v160006IRP5StatsEEvv, symObjAddr: 0x5FB8, symBinAddr: 0x1000073DC, symSize: 0x4 }
  - { offsetInCU: 0x131BE, offset: 0x131BE, size: 0x8, addend: 0x0, symName: __ZNSt3__118__unwrap_iter_implIP5StatsLb1EE8__unwrapB7v160006ES2_, symObjAddr: 0x5FBC, symBinAddr: 0x1000073E0, symSize: 0x24 }
  - { offsetInCU: 0x131E1, offset: 0x131E1, size: 0x8, addend: 0x0, symName: __ZNSt3__119__unwrap_range_implIP5StatsS2_E8__rewrapB7v160006ES2_S2_, symObjAddr: 0x5FE0, symBinAddr: 0x100007404, symSize: 0x2C }
  - { offsetInCU: 0x13212, offset: 0x13212, size: 0x8, addend: 0x0, symName: __ZNSt3__118__unwrap_iter_implIP5StatsLb1EE8__rewrapB7v160006ES2_S2_, symObjAddr: 0x600C, symBinAddr: 0x100007430, symSize: 0x58 }
  - { offsetInCU: 0x1324D, offset: 0x1324D, size: 0x8, addend: 0x0, symName: __ZNKSt3__111__copy_loopINS_17_ClassicAlgPolicyEEclB7v160006IP5StatsS5_S5_EENS_4pairIT_T1_EES7_T0_S8_, symObjAddr: 0x6224, symBinAddr: 0x100007648, symSize: 0x88 }
  - { offsetInCU: 0x132B8, offset: 0x132B8, size: 0x8, addend: 0x0, symName: __ZNSt3__119__unwrap_range_implINS_11__wrap_iterIP5StatsEES4_E8__unwrapB7v160006ES4_S4_, symObjAddr: 0x6320, symBinAddr: 0x100007744, symSize: 0x68 }
  - { offsetInCU: 0x132E9, offset: 0x132E9, size: 0x8, addend: 0x0, symName: __ZNSt3__118__unwrap_iter_implINS_11__wrap_iterIP5StatsEELb1EE8__unwrapB7v160006ES4_, symObjAddr: 0x63B4, symBinAddr: 0x1000077D8, symSize: 0x28 }
  - { offsetInCU: 0x13311, offset: 0x13311, size: 0x8, addend: 0x0, symName: __ZNSt3__119__to_address_helperINS_11__wrap_iterIP5StatsEEvE6__callB7v160006ERKS4_, symObjAddr: 0x6400, symBinAddr: 0x100007824, symSize: 0x30 }
  - { offsetInCU: 0x13334, offset: 0x13334, size: 0x8, addend: 0x0, symName: __ZNSt3__114pointer_traitsINS_11__wrap_iterIP5StatsEEE10to_addressB7v160006ES4_, symObjAddr: 0x6430, symBinAddr: 0x100007854, symSize: 0x2C }
  - { offsetInCU: 0x13358, offset: 0x13358, size: 0x8, addend: 0x0, symName: __ZN5StatsaSERKS_, symObjAddr: 0x645C, symBinAddr: 0x100007880, symSize: 0x48 }
  - { offsetInCU: 0x133A9, offset: 0x133A9, size: 0x8, addend: 0x0, symName: __ZNSt3__14pairINS_11__wrap_iterIP5StatsEES3_EC1B7v160006IS4_S3_LPv0EEEOT_OT0_, symObjAddr: 0x64A4, symBinAddr: 0x1000078C8, symSize: 0x3C }
  - { offsetInCU: 0x13407, offset: 0x13407, size: 0x8, addend: 0x0, symName: __ZNSt3__14pairINS_11__wrap_iterIP5StatsEES3_EC2B7v160006IS4_S3_LPv0EEEOT_OT0_, symObjAddr: 0x64E0, symBinAddr: 0x100007904, symSize: 0x34 }
  - { offsetInCU: 0x13465, offset: 0x13465, size: 0x8, addend: 0x0, symName: __ZNSt3__119__unwrap_range_implINS_11__wrap_iterIP5StatsEES4_E8__rewrapB7v160006ES4_S3_, symObjAddr: 0x6514, symBinAddr: 0x100007938, symSize: 0x3C }
  - { offsetInCU: 0x13496, offset: 0x13496, size: 0x8, addend: 0x0, symName: __ZNSt3__118__unwrap_iter_implINS_11__wrap_iterIP5StatsEELb1EE8__rewrapB7v160006ES4_S3_, symObjAddr: 0x659C, symBinAddr: 0x1000079C0, symSize: 0x5C }
  - { offsetInCU: 0x134C7, offset: 0x134C7, size: 0x8, addend: 0x0, symName: __ZNKSt3__111__wrap_iterIP5StatsEplB7v160006El, symObjAddr: 0x65F8, symBinAddr: 0x100007A1C, symSize: 0x3C }
  - { offsetInCU: 0x13513, offset: 0x13513, size: 0x8, addend: 0x0, symName: __ZNSt3__114__split_bufferI5StatsRNS_9allocatorIS1_EEE21_ConstructTransactionC1B7v160006EPPS1_m, symObjAddr: 0x6634, symBinAddr: 0x100007A58, symSize: 0x3C }
  - { offsetInCU: 0x13559, offset: 0x13559, size: 0x8, addend: 0x0, symName: __ZNSt3__114__split_bufferI5StatsRNS_9allocatorIS1_EEE21_ConstructTransactionD1B7v160006Ev, symObjAddr: 0x6670, symBinAddr: 0x100007A94, symSize: 0x2C }
  - { offsetInCU: 0x13583, offset: 0x13583, size: 0x8, addend: 0x0, symName: __ZNSt3__114__split_bufferI5StatsRNS_9allocatorIS1_EEE21_ConstructTransactionC2B7v160006EPPS1_m, symObjAddr: 0x669C, symBinAddr: 0x100007AC0, symSize: 0x4C }
  - { offsetInCU: 0x135C9, offset: 0x135C9, size: 0x8, addend: 0x0, symName: __ZNSt3__114__split_bufferI5StatsRNS_9allocatorIS1_EEE21_ConstructTransactionD2B7v160006Ev, symObjAddr: 0x66E8, symBinAddr: 0x100007B0C, symSize: 0x20 }
  - { offsetInCU: 0x135F3, offset: 0x135F3, size: 0x8, addend: 0x0, symName: __ZNSt3__111__wrap_iterIPK5StatsEC2B7v160006IPS1_EERKNS0_IT_EEPNS_9enable_ifIXsr14is_convertibleIS7_S3_EE5valueEvE4typeE, symObjAddr: 0x67FC, symBinAddr: 0x100007C20, symSize: 0x40 }
  - { offsetInCU: 0x1363E, offset: 0x1363E, size: 0x8, addend: 0x0, symName: __ZNSt3__16vectorI5StatsNS_9allocatorIS1_EEED2B7v160006Ev, symObjAddr: 0x683C, symBinAddr: 0x100007C60, symSize: 0x44 }
  - { offsetInCU: 0x13668, offset: 0x13668, size: 0x8, addend: 0x0, symName: __ZNSt3__16vectorI5StatsNS_9allocatorIS1_EEE16__destroy_vectorC1ERS4_, symObjAddr: 0x6880, symBinAddr: 0x100007CA4, symSize: 0x34 }
  - { offsetInCU: 0x136A1, offset: 0x136A1, size: 0x8, addend: 0x0, symName: __ZNSt3__16vectorI5StatsNS_9allocatorIS1_EEE16__destroy_vectorclB7v160006Ev, symObjAddr: 0x68B4, symBinAddr: 0x100007CD8, symSize: 0x9C }
  - { offsetInCU: 0x136C7, offset: 0x136C7, size: 0x8, addend: 0x0, symName: __ZNSt3__16vectorI5StatsNS_9allocatorIS1_EEE16__destroy_vectorC2ERS4_, symObjAddr: 0x6950, symBinAddr: 0x100007D74, symSize: 0x20 }
  - { offsetInCU: 0x13700, offset: 0x13700, size: 0x8, addend: 0x0, symName: __ZNSt3__16vectorI5StatsNS_9allocatorIS1_EEE7__clearB7v160006Ev, symObjAddr: 0x6980, symBinAddr: 0x100007DA4, symSize: 0x28 }
  - { offsetInCU: 0x13726, offset: 0x13726, size: 0x8, addend: 0x0, symName: __ZNSt3__16vectorI5StatsNS_9allocatorIS1_EEE22__base_destruct_at_endB7v160006EPS1_, symObjAddr: 0x69A8, symBinAddr: 0x100007DCC, symSize: 0x8C }
  - { offsetInCU: 0x1376A, offset: 0x1376A, size: 0x8, addend: 0x0, symName: __ZNSt3__112basic_stringIcNS_11char_traitsIcEENS_9allocatorIcEEEC2B7v160006Ev, symObjAddr: 0x6A34, symBinAddr: 0x100007E58, symSize: 0x4C }
  - { offsetInCU: 0x13794, offset: 0x13794, size: 0x8, addend: 0x0, symName: __ZNSt3__16vectorI5StatsNS_9allocatorIS1_EEE22__construct_one_at_endB7v160006IJRA12_KcRNS_12basic_stringIcNS_11char_traitsIcEENS2_IcEEEEEEEvDpOT_, symObjAddr: 0x6A80, symBinAddr: 0x100007EA4, symSize: 0x98 }
  - { offsetInCU: 0x137F7, offset: 0x137F7, size: 0x8, addend: 0x0, symName: __ZNSt3__16vectorI5StatsNS_9allocatorIS1_EEE24__emplace_back_slow_pathIJRA12_KcRNS_12basic_stringIcNS_11char_traitsIcEENS2_IcEEEEEEEvDpOT_, symObjAddr: 0x6B18, symBinAddr: 0x100007F3C, symSize: 0xE0 }
  - { offsetInCU: 0x1386B, offset: 0x1386B, size: 0x8, addend: 0x0, symName: __ZNSt3__116allocator_traitsINS_9allocatorI5StatsEEE9constructB7v160006IS2_JRA12_KcRNS_12basic_stringIcNS_11char_traitsIcEENS1_IcEEEEEvvEEvRS3_PT_DpOT0_, symObjAddr: 0x6BF8, symBinAddr: 0x10000801C, symSize: 0x38 }
  - { offsetInCU: 0x138D4, offset: 0x138D4, size: 0x8, addend: 0x0, symName: __ZNSt3__119basic_istringstreamIcNS_11char_traitsIcEENS_9allocatorIcEEED2Ev, symObjAddr: 0x6CA0, symBinAddr: 0x1000080C4, symSize: 0x64 }
  - { offsetInCU: 0x1390E, offset: 0x1390E, size: 0x8, addend: 0x0, symName: __ZTv0_n24_NSt3__119basic_istringstreamIcNS_11char_traitsIcEENS_9allocatorIcEEED1Ev, symObjAddr: 0x6D04, symBinAddr: 0x100008128, symSize: 0x28 }
  - { offsetInCU: 0x1392A, offset: 0x1392A, size: 0x8, addend: 0x0, symName: __ZNSt3__115basic_stringbufIcNS_11char_traitsIcEENS_9allocatorIcEEED1Ev, symObjAddr: 0x6D2C, symBinAddr: 0x100008150, symSize: 0x2C }
  - { offsetInCU: 0x13957, offset: 0x13957, size: 0x8, addend: 0x0, symName: __ZNSt3__115basic_stringbufIcNS_11char_traitsIcEENS_9allocatorIcEEED2Ev, symObjAddr: 0x6D58, symBinAddr: 0x10000817C, symSize: 0x48 }
  - { offsetInCU: 0x13984, offset: 0x13984, size: 0x8, addend: 0x0, symName: __ZN12DockerConfigC2Ev, symObjAddr: 0x6DA0, symBinAddr: 0x1000081C4, symSize: 0x98 }
  - { offsetInCU: 0x139AE, offset: 0x139AE, size: 0x8, addend: 0x0, symName: __ZNSt3__112basic_stringIcNS_11char_traitsIcEENS_9allocatorIcEEE15__make_iteratorB7v160006EPc, symObjAddr: 0x6E38, symBinAddr: 0x10000825C, symSize: 0x34 }
  - { offsetInCU: 0x139E3, offset: 0x139E3, size: 0x8, addend: 0x0, symName: __ZNSt3__112basic_stringIcNS_11char_traitsIcEENS_9allocatorIcEEE13__get_pointerB7v160006Ev, symObjAddr: 0x6E6C, symBinAddr: 0x100008290, symSize: 0x54 }
  - { offsetInCU: 0x13A09, offset: 0x13A09, size: 0x8, addend: 0x0, symName: __ZNSt3__111__wrap_iterIPcEC1B7v160006EPKvS1_, symObjAddr: 0x6EC0, symBinAddr: 0x1000082E4, symSize: 0x3C }
  - { offsetInCU: 0x13A4F, offset: 0x13A4F, size: 0x8, addend: 0x0, symName: __ZNSt3__111__wrap_iterIPcEC2B7v160006EPKvS1_, symObjAddr: 0x6EFC, symBinAddr: 0x100008320, symSize: 0x24 }
  - { offsetInCU: 0x13A95, offset: 0x13A95, size: 0x8, addend: 0x0, symName: __ZNSt3__112basic_stringIcNS_11char_traitsIcEENS_9allocatorIcEEE18__get_long_pointerB7v160006Ev, symObjAddr: 0x6F20, symBinAddr: 0x100008344, symSize: 0x28 }
  - { offsetInCU: 0x13ABB, offset: 0x13ABB, size: 0x8, addend: 0x0, symName: __ZNSt3__112basic_stringIcNS_11char_traitsIcEENS_9allocatorIcEEE19__get_short_pointerB7v160006Ev, symObjAddr: 0x6F48, symBinAddr: 0x10000836C, symSize: 0x28 }
  - { offsetInCU: 0x13AE1, offset: 0x13AE1, size: 0x8, addend: 0x0, symName: __ZNSt3__114pointer_traitsIPcE10pointer_toB7v160006ERc, symObjAddr: 0x6F70, symBinAddr: 0x100008394, symSize: 0x14 }
  - { offsetInCU: 0x13B04, offset: 0x13B04, size: 0x8, addend: 0x0, symName: __ZNKSt3__111__wrap_iterIPcE4baseB7v160006Ev, symObjAddr: 0x6FCC, symBinAddr: 0x1000083F0, symSize: 0x18 }
  - { offsetInCU: 0x13B29, offset: 0x13B29, size: 0x8, addend: 0x0, symName: __Z9__isctypeim, symObjAddr: 0x6FE4, symBinAddr: 0x100008408, symSize: 0x80 }
  - { offsetInCU: 0x13B64, offset: 0x13B64, size: 0x8, addend: 0x0, symName: __ZNSt3__112basic_stringIcNS_11char_traitsIcEENS_9allocatorIcEEE6appendB7v160006ERKS5_, symObjAddr: 0x7064, symBinAddr: 0x100008488, symSize: 0x4C }
  - { offsetInCU: 0x13B99, offset: 0x13B99, size: 0x8, addend: 0x0, symName: __ZNSt3__16vectorI12DockerConfigNS_9allocatorIS1_EEE11__make_iterB7v160006EPS1_, symObjAddr: 0x70B0, symBinAddr: 0x1000084D4, symSize: 0x34 }
  - { offsetInCU: 0x13BCE, offset: 0x13BCE, size: 0x8, addend: 0x0, symName: __ZNSt3__111__wrap_iterIP12DockerConfigEC1B7v160006EPKvS2_, symObjAddr: 0x70E4, symBinAddr: 0x100008508, symSize: 0x3C }
  - { offsetInCU: 0x13C14, offset: 0x13C14, size: 0x8, addend: 0x0, symName: __ZNSt3__111__wrap_iterIP12DockerConfigEC2B7v160006EPKvS2_, symObjAddr: 0x7120, symBinAddr: 0x100008544, symSize: 0x24 }
  - { offsetInCU: 0x13C5A, offset: 0x13C5A, size: 0x8, addend: 0x0, symName: __ZNKSt3__111__wrap_iterIP12DockerConfigE4baseB7v160006Ev, symObjAddr: 0x718C, symBinAddr: 0x1000085B0, symSize: 0x18 }
  - { offsetInCU: 0x13C80, offset: 0x13C80, size: 0x8, addend: 0x0, symName: __ZNSt3__112basic_stringIcNS_11char_traitsIcEENS_9allocatorIcEEE13__move_assignB7v160006ERS5_NS_17integral_constantIbLb1EEE, symObjAddr: 0x71A4, symBinAddr: 0x1000085C8, symSize: 0xC8 }
  - { offsetInCU: 0x13CC3, offset: 0x13CC3, size: 0x8, addend: 0x0, symName: __ZNSt3__116allocator_traitsINS_9allocatorIcEEE10deallocateB7v160006ERS2_Pcm, symObjAddr: 0x726C, symBinAddr: 0x100008690, symSize: 0x34 }
  - { offsetInCU: 0x13D05, offset: 0x13D05, size: 0x8, addend: 0x0, symName: __ZNSt3__112basic_stringIcNS_11char_traitsIcEENS_9allocatorIcEEE7__allocB7v160006Ev, symObjAddr: 0x72A0, symBinAddr: 0x1000086C4, symSize: 0x24 }
  - { offsetInCU: 0x13D2B, offset: 0x13D2B, size: 0x8, addend: 0x0, symName: __ZNKSt3__112basic_stringIcNS_11char_traitsIcEENS_9allocatorIcEEE14__get_long_capB7v160006Ev, symObjAddr: 0x72C4, symBinAddr: 0x1000086E8, symSize: 0x30 }
  - { offsetInCU: 0x13D51, offset: 0x13D51, size: 0x8, addend: 0x0, symName: __ZNSt3__112basic_stringIcNS_11char_traitsIcEENS_9allocatorIcEEE19__move_assign_allocB7v160006ERS5_, symObjAddr: 0x72F4, symBinAddr: 0x100008718, symSize: 0x2C }
  - { offsetInCU: 0x13D86, offset: 0x13D86, size: 0x8, addend: 0x0, symName: __ZNSt3__112basic_stringIcNS_11char_traitsIcEENS_9allocatorIcEEE16__set_short_sizeB7v160006Em, symObjAddr: 0x7320, symBinAddr: 0x100008744, symSize: 0x78 }
  - { offsetInCU: 0x13DBB, offset: 0x13DBB, size: 0x8, addend: 0x0, symName: __ZNSt3__111char_traitsIcE6assignERcRKc, symObjAddr: 0x7398, symBinAddr: 0x1000087BC, symSize: 0x24 }
  - { offsetInCU: 0x13DEC, offset: 0x13DEC, size: 0x8, addend: 0x0, symName: __ZNSt3__19allocatorIcE10deallocateB7v160006EPcm, symObjAddr: 0x73BC, symBinAddr: 0x1000087E0, symSize: 0x40 }
  - { offsetInCU: 0x13E2E, offset: 0x13E2E, size: 0x8, addend: 0x0, symName: __ZNSt3__117__compressed_pairINS_12basic_stringIcNS_11char_traitsIcEENS_9allocatorIcEEE5__repES5_E6secondB7v160006Ev, symObjAddr: 0x73FC, symBinAddr: 0x100008820, symSize: 0x24 }
  - { offsetInCU: 0x13E54, offset: 0x13E54, size: 0x8, addend: 0x0, symName: __ZNSt3__122__compressed_pair_elemINS_9allocatorIcEELi1ELb1EE5__getB7v160006Ev, symObjAddr: 0x7420, symBinAddr: 0x100008844, symSize: 0x14 }
  - { offsetInCU: 0x13E7A, offset: 0x13E7A, size: 0x8, addend: 0x0, symName: __ZNSt3__112basic_stringIcNS_11char_traitsIcEENS_9allocatorIcEEE19__move_assign_allocB7v160006ERS5_NS_17integral_constantIbLb1EEE, symObjAddr: 0x7434, symBinAddr: 0x100008858, symSize: 0x38 }
  - { offsetInCU: 0x13EBB, offset: 0x13EBB, size: 0x8, addend: 0x0, symName: __ZNSt3__16vectorI12DockerConfigNS_9allocatorIS1_EEE9__end_capB7v160006Ev, symObjAddr: 0x746C, symBinAddr: 0x100008890, symSize: 0x28 }
  - { offsetInCU: 0x13EE1, offset: 0x13EE1, size: 0x8, addend: 0x0, symName: __ZNSt3__16vectorI12DockerConfigNS_9allocatorIS1_EEE22__construct_one_at_endB7v160006IJRS1_EEEvDpOT_, symObjAddr: 0x7494, symBinAddr: 0x1000088B8, symSize: 0x90 }
  - { offsetInCU: 0x13F30, offset: 0x13F30, size: 0x8, addend: 0x0, symName: __ZNSt3__16vectorI12DockerConfigNS_9allocatorIS1_EEE24__emplace_back_slow_pathIJRS1_EEEvDpOT_, symObjAddr: 0x7524, symBinAddr: 0x100008948, symSize: 0xD8 }
  - { offsetInCU: 0x13F90, offset: 0x13F90, size: 0x8, addend: 0x0, symName: __ZNSt3__16vectorI12DockerConfigNS_9allocatorIS1_EEE4backB7v160006Ev, symObjAddr: 0x75FC, symBinAddr: 0x100008A20, symSize: 0x1C }
  - { offsetInCU: 0x13FB6, offset: 0x13FB6, size: 0x8, addend: 0x0, symName: __ZNSt3__117__compressed_pairIP12DockerConfigNS_9allocatorIS1_EEE5firstB7v160006Ev, symObjAddr: 0x7618, symBinAddr: 0x100008A3C, symSize: 0x24 }
  - { offsetInCU: 0x13FDC, offset: 0x13FDC, size: 0x8, addend: 0x0, symName: __ZNSt3__122__compressed_pair_elemIP12DockerConfigLi0ELb0EE5__getB7v160006Ev, symObjAddr: 0x763C, symBinAddr: 0x100008A60, symSize: 0x14 }
  - { offsetInCU: 0x1401B, offset: 0x1401B, size: 0x8, addend: 0x0, symName: __ZNSt3__16vectorI12DockerConfigNS_9allocatorIS1_EEE21_ConstructTransactionC1B7v160006ERS4_m, symObjAddr: 0x7650, symBinAddr: 0x100008A74, symSize: 0x3C }
  - { offsetInCU: 0x14063, offset: 0x14063, size: 0x8, addend: 0x0, symName: __ZNSt3__116allocator_traitsINS_9allocatorI12DockerConfigEEE9constructB7v160006IS2_JRS2_EvvEEvRS3_PT_DpOT0_, symObjAddr: 0x768C, symBinAddr: 0x100008AB0, symSize: 0x30 }
  - { offsetInCU: 0x140B8, offset: 0x140B8, size: 0x8, addend: 0x0, symName: __ZNSt3__16vectorI12DockerConfigNS_9allocatorIS1_EEE7__allocB7v160006Ev, symObjAddr: 0x76BC, symBinAddr: 0x100008AE0, symSize: 0x28 }
  - { offsetInCU: 0x140DE, offset: 0x140DE, size: 0x8, addend: 0x0, symName: __ZNSt3__16vectorI12DockerConfigNS_9allocatorIS1_EEE21_ConstructTransactionD1B7v160006Ev, symObjAddr: 0x76F8, symBinAddr: 0x100008B1C, symSize: 0x2C }
  - { offsetInCU: 0x14108, offset: 0x14108, size: 0x8, addend: 0x0, symName: __ZNSt3__16vectorI12DockerConfigNS_9allocatorIS1_EEE21_ConstructTransactionC2B7v160006ERS4_m, symObjAddr: 0x7724, symBinAddr: 0x100008B48, symSize: 0x4C }
  - { offsetInCU: 0x14155, offset: 0x14155, size: 0x8, addend: 0x0, symName: __ZN12DockerConfigC1ERKS_, symObjAddr: 0x77AC, symBinAddr: 0x100008BD0, symSize: 0x34 }
  - { offsetInCU: 0x1418A, offset: 0x1418A, size: 0x8, addend: 0x0, symName: __ZN12DockerConfigC2ERKS_, symObjAddr: 0x77E0, symBinAddr: 0x100008C04, symSize: 0x230 }
  - { offsetInCU: 0x141BF, offset: 0x141BF, size: 0x8, addend: 0x0, symName: __ZNSt3__117__compressed_pairIP12DockerConfigNS_9allocatorIS1_EEE6secondB7v160006Ev, symObjAddr: 0x7A10, symBinAddr: 0x100008E34, symSize: 0x24 }
  - { offsetInCU: 0x141E5, offset: 0x141E5, size: 0x8, addend: 0x0, symName: __ZNSt3__122__compressed_pair_elemINS_9allocatorI12DockerConfigEELi1ELb1EE5__getB7v160006Ev, symObjAddr: 0x7A34, symBinAddr: 0x100008E58, symSize: 0x14 }
  - { offsetInCU: 0x1420B, offset: 0x1420B, size: 0x8, addend: 0x0, symName: __ZNSt3__16vectorI12DockerConfigNS_9allocatorIS1_EEE21_ConstructTransactionD2B7v160006Ev, symObjAddr: 0x7A48, symBinAddr: 0x100008E6C, symSize: 0x20 }
  - { offsetInCU: 0x14235, offset: 0x14235, size: 0x8, addend: 0x0, symName: __ZNKSt3__16vectorI12DockerConfigNS_9allocatorIS1_EEE11__recommendB7v160006Em, symObjAddr: 0x7A68, symBinAddr: 0x100008E8C, symSize: 0xB4 }
  - { offsetInCU: 0x1428A, offset: 0x1428A, size: 0x8, addend: 0x0, symName: __ZNKSt3__16vectorI12DockerConfigNS_9allocatorIS1_EEE4sizeB7v160006Ev, symObjAddr: 0x7B1C, symBinAddr: 0x100008F40, symSize: 0x28 }
  - { offsetInCU: 0x142B0, offset: 0x142B0, size: 0x8, addend: 0x0, symName: __ZNSt3__114__split_bufferI12DockerConfigRNS_9allocatorIS1_EEEC1EmmS4_, symObjAddr: 0x7B44, symBinAddr: 0x100008F68, symSize: 0x44 }
  - { offsetInCU: 0x14306, offset: 0x14306, size: 0x8, addend: 0x0, symName: __ZNSt3__114__split_bufferI12DockerConfigRNS_9allocatorIS1_EEED1Ev, symObjAddr: 0x7CA0, symBinAddr: 0x1000090C4, symSize: 0x2C }
  - { offsetInCU: 0x14332, offset: 0x14332, size: 0x8, addend: 0x0, symName: __ZNKSt3__16vectorI12DockerConfigNS_9allocatorIS1_EEE8max_sizeEv, symObjAddr: 0x7CCC, symBinAddr: 0x1000090F0, symSize: 0x60 }
  - { offsetInCU: 0x1435A, offset: 0x1435A, size: 0x8, addend: 0x0, symName: __ZNKSt3__16vectorI12DockerConfigNS_9allocatorIS1_EEE20__throw_length_errorB7v160006Ev, symObjAddr: 0x7D2C, symBinAddr: 0x100009150, symSize: 0x1C }
  - { offsetInCU: 0x14380, offset: 0x14380, size: 0x8, addend: 0x0, symName: __ZNKSt3__16vectorI12DockerConfigNS_9allocatorIS1_EEE8capacityB7v160006Ev, symObjAddr: 0x7D48, symBinAddr: 0x10000916C, symSize: 0x40 }
  - { offsetInCU: 0x143B0, offset: 0x143B0, size: 0x8, addend: 0x0, symName: __ZNSt3__116allocator_traitsINS_9allocatorI12DockerConfigEEE8max_sizeB7v160006IS3_vvEEmRKS3_, symObjAddr: 0x7D88, symBinAddr: 0x1000091AC, symSize: 0x28 }
  - { offsetInCU: 0x143DC, offset: 0x143DC, size: 0x8, addend: 0x0, symName: __ZNKSt3__16vectorI12DockerConfigNS_9allocatorIS1_EEE7__allocB7v160006Ev, symObjAddr: 0x7DB0, symBinAddr: 0x1000091D4, symSize: 0x28 }
  - { offsetInCU: 0x14402, offset: 0x14402, size: 0x8, addend: 0x0, symName: __ZNKSt3__117__compressed_pairIP12DockerConfigNS_9allocatorIS1_EEE6secondB7v160006Ev, symObjAddr: 0x7DD8, symBinAddr: 0x1000091FC, symSize: 0x24 }
  - { offsetInCU: 0x14428, offset: 0x14428, size: 0x8, addend: 0x0, symName: __ZNKSt3__122__compressed_pair_elemINS_9allocatorI12DockerConfigEELi1ELb1EE5__getB7v160006Ev, symObjAddr: 0x7DFC, symBinAddr: 0x100009220, symSize: 0x14 }
  - { offsetInCU: 0x1444E, offset: 0x1444E, size: 0x8, addend: 0x0, symName: __ZNKSt3__16vectorI12DockerConfigNS_9allocatorIS1_EEE9__end_capB7v160006Ev, symObjAddr: 0x7E10, symBinAddr: 0x100009234, symSize: 0x28 }
  - { offsetInCU: 0x14474, offset: 0x14474, size: 0x8, addend: 0x0, symName: __ZNKSt3__117__compressed_pairIP12DockerConfigNS_9allocatorIS1_EEE5firstB7v160006Ev, symObjAddr: 0x7E38, symBinAddr: 0x10000925C, symSize: 0x24 }
  - { offsetInCU: 0x1449A, offset: 0x1449A, size: 0x8, addend: 0x0, symName: __ZNKSt3__122__compressed_pair_elemIP12DockerConfigLi0ELb0EE5__getB7v160006Ev, symObjAddr: 0x7E5C, symBinAddr: 0x100009280, symSize: 0x14 }
  - { offsetInCU: 0x144C0, offset: 0x144C0, size: 0x8, addend: 0x0, symName: __ZNSt3__114__split_bufferI12DockerConfigRNS_9allocatorIS1_EEEC2EmmS4_, symObjAddr: 0x7E70, symBinAddr: 0x100009294, symSize: 0xE0 }
  - { offsetInCU: 0x14533, offset: 0x14533, size: 0x8, addend: 0x0, symName: __ZNSt3__117__compressed_pairIP12DockerConfigRNS_9allocatorIS1_EEEC1B7v160006IDnS5_EEOT_OT0_, symObjAddr: 0x7F50, symBinAddr: 0x100009374, symSize: 0x3C }
  - { offsetInCU: 0x1458B, offset: 0x1458B, size: 0x8, addend: 0x0, symName: __ZNSt3__114__split_bufferI12DockerConfigRNS_9allocatorIS1_EEE7__allocB7v160006Ev, symObjAddr: 0x7FCC, symBinAddr: 0x1000093F0, symSize: 0x28 }
  - { offsetInCU: 0x145B1, offset: 0x145B1, size: 0x8, addend: 0x0, symName: __ZNSt3__114__split_bufferI12DockerConfigRNS_9allocatorIS1_EEE9__end_capB7v160006Ev, symObjAddr: 0x7FF4, symBinAddr: 0x100009418, symSize: 0x28 }
  - { offsetInCU: 0x145D7, offset: 0x145D7, size: 0x8, addend: 0x0, symName: __ZNSt3__117__compressed_pairIP12DockerConfigRNS_9allocatorIS1_EEEC2B7v160006IDnS5_EEOT_OT0_, symObjAddr: 0x801C, symBinAddr: 0x100009440, symSize: 0x48 }
  - { offsetInCU: 0x1462F, offset: 0x1462F, size: 0x8, addend: 0x0, symName: __ZNSt3__122__compressed_pair_elemIP12DockerConfigLi0ELb0EEC2B7v160006IDnvEEOT_, symObjAddr: 0x8064, symBinAddr: 0x100009488, symSize: 0x1C }
  - { offsetInCU: 0x14671, offset: 0x14671, size: 0x8, addend: 0x0, symName: __ZNSt3__122__compressed_pair_elemIRNS_9allocatorI12DockerConfigEELi1ELb0EEC2B7v160006IS4_vEEOT_, symObjAddr: 0x8080, symBinAddr: 0x1000094A4, symSize: 0x20 }
  - { offsetInCU: 0x146B3, offset: 0x146B3, size: 0x8, addend: 0x0, symName: __ZNSt3__19allocatorI12DockerConfigE8allocateB7v160006Em, symObjAddr: 0x80A0, symBinAddr: 0x1000094C4, symSize: 0x5C }
  - { offsetInCU: 0x146E7, offset: 0x146E7, size: 0x8, addend: 0x0, symName: __ZNSt3__117__compressed_pairIP12DockerConfigRNS_9allocatorIS1_EEE6secondB7v160006Ev, symObjAddr: 0x80FC, symBinAddr: 0x100009520, symSize: 0x28 }
  - { offsetInCU: 0x1470D, offset: 0x1470D, size: 0x8, addend: 0x0, symName: __ZNSt3__122__compressed_pair_elemIRNS_9allocatorI12DockerConfigEELi1ELb0EE5__getB7v160006Ev, symObjAddr: 0x8124, symBinAddr: 0x100009548, symSize: 0x18 }
  - { offsetInCU: 0x14733, offset: 0x14733, size: 0x8, addend: 0x0, symName: __ZNSt3__117__compressed_pairIP12DockerConfigRNS_9allocatorIS1_EEE5firstB7v160006Ev, symObjAddr: 0x813C, symBinAddr: 0x100009560, symSize: 0x24 }
  - { offsetInCU: 0x14759, offset: 0x14759, size: 0x8, addend: 0x0, symName: __ZNKSt3__16vectorI12DockerConfigNS_9allocatorIS1_EEE17__annotate_deleteB7v160006Ev, symObjAddr: 0x8160, symBinAddr: 0x100009584, symSize: 0xD4 }
  - { offsetInCU: 0x1477F, offset: 0x1477F, size: 0x8, addend: 0x0, symName: __ZNSt3__116reverse_iteratorIP12DockerConfigEC1B7v160006ES2_, symObjAddr: 0x8360, symBinAddr: 0x100009784, symSize: 0x34 }
  - { offsetInCU: 0x147B7, offset: 0x147B7, size: 0x8, addend: 0x0, symName: __ZNKSt3__116reverse_iteratorIP12DockerConfigE4baseB7v160006Ev, symObjAddr: 0x8394, symBinAddr: 0x1000097B8, symSize: 0x18 }
  - { offsetInCU: 0x147DD, offset: 0x147DD, size: 0x8, addend: 0x0, symName: __ZNKSt3__16vectorI12DockerConfigNS_9allocatorIS1_EEE14__annotate_newB7v160006Em, symObjAddr: 0x83E8, symBinAddr: 0x10000980C, symSize: 0xC8 }
  - { offsetInCU: 0x14812, offset: 0x14812, size: 0x8, addend: 0x0, symName: __ZNKSt3__16vectorI12DockerConfigNS_9allocatorIS1_EEE31__annotate_contiguous_containerB7v160006EPKvS6_S6_S6_, symObjAddr: 0x84C0, symBinAddr: 0x1000098E4, symSize: 0x20 }
  - { offsetInCU: 0x14868, offset: 0x14868, size: 0x8, addend: 0x0, symName: __ZNKSt3__16vectorI12DockerConfigNS_9allocatorIS1_EEE4dataB7v160006Ev, symObjAddr: 0x84E0, symBinAddr: 0x100009904, symSize: 0x28 }
  - { offsetInCU: 0x1488E, offset: 0x1488E, size: 0x8, addend: 0x0, symName: __ZNSt3__129_AllocatorDestroyRangeReverseINS_9allocatorI12DockerConfigEENS_16reverse_iteratorIPS2_EEEC1B7v160006ERS3_RS6_S9_, symObjAddr: 0x8554, symBinAddr: 0x100009978, symSize: 0x44 }
  - { offsetInCU: 0x148EB, offset: 0x148EB, size: 0x8, addend: 0x0, symName: __ZNSt3__116allocator_traitsINS_9allocatorI12DockerConfigEEE9constructB7v160006IS2_JS2_EvvEEvRS3_PT_DpOT0_, symObjAddr: 0x85E0, symBinAddr: 0x100009A04, symSize: 0x30 }
  - { offsetInCU: 0x14940, offset: 0x14940, size: 0x8, addend: 0x0, symName: __ZNKSt3__116reverse_iteratorIP12DockerConfigEdeB7v160006Ev, symObjAddr: 0x8634, symBinAddr: 0x100009A58, symSize: 0x28 }
  - { offsetInCU: 0x14974, offset: 0x14974, size: 0x8, addend: 0x0, symName: __ZNSt3__116reverse_iteratorIP12DockerConfigEppB7v160006Ev, symObjAddr: 0x865C, symBinAddr: 0x100009A80, symSize: 0x20 }
  - { offsetInCU: 0x1499A, offset: 0x1499A, size: 0x8, addend: 0x0, symName: __ZNSt3__128__exception_guard_exceptionsINS_29_AllocatorDestroyRangeReverseINS_9allocatorI12DockerConfigEENS_16reverse_iteratorIPS3_EEEEE10__completeB7v160006Ev, symObjAddr: 0x867C, symBinAddr: 0x100009AA0, symSize: 0x1C }
  - { offsetInCU: 0x149C0, offset: 0x149C0, size: 0x8, addend: 0x0, symName: __ZNSt3__128__exception_guard_exceptionsINS_29_AllocatorDestroyRangeReverseINS_9allocatorI12DockerConfigEENS_16reverse_iteratorIPS3_EEEEED1B7v160006Ev, symObjAddr: 0x8698, symBinAddr: 0x100009ABC, symSize: 0x2C }
  - { offsetInCU: 0x149EA, offset: 0x149EA, size: 0x8, addend: 0x0, symName: __ZNSt3__128__exception_guard_exceptionsINS_29_AllocatorDestroyRangeReverseINS_9allocatorI12DockerConfigEENS_16reverse_iteratorIPS3_EEEEEC1B7v160006ES8_, symObjAddr: 0x86C4, symBinAddr: 0x100009AE8, symSize: 0x34 }
  - { offsetInCU: 0x14A23, offset: 0x14A23, size: 0x8, addend: 0x0, symName: __ZNSt3__128__exception_guard_exceptionsINS_29_AllocatorDestroyRangeReverseINS_9allocatorI12DockerConfigEENS_16reverse_iteratorIPS3_EEEEEC2B7v160006ES8_, symObjAddr: 0x86F8, symBinAddr: 0x100009B1C, symSize: 0x30 }
  - { offsetInCU: 0x14A5C, offset: 0x14A5C, size: 0x8, addend: 0x0, symName: __ZNSt3__129_AllocatorDestroyRangeReverseINS_9allocatorI12DockerConfigEENS_16reverse_iteratorIPS2_EEEC2B7v160006ERS3_RS6_S9_, symObjAddr: 0x8728, symBinAddr: 0x100009B4C, symSize: 0x38 }
  - { offsetInCU: 0x14AB3, offset: 0x14AB3, size: 0x8, addend: 0x0, symName: __ZN12DockerConfigC1EOS_, symObjAddr: 0x879C, symBinAddr: 0x100009BC0, symSize: 0x34 }
  - { offsetInCU: 0x14AE8, offset: 0x14AE8, size: 0x8, addend: 0x0, symName: __ZN12DockerConfigC2EOS_, symObjAddr: 0x87D0, symBinAddr: 0x100009BF4, symSize: 0xE8 }
  - { offsetInCU: 0x14B22, offset: 0x14B22, size: 0x8, addend: 0x0, symName: __ZNSt3__119__to_address_helperINS_16reverse_iteratorIP12DockerConfigEEvE6__callB7v160006ERKS4_, symObjAddr: 0x88B8, symBinAddr: 0x100009CDC, symSize: 0x38 }
  - { offsetInCU: 0x14B45, offset: 0x14B45, size: 0x8, addend: 0x0, symName: __ZNKSt3__116reverse_iteratorIP12DockerConfigEptB7v160006Ev, symObjAddr: 0x88F0, symBinAddr: 0x100009D14, symSize: 0x2C }
  - { offsetInCU: 0x14B6B, offset: 0x14B6B, size: 0x8, addend: 0x0, symName: __ZNSt3__128__exception_guard_exceptionsINS_29_AllocatorDestroyRangeReverseINS_9allocatorI12DockerConfigEENS_16reverse_iteratorIPS3_EEEEED2B7v160006Ev, symObjAddr: 0x89EC, symBinAddr: 0x100009E10, symSize: 0x50 }
  - { offsetInCU: 0x14B95, offset: 0x14B95, size: 0x8, addend: 0x0, symName: __ZNKSt3__129_AllocatorDestroyRangeReverseINS_9allocatorI12DockerConfigEENS_16reverse_iteratorIPS2_EEEclB7v160006Ev, symObjAddr: 0x8A3C, symBinAddr: 0x100009E60, symSize: 0xB4 }
  - { offsetInCU: 0x14BBC, offset: 0x14BBC, size: 0x8, addend: 0x0, symName: __ZNSt3__116reverse_iteratorINS0_IP12DockerConfigEEEC1B7v160006ES3_, symObjAddr: 0x8B60, symBinAddr: 0x100009F84, symSize: 0x3C }
  - { offsetInCU: 0x14BF4, offset: 0x14BF4, size: 0x8, addend: 0x0, symName: __ZNSt3__116allocator_traitsINS_9allocatorI12DockerConfigEEE7destroyB7v160006IS2_vvEEvRS3_PT_, symObjAddr: 0x8BFC, symBinAddr: 0x10000A020, symSize: 0x28 }
  - { offsetInCU: 0x14C2F, offset: 0x14C2F, size: 0x8, addend: 0x0, symName: __ZNSt3__116reverse_iteratorINS0_IP12DockerConfigEEEppB7v160006Ev, symObjAddr: 0x8C48, symBinAddr: 0x10000A06C, symSize: 0x30 }
  - { offsetInCU: 0x14C55, offset: 0x14C55, size: 0x8, addend: 0x0, symName: __ZNKSt3__116reverse_iteratorINS0_IP12DockerConfigEEE4baseB7v160006Ev, symObjAddr: 0x8C78, symBinAddr: 0x10000A09C, symSize: 0x24 }
  - { offsetInCU: 0x14C80, offset: 0x14C80, size: 0x8, addend: 0x0, symName: __ZNSt3__119__to_address_helperINS_16reverse_iteratorINS1_IP12DockerConfigEEEEvE6__callB7v160006ERKS5_, symObjAddr: 0x8CE4, symBinAddr: 0x10000A108, symSize: 0x38 }
  - { offsetInCU: 0x14CA3, offset: 0x14CA3, size: 0x8, addend: 0x0, symName: __ZNKSt3__116reverse_iteratorINS0_IP12DockerConfigEEEptB7v160006Ev, symObjAddr: 0x8D1C, symBinAddr: 0x10000A140, symSize: 0x4C }
  - { offsetInCU: 0x14CC9, offset: 0x14CC9, size: 0x8, addend: 0x0, symName: __ZNSt3__116reverse_iteratorIP12DockerConfigEpLB7v160006El, symObjAddr: 0x8E44, symBinAddr: 0x10000A268, symSize: 0x30 }
  - { offsetInCU: 0x14CFD, offset: 0x14CFD, size: 0x8, addend: 0x0, symName: __ZNSt3__116reverse_iteratorIP12DockerConfigEmmB7v160006Ev, symObjAddr: 0x8E74, symBinAddr: 0x10000A298, symSize: 0x20 }
  - { offsetInCU: 0x14D23, offset: 0x14D23, size: 0x8, addend: 0x0, symName: __ZNSt3__116reverse_iteratorINS0_IP12DockerConfigEEEC2B7v160006ES3_, symObjAddr: 0x8E94, symBinAddr: 0x10000A2B8, symSize: 0x2C }
  - { offsetInCU: 0x14D5B, offset: 0x14D5B, size: 0x8, addend: 0x0, symName: __ZNSt3__116reverse_iteratorIP12DockerConfigEC2B7v160006ES2_, symObjAddr: 0x8EC0, symBinAddr: 0x10000A2E4, symSize: 0x28 }
  - { offsetInCU: 0x14D93, offset: 0x14D93, size: 0x8, addend: 0x0, symName: __ZNSt3__114__split_bufferI12DockerConfigRNS_9allocatorIS1_EEED2Ev, symObjAddr: 0x8EE8, symBinAddr: 0x10000A30C, symSize: 0x8C }
  - { offsetInCU: 0x14DBF, offset: 0x14DBF, size: 0x8, addend: 0x0, symName: __ZNSt3__114__split_bufferI12DockerConfigRNS_9allocatorIS1_EEE5clearB7v160006Ev, symObjAddr: 0x8F74, symBinAddr: 0x10000A398, symSize: 0x28 }
  - { offsetInCU: 0x14DE5, offset: 0x14DE5, size: 0x8, addend: 0x0, symName: __ZNSt3__116allocator_traitsINS_9allocatorI12DockerConfigEEE10deallocateB7v160006ERS3_PS2_m, symObjAddr: 0x8F9C, symBinAddr: 0x10000A3C0, symSize: 0x34 }
  - { offsetInCU: 0x14E27, offset: 0x14E27, size: 0x8, addend: 0x0, symName: __ZNKSt3__114__split_bufferI12DockerConfigRNS_9allocatorIS1_EEE8capacityB7v160006Ev, symObjAddr: 0x8FD0, symBinAddr: 0x10000A3F4, symSize: 0x40 }
  - { offsetInCU: 0x14E4D, offset: 0x14E4D, size: 0x8, addend: 0x0, symName: __ZNSt3__114__split_bufferI12DockerConfigRNS_9allocatorIS1_EEE17__destruct_at_endB7v160006EPS1_, symObjAddr: 0x9010, symBinAddr: 0x10000A434, symSize: 0x2C }
  - { offsetInCU: 0x14E81, offset: 0x14E81, size: 0x8, addend: 0x0, symName: __ZNSt3__114__split_bufferI12DockerConfigRNS_9allocatorIS1_EEE17__destruct_at_endB7v160006EPS1_NS_17integral_constantIbLb0EEE, symObjAddr: 0x903C, symBinAddr: 0x10000A460, symSize: 0x80 }
  - { offsetInCU: 0x14EC1, offset: 0x14EC1, size: 0x8, addend: 0x0, symName: __ZNSt3__19allocatorI12DockerConfigE10deallocateB7v160006EPS1_m, symObjAddr: 0x90BC, symBinAddr: 0x10000A4E0, symSize: 0x44 }
  - { offsetInCU: 0x14F03, offset: 0x14F03, size: 0x8, addend: 0x0, symName: __ZNKSt3__114__split_bufferI12DockerConfigRNS_9allocatorIS1_EEE9__end_capB7v160006Ev, symObjAddr: 0x9100, symBinAddr: 0x10000A524, symSize: 0x28 }
  - { offsetInCU: 0x14F29, offset: 0x14F29, size: 0x8, addend: 0x0, symName: __ZNKSt3__117__compressed_pairIP12DockerConfigRNS_9allocatorIS1_EEE5firstB7v160006Ev, symObjAddr: 0x9128, symBinAddr: 0x10000A54C, symSize: 0x24 }
  - { offsetInCU: 0x14F4F, offset: 0x14F4F, size: 0x8, addend: 0x0, symName: __ZN12DockerConfigD2Ev, symObjAddr: 0x914C, symBinAddr: 0x10000A570, symSize: 0x98 }
  - { offsetInCU: 0x14F7B, offset: 0x14F7B, size: 0x8, addend: 0x0, symName: __ZNSt3__19basic_iosIcNS_11char_traitsIcEEEC2B7v160006Ev, symObjAddr: 0x91E4, symBinAddr: 0x10000A608, symSize: 0x44 }
  - { offsetInCU: 0x14FA5, offset: 0x14FA5, size: 0x8, addend: 0x0, symName: __ZNSt3__113basic_istreamIcNS_11char_traitsIcEEEC2B7v160006EPNS_15basic_streambufIcS2_EE, symObjAddr: 0x9228, symBinAddr: 0x10000A64C, symSize: 0x64 }
  - { offsetInCU: 0x14FEA, offset: 0x14FEA, size: 0x8, addend: 0x0, symName: __ZNSt3__115basic_stringbufIcNS_11char_traitsIcEENS_9allocatorIcEEEC1B7v160006ERKNS_12basic_stringIcS2_S4_EEj, symObjAddr: 0x928C, symBinAddr: 0x10000A6B0, symSize: 0x3C }
  - { offsetInCU: 0x15030, offset: 0x15030, size: 0x8, addend: 0x0, symName: __ZNSt3__18ios_baseC2B7v160006Ev, symObjAddr: 0x92C8, symBinAddr: 0x10000A6EC, symSize: 0x24 }
  - { offsetInCU: 0x1505A, offset: 0x1505A, size: 0x8, addend: 0x0, symName: __ZNSt3__19basic_iosIcNS_11char_traitsIcEEE4initB7v160006EPNS_15basic_streambufIcS2_EE, symObjAddr: 0x92EC, symBinAddr: 0x10000A710, symSize: 0x44 }
  - { offsetInCU: 0x15091, offset: 0x15091, size: 0x8, addend: 0x0, symName: __ZNSt3__111char_traitsIcE3eofEv, symObjAddr: 0x9330, symBinAddr: 0x10000A754, symSize: 0x8 }
  - { offsetInCU: 0x150A5, offset: 0x150A5, size: 0x8, addend: 0x0, symName: __ZNSt3__115basic_stringbufIcNS_11char_traitsIcEENS_9allocatorIcEEEC2B7v160006ERKNS_12basic_stringIcS2_S4_EEj, symObjAddr: 0x9338, symBinAddr: 0x10000A75C, symSize: 0xB4 }
  - { offsetInCU: 0x150EB, offset: 0x150EB, size: 0x8, addend: 0x0, symName: __ZNKSt3__112basic_stringIcNS_11char_traitsIcEENS_9allocatorIcEEE13get_allocatorB7v160006Ev, symObjAddr: 0x93EC, symBinAddr: 0x10000A810, symSize: 0x24 }
  - { offsetInCU: 0x15111, offset: 0x15111, size: 0x8, addend: 0x0, symName: __ZNSt3__112basic_stringIcNS_11char_traitsIcEENS_9allocatorIcEEEC1B7v160006ERKS4_, symObjAddr: 0x9410, symBinAddr: 0x10000A834, symSize: 0x34 }
  - { offsetInCU: 0x1514A, offset: 0x1514A, size: 0x8, addend: 0x0, symName: __ZNKSt3__112basic_stringIcNS_11char_traitsIcEENS_9allocatorIcEEE7__allocB7v160006Ev, symObjAddr: 0x9444, symBinAddr: 0x10000A868, symSize: 0x24 }
  - { offsetInCU: 0x15170, offset: 0x15170, size: 0x8, addend: 0x0, symName: __ZNKSt3__117__compressed_pairINS_12basic_stringIcNS_11char_traitsIcEENS_9allocatorIcEEE5__repES5_E6secondB7v160006Ev, symObjAddr: 0x9468, symBinAddr: 0x10000A88C, symSize: 0x24 }
  - { offsetInCU: 0x15196, offset: 0x15196, size: 0x8, addend: 0x0, symName: __ZNKSt3__122__compressed_pair_elemINS_9allocatorIcEELi1ELb1EE5__getB7v160006Ev, symObjAddr: 0x948C, symBinAddr: 0x10000A8B0, symSize: 0x14 }
  - { offsetInCU: 0x151BC, offset: 0x151BC, size: 0x8, addend: 0x0, symName: __ZNSt3__112basic_stringIcNS_11char_traitsIcEENS_9allocatorIcEEEC2B7v160006ERKS4_, symObjAddr: 0x94A0, symBinAddr: 0x10000A8C4, symSize: 0x50 }
  - { offsetInCU: 0x151F5, offset: 0x151F5, size: 0x8, addend: 0x0, symName: __ZNSt3__117__compressed_pairINS_12basic_stringIcNS_11char_traitsIcEENS_9allocatorIcEEE5__repES5_EC1B7v160006INS_18__default_init_tagERKS5_EEOT_OT0_, symObjAddr: 0x94F0, symBinAddr: 0x10000A914, symSize: 0x3C }
  - { offsetInCU: 0x1524D, offset: 0x1524D, size: 0x8, addend: 0x0, symName: __ZNSt3__117__compressed_pairINS_12basic_stringIcNS_11char_traitsIcEENS_9allocatorIcEEE5__repES5_EC2B7v160006INS_18__default_init_tagERKS5_EEOT_OT0_, symObjAddr: 0x952C, symBinAddr: 0x10000A950, symSize: 0x40 }
  - { offsetInCU: 0x152A5, offset: 0x152A5, size: 0x8, addend: 0x0, symName: __ZNSt3__122__compressed_pair_elemINS_9allocatorIcEELi1ELb1EEC2B7v160006IRKS2_vEEOT_, symObjAddr: 0x956C, symBinAddr: 0x10000A990, symSize: 0x18 }
  - { offsetInCU: 0x15305, offset: 0x15305, size: 0x8, addend: 0x0, symName: __ZNKSt3__113basic_istreamIcNS_11char_traitsIcEEE6sentrycvbB7v160006Ev, symObjAddr: 0x9584, symBinAddr: 0x10000A9A8, symSize: 0x1C }
  - { offsetInCU: 0x1532B, offset: 0x1532B, size: 0x8, addend: 0x0, symName: __ZNSt3__112basic_stringIcNS_11char_traitsIcEENS_9allocatorIcEEE5clearB7v160006Ev, symObjAddr: 0x95A0, symBinAddr: 0x10000A9C4, symSize: 0x88 }
  - { offsetInCU: 0x15353, offset: 0x15353, size: 0x8, addend: 0x0, symName: __ZNKSt3__18ios_base5widthB7v160006Ev, symObjAddr: 0x9628, symBinAddr: 0x10000AA4C, symSize: 0x18 }
  - { offsetInCU: 0x1537B, offset: 0x1537B, size: 0x8, addend: 0x0, symName: __ZNKSt3__112basic_stringIcNS_11char_traitsIcEENS_9allocatorIcEEE8max_sizeB7v160006Ev, symObjAddr: 0x9640, symBinAddr: 0x10000AA64, symSize: 0xAC }
  - { offsetInCU: 0x153CD, offset: 0x153CD, size: 0x8, addend: 0x0, symName: __ZNKSt3__19basic_iosIcNS_11char_traitsIcEEE5rdbufB7v160006Ev, symObjAddr: 0x9718, symBinAddr: 0x10000AB3C, symSize: 0x24 }
  - { offsetInCU: 0x153F5, offset: 0x153F5, size: 0x8, addend: 0x0, symName: __ZNSt3__115basic_streambufIcNS_11char_traitsIcEEE5sgetcB7v160006Ev, symObjAddr: 0x973C, symBinAddr: 0x10000AB60, symSize: 0x70 }
  - { offsetInCU: 0x1541B, offset: 0x1541B, size: 0x8, addend: 0x0, symName: __ZNSt3__111char_traitsIcE11eq_int_typeEii, symObjAddr: 0x97AC, symBinAddr: 0x10000ABD0, symSize: 0x28 }
  - { offsetInCU: 0x1544C, offset: 0x1544C, size: 0x8, addend: 0x0, symName: __ZNSt3__111char_traitsIcE12to_char_typeEi, symObjAddr: 0x97D4, symBinAddr: 0x10000ABF8, symSize: 0x18 }
  - { offsetInCU: 0x1549C, offset: 0x1549C, size: 0x8, addend: 0x0, symName: __ZNKSt3__15ctypeIcE2isB7v160006Ejc, symObjAddr: 0x97EC, symBinAddr: 0x10000AC10, symSize: 0x7C }
  - { offsetInCU: 0x154E0, offset: 0x154E0, size: 0x8, addend: 0x0, symName: __ZNSt3__115basic_streambufIcNS_11char_traitsIcEEE6sbumpcB7v160006Ev, symObjAddr: 0x9868, symBinAddr: 0x10000AC8C, symSize: 0x78 }
  - { offsetInCU: 0x15506, offset: 0x15506, size: 0x8, addend: 0x0, symName: __ZNSt3__18ios_base5widthB7v160006El, symObjAddr: 0x98E0, symBinAddr: 0x10000AD04, symSize: 0x2C }
  - { offsetInCU: 0x1554C, offset: 0x1554C, size: 0x8, addend: 0x0, symName: __ZNSt3__18ios_base18__setstate_nothrowB7v160006Ej, symObjAddr: 0x990C, symBinAddr: 0x10000AD30, symSize: 0x64 }
  - { offsetInCU: 0x15581, offset: 0x15581, size: 0x8, addend: 0x0, symName: __ZNKSt3__19basic_iosIcNS_11char_traitsIcEEE10exceptionsB7v160006Ev, symObjAddr: 0x9970, symBinAddr: 0x10000AD94, symSize: 0x24 }
  - { offsetInCU: 0x155A7, offset: 0x155A7, size: 0x8, addend: 0x0, symName: __ZNSt3__19basic_iosIcNS_11char_traitsIcEEE8setstateB7v160006Ej, symObjAddr: 0x9994, symBinAddr: 0x10000ADB8, symSize: 0x2C }
  - { offsetInCU: 0x155DC, offset: 0x155DC, size: 0x8, addend: 0x0, symName: __ZNSt3__112basic_stringIcNS_11char_traitsIcEENS_9allocatorIcEEE15__set_long_sizeB7v160006Em, symObjAddr: 0x99D0, symBinAddr: 0x10000ADF4, symSize: 0x38 }
  - { offsetInCU: 0x1561B, offset: 0x1561B, size: 0x8, addend: 0x0, symName: __ZNSt3__116allocator_traitsINS_9allocatorIcEEE8max_sizeB7v160006IS2_vvEEmRKS2_, symObjAddr: 0x9A08, symBinAddr: 0x10000AE2C, symSize: 0x28 }
  - { offsetInCU: 0x15647, offset: 0x15647, size: 0x8, addend: 0x0, symName: __ZNKSt3__18ios_base5rdbufB7v160006Ev, symObjAddr: 0x9A30, symBinAddr: 0x10000AE54, symSize: 0x18 }
  - { offsetInCU: 0x1566D, offset: 0x1566D, size: 0x8, addend: 0x0, symName: __ZNSt3__111char_traitsIcE11to_int_typeEc, symObjAddr: 0x9A48, symBinAddr: 0x10000AE6C, symSize: 0x14 }
  - { offsetInCU: 0x1568F, offset: 0x1568F, size: 0x8, addend: 0x0, symName: __Z7isasciii, symObjAddr: 0x9A5C, symBinAddr: 0x10000AE80, symSize: 0x24 }
  - { offsetInCU: 0x156BC, offset: 0x156BC, size: 0x8, addend: 0x0, symName: __ZNKSt3__18ios_base10exceptionsB7v160006Ev, symObjAddr: 0x9A80, symBinAddr: 0x10000AEA4, symSize: 0x18 }
  - { offsetInCU: 0x156E4, offset: 0x156E4, size: 0x8, addend: 0x0, symName: __ZNSt3__18ios_base8setstateB7v160006Ej, symObjAddr: 0x9A98, symBinAddr: 0x10000AEBC, symSize: 0x34 }
  - { offsetInCU: 0x1571B, offset: 0x1571B, size: 0x8, addend: 0x0, symName: __ZNKSt3__19basic_iosIcNS_11char_traitsIcEEE4failB7v160006Ev, symObjAddr: 0x9ACC, symBinAddr: 0x10000AEF0, symSize: 0x28 }
  - { offsetInCU: 0x15741, offset: 0x15741, size: 0x8, addend: 0x0, symName: __ZNKSt3__18ios_base4failB7v160006Ev, symObjAddr: 0x9AF4, symBinAddr: 0x10000AF18, symSize: 0x28 }
  - { offsetInCU: 0x58, offset: 0x15966, size: 0x8, addend: 0x0, symName: __ZN4crowL4crlfE, symObjAddr: 0x5CB920, symBinAddr: 0x100114878, symSize: 0x0 }
  - { offsetInCU: 0x72, offset: 0x15980, size: 0x8, addend: 0x0, symName: __ZN4crowL10mime_typesE, symObjAddr: 0x5CB958, symBinAddr: 0x1001148B0, symSize: 0x0 }
  - { offsetInCU: 0x91, offset: 0x1599F, size: 0x8, addend: 0x0, symName: __ZN4crow9multipartL2ddE, symObjAddr: 0x5CB980, symBinAddr: 0x1001148D8, symSize: 0x0 }
  - { offsetInCU: 0xAC, offset: 0x159BA, size: 0x8, addend: 0x0, symName: __ZN4crowL7VERSIONE, symObjAddr: 0xC7429, symBinAddr: 0x100101301, symSize: 0x0 }
  - { offsetInCU: 0xD3, offset: 0x159E1, size: 0x8, addend: 0x0, symName: __ZN4crow8mustache6detail31get_template_base_directory_refEv, symObjAddr: 0x159A8, symBinAddr: 0x10001EEC4, symSize: 0xC0 }
  - { offsetInCU: 0xFE, offset: 0x15A0C, size: 0x8, addend: 0x0, symName: __ZZN4crow8mustache6detail31get_template_base_directory_refEvE23template_base_directory, symObjAddr: 0xC5348, symBinAddr: 0x1001142C0, symSize: 0x0 }
  - { offsetInCU: 0x109, offset: 0x15A17, size: 0x8, addend: 0x0, symName: __ZN4crow8mustache6detail38get_global_template_base_directory_refEv, symObjAddr: 0x15A68, symBinAddr: 0x10001EF84, symSize: 0xC0 }
  - { offsetInCU: 0x134, offset: 0x15A42, size: 0x8, addend: 0x0, symName: __ZZN4crow8mustache6detail38get_global_template_base_directory_refEvE23template_base_directory, symObjAddr: 0xC5368, symBinAddr: 0x1001142E0, symSize: 0x0 }
  - { offsetInCU: 0x13F, offset: 0x15A4D, size: 0x8, addend: 0x0, symName: __ZN4crow8mustache6detail14get_loader_refEv, symObjAddr: 0x28048, symBinAddr: 0x100030A1C, symSize: 0xC0 }
  - { offsetInCU: 0x16A, offset: 0x15A78, size: 0x8, addend: 0x0, symName: __ZZN4crow8mustache6detail14get_loader_refEvE6loader, symObjAddr: 0xC53A0, symBinAddr: 0x100114318, symSize: 0x0 }
  - { offsetInCU: 0x494, offset: 0x15DA2, size: 0x8, addend: 0x0, symName: __ZN4crow8mustache8set_baseERKNSt3__112basic_stringIcNS1_11char_traitsIcEENS1_9allocatorIcEEEE, symObjAddr: 0x15930, symBinAddr: 0x10001EE4C, symSize: 0x78 }
  - { offsetInCU: 0x4CD, offset: 0x15DDB, size: 0x8, addend: 0x0, symName: __ZN4crow8mustache4loadERKNSt3__112basic_stringIcNS1_11char_traitsIcEENS1_9allocatorIcEEEE, symObjAddr: 0x1C964, symBinAddr: 0x100025A1C, symSize: 0xF4 }
  - { offsetInCU: 0x50A, offset: 0x15E18, size: 0x8, addend: 0x0, symName: __ZN4crow8mustache7compileERKNSt3__112basic_stringIcNS1_11char_traitsIcEENS1_9allocatorIcEEEE, symObjAddr: 0x27FDC, symBinAddr: 0x1000309B0, symSize: 0x6C }
  - { offsetInCU: 0x538, offset: 0x15E46, size: 0x8, addend: 0x0, symName: __ZN4crow8mustache14default_loaderERKNSt3__112basic_stringIcNS1_11char_traitsIcEENS1_9allocatorIcEEEE, symObjAddr: 0x2F928, symBinAddr: 0x100038200, symSize: 0x244 }
  - { offsetInCU: 0xD74, offset: 0x16682, size: 0x8, addend: 0x0, symName: __ZN4crow7utilityL17sanitize_filenameERNSt3__112basic_stringIcNS1_11char_traitsIcEENS1_9allocatorIcEEEEc, symObjAddr: 0x27BB8, symBinAddr: 0x10003058C, symSize: 0x398 }
  - { offsetInCU: 0xD9C, offset: 0x166AA, size: 0x8, addend: 0x0, symName: __ZZN4crow7utilityL17sanitize_filenameERNSt3__112basic_stringIcNS1_11char_traitsIcEENS1_9allocatorIcEEEEcE7toUpper, symObjAddr: 0xC75C6, symBinAddr: 0x10010149E, symSize: 0x0 }
  - { offsetInCU: 0xE6F, offset: 0x1677D, size: 0x8, addend: 0x0, symName: __ZN4crow7utilityL13string_equalsERKNSt3__112basic_stringIcNS1_11char_traitsIcEENS1_9allocatorIcEEEES9_b, symObjAddr: 0x17C10, symBinAddr: 0x100020E78, symSize: 0x180 }
  - { offsetInCU: 0xED9, offset: 0x167E7, size: 0x8, addend: 0x0, symName: __ZN4crow7utilityL9join_pathENSt3__112basic_stringIcNS1_11char_traitsIcEENS1_9allocatorIcEEEERKS7_, symObjAddr: 0x2FBCC, symBinAddr: 0x1000384A4, symSize: 0x8C }
  - { offsetInCU: 0xF18, offset: 0x16826, size: 0x8, addend: 0x0, symName: __ZN4crow7utilityL12lexical_castINSt3__112basic_stringIcNS2_11char_traitsIcEENS2_9allocatorIcEEEEiEET_RKT0_, symObjAddr: 0x35454, symBinAddr: 0x10003DB7C, symSize: 0xE8 }
  - { offsetInCU: 0xF78, offset: 0x16886, size: 0x8, addend: 0x0, symName: __ZN4crow7utilityL12lexical_castINSt3__112basic_stringIcNS2_11char_traitsIcEENS2_9allocatorIcEEEEN4asio2ip14basic_endpointINSA_3tcpEEEEET_RKT0_, symObjAddr: 0xB2668, symBinAddr: 0x1000BA41C, symSize: 0xE4 }
  - { offsetInCU: 0x1C72, offset: 0x17580, size: 0x8, addend: 0x0, symName: __ZN4crow4json6escapeERKNSt3__112basic_stringIcNS1_11char_traitsIcEENS1_9allocatorIcEEEERS7_, symObjAddr: 0x1F830, symBinAddr: 0x10002868C, symSize: 0x2A0 }
  - { offsetInCU: 0x3CCC, offset: 0x195DA, size: 0x8, addend: 0x0, symName: '__ZN4crow6detail20wrapped_handler_callIZ4mainE3$_0JEEENSt3__19enable_ifIXsr11black_magic10CallHelperIT_NS_11black_magic1SIJDpT0_EEEEE5valueEvE4typeERNS_7requestERNS_8responseERKS5_DpOS8_', symObjAddr: 0x1BEB0, symBinAddr: 0x100025104, symSize: 0xC8 }
  - { offsetInCU: 0x3D29, offset: 0x19637, size: 0x8, addend: 0x0, symName: '__ZN4crow6detail20wrapped_handler_callIZ4mainE3$_1JEEENSt3__19enable_ifIXsr11black_magic10CallHelperIT_NS_11black_magic1SIJDpT0_EEEEE5valueEvE4typeERNS_7requestERNS_8responseERKS5_DpOS8_', symObjAddr: 0x394A4, symBinAddr: 0x1000416B4, symSize: 0xC8 }
  - { offsetInCU: 0x3D86, offset: 0x19694, size: 0x8, addend: 0x0, symName: '__ZN4crow6detail20wrapped_handler_callIZ4mainE3$_2JEEENSt3__19enable_ifIXaantsr11black_magic10CallHelperIT_NS_11black_magic1SIJDpT0_EEEEE5valuesr11black_magic10CallHelperIS5_NS7_IJRNS_7requestES9_EEEEE5valueEvE4typeESC_RNS_8responseERKS5_DpOS8_', symObjAddr: 0x3B090, symBinAddr: 0x1000432A0, symSize: 0x90 }
  - { offsetInCU: 0x3DE4, offset: 0x196F2, size: 0x8, addend: 0x0, symName: '__ZN4crow6detail20wrapped_handler_callIZ4mainE3$_3JEEENSt3__19enable_ifIXsr11black_magic10CallHelperIT_NS_11black_magic1SIJDpT0_EEEEE5valueEvE4typeERNS_7requestERNS_8responseERKS5_DpOS8_', symObjAddr: 0x3CC30, symBinAddr: 0x100044E40, symSize: 0xC8 }
  - { offsetInCU: 0x3E3E, offset: 0x1974C, size: 0x8, addend: 0x0, symName: '__ZN4crow6detail20wrapped_handler_callIZ4mainE3$_4JEEENSt3__19enable_ifIXsr11black_magic10CallHelperIT_NS_11black_magic1SIJDpT0_EEEEE5valueEvE4typeERNS_7requestERNS_8responseERKS5_DpOS8_', symObjAddr: 0x3EA80, symBinAddr: 0x100046C04, symSize: 0xC8 }
  - { offsetInCU: 0x3E9B, offset: 0x197A9, size: 0x8, addend: 0x0, symName: '__ZN4crow6detail20wrapped_handler_callIZ4mainE3$_5JEEENSt3__19enable_ifIXsr11black_magic10CallHelperIT_NS_11black_magic1SIJDpT0_EEEEE5valueEvE4typeERNS_7requestERNS_8responseERKS5_DpOS8_', symObjAddr: 0x41A3C, symBinAddr: 0x100049BC0, symSize: 0xC8 }
  - { offsetInCU: 0x3EF8, offset: 0x19806, size: 0x8, addend: 0x0, symName: __ZN4crow6detail20wrapped_handler_callIZNS_4CrowIJEE8validateEvEUlRNS_8responseENSt3__112basic_stringIcNS6_11char_traitsIcEENS6_9allocatorIcEEEEE_JSC_EEENS6_9enable_ifIXaaaantsr11black_magic10CallHelperIT_NS_11black_magic1SIJDpT0_EEEEE5valuentsr11black_magic10CallHelperISF_NSH_IJRNS_7requestESJ_EEEEE5valuesr11black_magic10CallHelperISF_NSH_IJS5_SJ_EEEEE5valueEvE4typeESM_S5_RKSF_DpOSI_, symObjAddr: 0x46338, symBinAddr: 0x10004E0EC, symSize: 0x84 }
  - { offsetInCU: 0x3F68, offset: 0x19876, size: 0x8, addend: 0x0, symName: __ZN4crow6detail20wrapped_handler_callIZNS_4CrowIJEE8validateEvEUlRNS_8responseENSt3__112basic_stringIcNS6_11char_traitsIcEENS6_9allocatorIcEEEEE0_JSC_EEENS6_9enable_ifIXaaaantsr11black_magic10CallHelperIT_NS_11black_magic1SIJDpT0_EEEEE5valuentsr11black_magic10CallHelperISF_NSH_IJRNS_7requestESJ_EEEEE5valuesr11black_magic10CallHelperISF_NSH_IJS5_SJ_EEEEE5valueEvE4typeESM_S5_RKSF_DpOSI_, symObjAddr: 0x498E4, symBinAddr: 0x100051698, symSize: 0x84 }
  - { offsetInCU: 0x3FD8, offset: 0x198E6, size: 0x8, addend: 0x0, symName: __ZN4crow6detail26after_handlers_call_helperINS0_36middleware_call_criteria_only_globalELin1ENS0_7contextIJEEERNSt3__15tupleIJEEEEENS5_9enable_ifIXltT0_Li0EEvE4typeERKT_RT2_RT1_RNS_7requestERNS_8responseE, symObjAddr: 0xA36D8, symBinAddr: 0x1000AB48C, symSize: 0x20 }
  - { offsetInCU: 0x4059, offset: 0x19967, size: 0x8, addend: 0x0, symName: __ZN4crow6detail22middleware_call_helperINS0_36middleware_call_criteria_only_globalELi0ENS0_7contextIJEEERNSt3__15tupleIJEEEEENS5_9enable_ifIXgeT0_sr3std10tuple_sizeINS5_16remove_referenceIT2_E4typeEEE5valueEbE4typeERKT_RSB_RNS_7requestERNS_8responseERT1_, symObjAddr: 0xB28BC, symBinAddr: 0x1000BA670, symSize: 0x28 }
  - { offsetInCU: 0x48AC, offset: 0x1A1BA, size: 0x8, addend: 0x0, symName: __ZN4crowL14method_stringsE, symObjAddr: 0xC70E8, symBinAddr: 0x100111A68, symSize: 0x0 }
  - { offsetInCU: 0x48BA, offset: 0x1A1C8, size: 0x8, addend: 0x0, symName: __ZN4crow16get_header_valueINSt3__118unordered_multimapINS1_12basic_stringIcNS1_11char_traitsIcEENS1_9allocatorIcEEEES8_NS_7ci_hashENS_9ci_key_eqENS6_INS1_4pairIKS8_S8_EEEEEEEERSC_RKT_SG_, symObjAddr: 0xA54B8, symBinAddr: 0x1000AD26C, symSize: 0xE0 }
  - { offsetInCU: 0x48E3, offset: 0x1A1F1, size: 0x8, addend: 0x0, symName: __ZZN4crow16get_header_valueINSt3__118unordered_multimapINS1_12basic_stringIcNS1_11char_traitsIcEENS1_9allocatorIcEEEES8_NS_7ci_hashENS_9ci_key_eqENS6_INS1_4pairIKS8_S8_EEEEEEEERSC_RKT_SG_E5empty, symObjAddr: 0xC55B8, symBinAddr: 0x100114530, symSize: 0x0 }
  - { offsetInCU: 0x4913, offset: 0x1A221, size: 0x8, addend: 0x0, symName: __ZN4crow19http_parser_executeEPNS_11http_parserEPKNS_20http_parser_settingsEPKcm, symObjAddr: 0x8D634, symBinAddr: 0x1000953E8, symSize: 0x5594 }
  - { offsetInCU: 0x493E, offset: 0x1A24C, size: 0x8, addend: 0x0, symName: __ZZN4crow19http_parser_executeEPNS_11http_parserEPKNS_20http_parser_settingsEPKcmE6tokens, symObjAddr: 0xC8E82, symBinAddr: 0x100102D5A, symSize: 0x0 }
  - { offsetInCU: 0x4955, offset: 0x1A263, size: 0x8, addend: 0x0, symName: __ZZN4crow19http_parser_executeEPNS_11http_parserEPKNS_20http_parser_settingsEPKcmE5unhex, symObjAddr: 0xC8F82, symBinAddr: 0x100102E5A, symSize: 0x0 }
  - { offsetInCU: 0x4BDF, offset: 0x1A4ED, size: 0x8, addend: 0x0, symName: __ZN4crowL15max_header_sizeE, symObjAddr: 0xC56C8, symBinAddr: 0x100114640, symSize: 0x0 }
  - { offsetInCU: 0x4BED, offset: 0x1A4FB, size: 0x8, addend: 0x0, symName: __ZN4crow14parse_url_charENS_5stateEcPNS_11http_parserEPKcS4_, symObjAddr: 0xB8530, symBinAddr: 0x1000C02E4, symSize: 0x578 }
  - { offsetInCU: 0x4C18, offset: 0x1A526, size: 0x8, addend: 0x0, symName: __ZZN4crow14parse_url_charENS_5stateEcPNS_11http_parserEPKcS4_E15normal_url_char, symObjAddr: 0xC9082, symBinAddr: 0x100102F5A, symSize: 0x0 }
  - { offsetInCU: 0x4C6E, offset: 0x1A57C, size: 0x8, addend: 0x0, symName: __ZN4crow22http_errno_descriptionENS_10http_errnoE, symObjAddr: 0x8D110, symBinAddr: 0x100094EC4, symSize: 0x6C }
  - { offsetInCU: 0x4C99, offset: 0x1A5A7, size: 0x8, addend: 0x0, symName: __ZZN4crow22http_errno_descriptionENS_10http_errnoEE17http_strerror_tab, symObjAddr: 0xC56D0, symBinAddr: 0x100114648, symSize: 0x0 }
  - { offsetInCU: 0x5367, offset: 0x1AC75, size: 0x8, addend: 0x0, symName: __ZN4crow11black_magic8is_equ_pEPKcS2_j, symObjAddr: 0x45F0, symBinAddr: 0x10000F200, symSize: 0x14C }
  - { offsetInCU: 0x53EF, offset: 0x1ACFD, size: 0x8, addend: 0x0, symName: __ZN4crow16http_parser_initEPNS_11http_parserE, symObjAddr: 0x8273C, symBinAddr: 0x10008A4F0, symSize: 0x74 }
  - { offsetInCU: 0x5428, offset: 0x1AD36, size: 0x8, addend: 0x0, symName: __ZN4crow8qs_parseEPcPS0_mb, symObjAddr: 0x939B4, symBinAddr: 0x10009B768, symSize: 0x258 }
  - { offsetInCU: 0x54A8, offset: 0x1ADB6, size: 0x8, addend: 0x0, symName: __ZN4crow9qs_decodeEPc, symObjAddr: 0x951CC, symBinAddr: 0x10009CF80, symSize: 0x644 }
  - { offsetInCU: 0x54F1, offset: 0x1ADFF, size: 0x8, addend: 0x0, symName: __ZN4crow11method_nameENS_10HTTPMethodE, symObjAddr: 0x96D18, symBinAddr: 0x10009EACC, symSize: 0x70 }
  - { offsetInCU: 0xF8AE, offset: 0x251BC, size: 0x8, addend: 0x0, symName: __ZNSt3__16chronomiB7v160006IxNS_5ratioILl1ELl1000000000EEExS3_EENS_11common_typeIJNS0_8durationIT_T0_EENS5_IT1_T2_EEEE4typeERKS8_RKSB_, symObjAddr: 0x3F938, symBinAddr: 0x100047ABC, symSize: 0x70 }
  - { offsetInCU: 0xF91B, offset: 0x25229, size: 0x8, addend: 0x0, symName: __ZNSt3__16chronoplB7v160006INS0_12steady_clockENS0_8durationIxNS_5ratioILl1ELl1000000000EEEEExNS4_ILl1ELl1EEEEENS0_10time_pointIT_NS_11common_typeIJT0_NS3_IT1_T2_EEEE4typeEEERKNS8_IS9_SB_EERKSE_, symObjAddr: 0x3EED4, symBinAddr: 0x100047058, symSize: 0x50 }
  - { offsetInCU: 0xF984, offset: 0x25292, size: 0x8, addend: 0x0, symName: __ZNSt3__16chronoplB7v160006IxNS_5ratioILl1ELl1000000000EEExNS2_ILl1ELl1EEEEENS_11common_typeIJNS0_8durationIT_T0_EENS6_IT1_T2_EEEE4typeERKS9_RKSC_, symObjAddr: 0x3F9F4, symBinAddr: 0x100047B78, symSize: 0x7C }
  - { offsetInCU: 0xFA79, offset: 0x25387, size: 0x8, addend: 0x0, symName: __ZNSt3__16chronoplB7v160006INS0_12steady_clockENS0_8durationIxNS_5ratioILl1ELl1000000000EEEEExS5_EENS0_10time_pointIT_NS_11common_typeIJT0_NS3_IT1_T2_EEEE4typeEEERKNS7_IS8_SA_EERKSD_, symObjAddr: 0x7C3E8, symBinAddr: 0x10008419C, symSize: 0x50 }
  - { offsetInCU: 0xFAE2, offset: 0x253F0, size: 0x8, addend: 0x0, symName: __ZNSt3__16chronoplB7v160006IxNS_5ratioILl1ELl1000000000EEExS3_EENS_11common_typeIJNS0_8durationIT_T0_EENS5_IT1_T2_EEEE4typeERKS8_RKSB_, symObjAddr: 0x7C438, symBinAddr: 0x1000841EC, symSize: 0x70 }
  - { offsetInCU: 0xFF6C, offset: 0x2587A, size: 0x8, addend: 0x0, symName: __ZNSt3__16chronoltB7v160006INS0_12steady_clockENS0_8durationIxNS_5ratioILl1ELl1000000000EEEEES6_EEbRKNS0_10time_pointIT_T0_EERKNS7_IS8_T1_EE, symObjAddr: 0x7A44, symBinAddr: 0x100011CA0, symSize: 0x54 }
  - { offsetInCU: 0xFFC1, offset: 0x258CF, size: 0x8, addend: 0x0, symName: __ZNSt3__16chronoltB7v160006IxNS_5ratioILl1ELl1000000000EEExS3_EEbRKNS0_8durationIT_T0_EERKNS4_IT1_T2_EE, symObjAddr: 0x7A98, symBinAddr: 0x100011CF4, symSize: 0x34 }
  - { offsetInCU: 0x1005F, offset: 0x2596D, size: 0x8, addend: 0x0, symName: __ZNSt3__16chronoleB7v160006INS0_12steady_clockENS0_8durationIxNS_5ratioILl1ELl1000000000EEEEES6_EEbRKNS0_10time_pointIT_T0_EERKNS7_IS8_T1_EE, symObjAddr: 0x3F088, symBinAddr: 0x10004720C, symSize: 0x34 }
  - { offsetInCU: 0x100F4, offset: 0x25A02, size: 0x8, addend: 0x0, symName: __ZNSt3__16chronomiB7v160006INS0_12steady_clockENS0_8durationIxNS_5ratioILl1ELl1000000000EEEEES6_EENS_11common_typeIJT0_T1_EE4typeERKNS0_10time_pointIT_S8_EERKNSC_ISD_S9_EE, symObjAddr: 0x3F64C, symBinAddr: 0x1000477D0, symSize: 0x58 }
  - { offsetInCU: 0x10149, offset: 0x25A57, size: 0x8, addend: 0x0, symName: __ZNSt3__16chronoleB7v160006IxNS_5ratioILl1ELl1000000000EEExS3_EEbRKNS0_8durationIT_T0_EERKNS4_IT1_T2_EE, symObjAddr: 0x3F6A4, symBinAddr: 0x100047828, symSize: 0x34 }
  - { offsetInCU: 0x101AA, offset: 0x25AB8, size: 0x8, addend: 0x0, symName: __ZNSt3__16chrono13duration_castB7v160006INS0_8durationIxNS_5ratioILl1ELl1000000000EEEEExNS3_ILl1ELl1EEEEENS_9enable_ifIXsr13__is_durationIT_EE5valueES8_E4typeERKNS2_IT0_T1_EE, symObjAddr: 0x3FAFC, symBinAddr: 0x100047C80, symSize: 0x30 }
  - { offsetInCU: 0x101F1, offset: 0x25AFF, size: 0x8, addend: 0x0, symName: __ZNSt3__16chronogeB7v160006INS0_12steady_clockENS0_8durationIxNS_5ratioILl1ELl1000000000EEEEES6_EEbRKNS0_10time_pointIT_T0_EERKNS7_IS8_T1_EE, symObjAddr: 0x660F8, symBinAddr: 0x10006DEAC, symSize: 0x34 }
  - { offsetInCU: 0x10246, offset: 0x25B54, size: 0x8, addend: 0x0, symName: __ZNSt3__16chronoeqB7v160006INS0_12steady_clockENS0_8durationIxNS_5ratioILl1ELl1000000000EEEEES6_EEbRKNS0_10time_pointIT_T0_EERKNS7_IS8_T1_EE, symObjAddr: 0x6612C, symBinAddr: 0x10006DEE0, symSize: 0x54 }
  - { offsetInCU: 0x1029B, offset: 0x25BA9, size: 0x8, addend: 0x0, symName: __ZNSt3__16chronoeqB7v160006IxNS_5ratioILl1ELl1000000000EEExS3_EEbRKNS0_8durationIT_T0_EERKNS4_IT1_T2_EE, symObjAddr: 0x66268, symBinAddr: 0x10006E01C, symSize: 0x34 }
  - { offsetInCU: 0x10339, offset: 0x25C47, size: 0x8, addend: 0x0, symName: __ZNSt3__16chronogeB7v160006IxNS_5ratioILl1ELl1000000000EEExNS2_ILl1ELl1EEEEEbRKNS0_8durationIT_T0_EERKNS5_IT1_T2_EE, symObjAddr: 0x71D94, symBinAddr: 0x100079B48, symSize: 0x34 }
  - { offsetInCU: 0x1039A, offset: 0x25CA8, size: 0x8, addend: 0x0, symName: __ZNSt3__16chronoltB7v160006IxNS_5ratioILl1ELl1000000000EEExNS2_ILl1ELl1EEEEEbRKNS0_8durationIT_T0_EERKNS5_IT1_T2_EE, symObjAddr: 0x71DC8, symBinAddr: 0x100079B7C, symSize: 0x34 }
  - { offsetInCU: 0x103FB, offset: 0x25D09, size: 0x8, addend: 0x0, symName: __ZNSt3__16chronogtB7v160006IxNS_5ratioILl1ELl1000000000EEExS3_EEbRKNS0_8durationIT_T0_EERKNS4_IT1_T2_EE, symObjAddr: 0x7C3B8, symBinAddr: 0x10008416C, symSize: 0x30 }
  - { offsetInCU: 0x1045C, offset: 0x25D6A, size: 0x8, addend: 0x0, symName: __ZNSt3__16chrono13duration_castB7v160006INS0_8durationIxNS_5ratioILl1ELl1000000000EEEEExNS3_ILl1ELl1000EEEEENS_9enable_ifIXsr13__is_durationIT_EE5valueES8_E4typeERKNS2_IT0_T1_EE, symObjAddr: 0x7C520, symBinAddr: 0x1000842D4, symSize: 0x30 }
  - { offsetInCU: 0x11AD8, offset: 0x273E6, size: 0x8, addend: 0x0, symName: __ZNSt3__1L19piecewise_constructE, symObjAddr: 0xC756F, symBinAddr: 0x100101447, symSize: 0x0 }
  - { offsetInCU: 0x17C6D, offset: 0x2D57B, size: 0x8, addend: 0x0, symName: '__ZNSt3__110__function10__not_nullB7v160006IZN4crow10TaggedRuleIJEEclIZ4mainE3$_0EEvOT_EUlRNS2_7requestERNS2_8responseEE_EEbRKS7_', symObjAddr: 0x1A7B0, symBinAddr: 0x100023A04, symSize: 0x18 }
  - { offsetInCU: 0x17C9E, offset: 0x2D5AC, size: 0x8, addend: 0x0, symName: __ZNSt3__110__function10__not_nullB7v160006IFNS_12basic_stringIcNS_11char_traitsIcEENS_9allocatorIcEEEERKS7_EEEbPT_, symObjAddr: 0x30770, symBinAddr: 0x100038E98, symSize: 0x20 }
  - { offsetInCU: 0x17CD4, offset: 0x2D5E2, size: 0x8, addend: 0x0, symName: '__ZNSt3__110__function10__not_nullB7v160006IZN4crow10TaggedRuleIJEEclIZ4mainE3$_1EEvOT_EUlRNS2_7requestERNS2_8responseEE_EEbRKS7_', symObjAddr: 0x37DFC, symBinAddr: 0x10004000C, symSize: 0x18 }
  - { offsetInCU: 0x17D06, offset: 0x2D614, size: 0x8, addend: 0x0, symName: '__ZNSt3__110__function10__not_nullB7v160006IZN4crow10TaggedRuleIJEEclIZ4mainE3$_2EEvOT_EUlRNS2_7requestERNS2_8responseEE_EEbRKS7_', symObjAddr: 0x399E8, symBinAddr: 0x100041BF8, symSize: 0x18 }
  - { offsetInCU: 0x17D38, offset: 0x2D646, size: 0x8, addend: 0x0, symName: '__ZNSt3__110__function10__not_nullB7v160006IZN4crow10TaggedRuleIJEEclIZ4mainE3$_3EEvOT_EUlRNS2_7requestERNS2_8responseEE_EEbRKS7_', symObjAddr: 0x3B588, symBinAddr: 0x100043798, symSize: 0x18 }
  - { offsetInCU: 0x17D6A, offset: 0x2D678, size: 0x8, addend: 0x0, symName: '__ZNSt3__110__function10__not_nullB7v160006IZN4crow10TaggedRuleIJEEclIZ4mainE3$_4EEvOT_EUlRNS2_7requestERNS2_8responseEE_EEbRKS7_', symObjAddr: 0x3D3D8, symBinAddr: 0x10004555C, symSize: 0x18 }
  - { offsetInCU: 0x17D9C, offset: 0x2D6AA, size: 0x8, addend: 0x0, symName: '__ZNSt3__110__function10__not_nullB7v160006IZN4crow10TaggedRuleIJEEclIZ4mainE3$_5EEvOT_EUlRNS2_7requestERNS2_8responseEE_EEbRKS7_', symObjAddr: 0x4038C, symBinAddr: 0x100048510, symSize: 0x18 }
  - { offsetInCU: 0x17DCD, offset: 0x2D6DB, size: 0x8, addend: 0x0, symName: __ZNSt3__110__function10__not_nullB7v160006IZN4crow10TaggedRuleIJNS_12basic_stringIcNS_11char_traitsIcEENS_9allocatorIcEEEEEEclIZNS2_4CrowIJEE8validateEvEUlRNS2_8responseES9_E_EEvOT_EUlRNS2_7requestESF_S9_E_EEbRKSH_, symObjAddr: 0x44874, symBinAddr: 0x10004C628, symSize: 0x18 }
  - { offsetInCU: 0x17DFE, offset: 0x2D70C, size: 0x8, addend: 0x0, symName: __ZNSt3__110__function10__not_nullB7v160006IZN4crow10TaggedRuleIJNS_12basic_stringIcNS_11char_traitsIcEENS_9allocatorIcEEEEEEclIZNS2_4CrowIJEE8validateEvEUlRNS2_8responseES9_E0_EEvOT_EUlRNS2_7requestESF_S9_E_EEbRKSH_, symObjAddr: 0x47E78, symBinAddr: 0x10004FC2C, symSize: 0x18 }
  - { offsetInCU: 0x17E2F, offset: 0x2D73D, size: 0x8, addend: 0x0, symName: __ZNSt3__110__function10__not_nullB7v160006IZZN4crow6ServerINS2_4CrowIJEEENS2_13SocketAdaptorEJEE3runEvENKUlvE_clEvEUlvE0_EEbRKT_, symObjAddr: 0x70500, symBinAddr: 0x1000782B4, symSize: 0x18 }
  - { offsetInCU: 0x17E60, offset: 0x2D76E, size: 0x8, addend: 0x0, symName: __ZNSt3__110__function10__not_nullB7v160006IZN4crow10ConnectionINS2_13SocketAdaptorENS2_4CrowIJEEEJEE14start_deadlineEvEUlvE_EEbRKT_, symObjAddr: 0x8993C, symBinAddr: 0x1000916F0, symSize: 0x18 }
  - { offsetInCU: 0x17E91, offset: 0x2D79F, size: 0x8, addend: 0x0, symName: __ZNSt3__110__function10__not_nullB7v160006IZN4crow10ConnectionINS2_13SocketAdaptorENS2_4CrowIJEEEJEE6handleEvEUlvE_EEbRKT_, symObjAddr: 0xB4478, symBinAddr: 0x1000BC22C, symSize: 0x18 }
  - { offsetInCU: 0x17EC2, offset: 0x2D7D0, size: 0x8, addend: 0x0, symName: __ZNSt3__110__function10__not_nullB7v160006IZN4crow10ConnectionINS2_13SocketAdaptorENS2_4CrowIJEEEJEE6handleEvEUlvE0_EEbRKT_, symObjAddr: 0xB6468, symBinAddr: 0x1000BE21C, symSize: 0x18 }
  - { offsetInCU: 0x2B5F4, offset: 0x40F02, size: 0x8, addend: 0x0, symName: __ZNSt3__112placeholdersL2_1E, symObjAddr: 0xC89A5, symBinAddr: 0x10010287D, symSize: 0x0 }
  - { offsetInCU: 0x52925, offset: 0x68233, size: 0x8, addend: 0x0, symName: __ZNSt3__16copy_nB7v160006IPKcmPcEENS_9enable_ifIXsr33__is_cpp17_random_access_iteratorIT_EE5valueET1_E4typeES5_T0_S6_, symObjAddr: 0x151AC, symBinAddr: 0x10001E6C8, symSize: 0x44 }
  - { offsetInCU: 0x52FFB, offset: 0x68909, size: 0x8, addend: 0x0, symName: __ZNSt3__17advanceB7v160006IPNS_10unique_ptrIN4crow8BaseRuleENS_14default_deleteIS3_EEEEllvEEvRT_T0_, symObjAddr: 0x19DF8, symBinAddr: 0x100023060, symSize: 0x50 }
  - { offsetInCU: 0x5327B, offset: 0x68B89, size: 0x8, addend: 0x0, symName: __ZNSt3__17advanceB7v160006INS_16reverse_iteratorIPNS_10unique_ptrIN4crow8BaseRuleENS_14default_deleteIS4_EEEEEEllvEEvRT_T0_, symObjAddr: 0x1A1F0, symBinAddr: 0x100023444, symSize: 0x50 }
  - { offsetInCU: 0x54235, offset: 0x69B43, size: 0x8, addend: 0x0, symName: __ZNSt3__124__put_character_sequenceB7v160006IcNS_11char_traitsIcEEEERNS_13basic_ostreamIT_T0_EES7_PKS4_m, symObjAddr: 0x1E5C4, symBinAddr: 0x10002759C, symSize: 0x1EC }
  - { offsetInCU: 0x549AB, offset: 0x6A2B9, size: 0x8, addend: 0x0, symName: __ZNSt3__17advanceB7v160006IPNS_12basic_stringIcNS_11char_traitsIcEENS_9allocatorIcEEEEllvEEvRT_T0_, symObjAddr: 0x23EDC, symBinAddr: 0x10002C8B0, symSize: 0x50 }
  - { offsetInCU: 0x54C2B, offset: 0x6A539, size: 0x8, addend: 0x0, symName: __ZNSt3__17advanceB7v160006INS_16reverse_iteratorIPNS_12basic_stringIcNS_11char_traitsIcEENS_9allocatorIcEEEEEEllvEEvRT_T0_, symObjAddr: 0x242C8, symBinAddr: 0x10002CC9C, symSize: 0x50 }
  - { offsetInCU: 0x54FC8, offset: 0x6A8D6, size: 0x8, addend: 0x0, symName: __ZNSt3__17advanceB7v160006IPN4crow4json6wvalueEllvEEvRT_T0_, symObjAddr: 0x273B8, symBinAddr: 0x10002FD8C, symSize: 0x50 }
  - { offsetInCU: 0x55248, offset: 0x6AB56, size: 0x8, addend: 0x0, symName: __ZNSt3__17advanceB7v160006INS_16reverse_iteratorIPN4crow4json6wvalueEEEllvEEvRT_T0_, symObjAddr: 0x277A4, symBinAddr: 0x100030178, symSize: 0x50 }
  - { offsetInCU: 0x55611, offset: 0x6AF1F, size: 0x8, addend: 0x0, symName: __ZNSt3__17advanceB7v160006IPNS_4pairIiiEEllvEEvRT_T0_, symObjAddr: 0x2BC48, symBinAddr: 0x100034570, symSize: 0x50 }
  - { offsetInCU: 0x55891, offset: 0x6B19F, size: 0x8, addend: 0x0, symName: __ZNSt3__17advanceB7v160006INS_16reverse_iteratorIPNS_4pairIiiEEEEllvEEvRT_T0_, symObjAddr: 0x2C088, symBinAddr: 0x1000349B0, symSize: 0x50 }
  - { offsetInCU: 0x5EC97, offset: 0x745A5, size: 0x8, addend: 0x0, symName: __ZNSt3__17advanceB7v160006IPN4crow4Trie4NodeEllvEEvRT_T0_, symObjAddr: 0x4E088, symBinAddr: 0x100055E3C, symSize: 0x50 }
  - { offsetInCU: 0x5EF17, offset: 0x74825, size: 0x8, addend: 0x0, symName: __ZNSt3__17advanceB7v160006INS_16reverse_iteratorIPN4crow4Trie4NodeEEEllvEEvRT_T0_, symObjAddr: 0x4E46C, symBinAddr: 0x100056220, symSize: 0x50 }
  - { offsetInCU: 0x5EF82, offset: 0x74890, size: 0x8, addend: 0x0, symName: __ZNSt3__17advanceB7v160006INS_11__wrap_iterIPKiEEllvEEvRT_T0_, symObjAddr: 0x4EDA0, symBinAddr: 0x100056B54, symSize: 0x50 }
  - { offsetInCU: 0x5F14B, offset: 0x74A59, size: 0x8, addend: 0x0, symName: __ZNSt3__17advanceB7v160006IPillvEEvRT_T0_, symObjAddr: 0x4F89C, symBinAddr: 0x100057650, symSize: 0x50 }
  - { offsetInCU: 0x5F5B5, offset: 0x74EC3, size: 0x8, addend: 0x0, symName: __ZNSt3__17advanceB7v160006IPPN4crow9BlueprintEllvEEvRT_T0_, symObjAddr: 0x5182C, symBinAddr: 0x1000595E0, symSize: 0x50 }
  - { offsetInCU: 0x5F83C, offset: 0x7514A, size: 0x8, addend: 0x0, symName: __ZNSt3__117__cxx_atomic_loadB7v160006IlEET_PKNS_22__cxx_atomic_base_implIS1_EENS_12memory_orderE, symObjAddr: 0x58A88, symBinAddr: 0x10006083C, symSize: 0x80 }
  - { offsetInCU: 0x5FEA1, offset: 0x757AF, size: 0x8, addend: 0x0, symName: __ZNSt3__17advanceB7v160006IPNS_10unique_ptrIN4asio10io_contextENS_14default_deleteIS3_EEEEllvEEvRT_T0_, symObjAddr: 0x6A104, symBinAddr: 0x100071EB8, symSize: 0x50 }
  - { offsetInCU: 0x60121, offset: 0x75A2F, size: 0x8, addend: 0x0, symName: __ZNSt3__17advanceB7v160006INS_16reverse_iteratorIPNS_10unique_ptrIN4asio10io_contextENS_14default_deleteIS4_EEEEEEllvEEvRT_T0_, symObjAddr: 0x6A4E8, symBinAddr: 0x10007229C, symSize: 0x50 }
  - { offsetInCU: 0x604EA, offset: 0x75DF8, size: 0x8, addend: 0x0, symName: __ZNSt3__17advanceB7v160006IPNS_8functionIFNS_12basic_stringIcNS_11char_traitsIcEENS_9allocatorIcEEEEvEEEllvEEvRT_T0_, symObjAddr: 0x6BB04, symBinAddr: 0x1000738B8, symSize: 0x50 }
  - { offsetInCU: 0x6076A, offset: 0x76078, size: 0x8, addend: 0x0, symName: __ZNSt3__17advanceB7v160006INS_16reverse_iteratorIPNS_8functionIFNS_12basic_stringIcNS_11char_traitsIcEENS_9allocatorIcEEEEvEEEEEllvEEvRT_T0_, symObjAddr: 0x6BEE8, symBinAddr: 0x100073C9C, symSize: 0x50 }
  - { offsetInCU: 0x622D5, offset: 0x77BE3, size: 0x8, addend: 0x0, symName: __ZNSt3__17advanceB7v160006IPNS_6futureIvEEllvEEvRT_T0_, symObjAddr: 0x6ECF8, symBinAddr: 0x100076AAC, symSize: 0x50 }
  - { offsetInCU: 0x62555, offset: 0x77E63, size: 0x8, addend: 0x0, symName: __ZNSt3__17advanceB7v160006INS_16reverse_iteratorIPNS_6futureIvEEEEllvEEvRT_T0_, symObjAddr: 0x6F14C, symBinAddr: 0x100076F00, symSize: 0x50 }
  - { offsetInCU: 0x625C0, offset: 0x77ECE, size: 0x8, addend: 0x0, symName: __ZNSt3__15asyncB7v160006IZN4crow6ServerINS1_4CrowIJEEENS1_13SocketAdaptorEJEE3runEvEUlvE_JEEENS_6futureINS_11__invoke_ofINS_5decayIT_E4typeEJDpNSA_IT0_E4typeEEE4typeEEENS_6launchEOSB_DpOSE_, symObjAddr: 0x68608, symBinAddr: 0x1000703BC, symSize: 0x13C }
  - { offsetInCU: 0x6667B, offset: 0x7BF89, size: 0x8, addend: 0x0, symName: __ZNSt3__117__cxx_atomic_loadB7v160006IiEET_PKNS_22__cxx_atomic_base_implIS1_EENS_12memory_orderE, symObjAddr: 0x81104, symBinAddr: 0x100088EB8, symSize: 0x80 }
  - { offsetInCU: 0x666DA, offset: 0x7BFE8, size: 0x8, addend: 0x0, symName: __ZNSt3__117__cxx_atomic_loadB7v160006IjEET_PKNS_22__cxx_atomic_base_implIS1_EENS_12memory_orderE, symObjAddr: 0x815E0, symBinAddr: 0x100089394, symSize: 0x80 }
  - { offsetInCU: 0x6805A, offset: 0x7D968, size: 0x8, addend: 0x0, symName: __ZNSt3__17advanceB7v160006IPtllvEEvRT_T0_, symObjAddr: 0x983B0, symBinAddr: 0x1000A0164, symSize: 0x50 }
  - { offsetInCU: 0x684F0, offset: 0x7DDFE, size: 0x8, addend: 0x0, symName: __ZNSt3__17advanceB7v160006IPxllvEEvRT_T0_, symObjAddr: 0x9930C, symBinAddr: 0x1000A10C0, symSize: 0x50 }
  - { offsetInCU: 0x68986, offset: 0x7E294, size: 0x8, addend: 0x0, symName: __ZNSt3__17advanceB7v160006IPyllvEEvRT_T0_, symObjAddr: 0x9A0B8, symBinAddr: 0x1000A1E6C, symSize: 0x50 }
  - { offsetInCU: 0x68DF0, offset: 0x7E6FE, size: 0x8, addend: 0x0, symName: __ZNSt3__17advanceB7v160006IPdllvEEvRT_T0_, symObjAddr: 0x9AE64, symBinAddr: 0x1000A2C18, symSize: 0x50 }
  - { offsetInCU: 0x69715, offset: 0x7F023, size: 0x8, addend: 0x0, symName: __ZNSt3__17advanceB7v160006IPN4asio12const_bufferEllvEEvRT_T0_, symObjAddr: 0xACA00, symBinAddr: 0x1000B47B4, symSize: 0x50 }
  - { offsetInCU: 0x69780, offset: 0x7F08E, size: 0x8, addend: 0x0, symName: __ZNSt3__17advanceB7v160006INS_11__wrap_iterIPKN4asio12const_bufferEEEmmvEEvRT_T0_, symObjAddr: 0xACDB8, symBinAddr: 0x1000B4B6C, symSize: 0x50 }
  - { offsetInCU: 0x6CF2D, offset: 0x8283B, size: 0x8, addend: 0x0, symName: __ZNSt3__118__debug_db_erase_cB7v160006INS_6vectorINS_12basic_stringIcNS_11char_traitsIcEENS_9allocatorIcEEEENS5_IS7_EEEEEEvPT_, symObjAddr: 0x38A8, symBinAddr: 0x10000E5FC, symSize: 0x10 }
  - { offsetInCU: 0x6CF61, offset: 0x8286F, size: 0x8, addend: 0x0, symName: __ZNSt3__112__to_addressB7v160006INS_12basic_stringIcNS_11char_traitsIcEENS_9allocatorIcEEEEEEPT_S8_, symObjAddr: 0x39EC, symBinAddr: 0x10000E740, symSize: 0x14 }
  - { offsetInCU: 0x6CF97, offset: 0x828A5, size: 0x8, addend: 0x0, symName: __ZNSt3__110destroy_atB7v160006INS_12basic_stringIcNS_11char_traitsIcEENS_9allocatorIcEEEELi0EEEvPT_, symObjAddr: 0x3AB4, symBinAddr: 0x10000E808, symSize: 0x24 }
  - { offsetInCU: 0x6CFD2, offset: 0x828E0, size: 0x8, addend: 0x0, symName: __ZNSt3__112__destroy_atB7v160006INS_12basic_stringIcNS_11char_traitsIcEENS_9allocatorIcEEEELi0EEEvPT_, symObjAddr: 0x3AD8, symBinAddr: 0x10000E82C, symSize: 0x24 }
  - { offsetInCU: 0x6D00D, offset: 0x8291B, size: 0x8, addend: 0x0, symName: __ZNSt3__119__debug_db_insert_cB7v160006INS_6vectorI12DockerConfigNS_9allocatorIS2_EEEEEEvPT_, symObjAddr: 0x3D94, symBinAddr: 0x10000E9C0, symSize: 0x10 }
  - { offsetInCU: 0x6D042, offset: 0x82950, size: 0x8, addend: 0x0, symName: __ZNSt3__118__debug_db_erase_cB7v160006INS_6vectorI12DockerConfigNS_9allocatorIS2_EEEEEEvPT_, symObjAddr: 0x4944, symBinAddr: 0x10000F480, symSize: 0x10 }
  - { offsetInCU: 0x6D077, offset: 0x82985, size: 0x8, addend: 0x0, symName: __ZNSt3__118__debug_db_erase_cB7v160006INS_6vectorIPN4crow9websocket10connectionENS_9allocatorIS5_EEEEEEvPT_, symObjAddr: 0x562C, symBinAddr: 0x10000F89C, symSize: 0x10 }
  - { offsetInCU: 0x6D0AB, offset: 0x829B9, size: 0x8, addend: 0x0, symName: __ZNSt3__112__to_addressB7v160006IPN4crow9websocket10connectionEEEPT_S6_, symObjAddr: 0x5770, symBinAddr: 0x10000F9E0, symSize: 0x14 }
  - { offsetInCU: 0x6D0E1, offset: 0x829EF, size: 0x8, addend: 0x0, symName: __ZNSt3__110destroy_atB7v160006IPN4crow9websocket10connectionELi0EEEvPT_, symObjAddr: 0x5838, symBinAddr: 0x10000FAA8, symSize: 0x24 }
  - { offsetInCU: 0x6D11C, offset: 0x82A2A, size: 0x8, addend: 0x0, symName: __ZNSt3__112__destroy_atB7v160006IPN4crow9websocket10connectionELi0EEEvPT_, symObjAddr: 0x585C, symBinAddr: 0x10000FACC, symSize: 0x10 }
  - { offsetInCU: 0x6D157, offset: 0x82A65, size: 0x8, addend: 0x0, symName: __ZNSt3__118__debug_db_erase_cB7v160006INS_6vectorIiNS_9allocatorIiEEEEEEvPT_, symObjAddr: 0x5B30, symBinAddr: 0x10000FDA0, symSize: 0x10 }
  - { offsetInCU: 0x6D18B, offset: 0x82A99, size: 0x8, addend: 0x0, symName: __ZNSt3__112__to_addressB7v160006IiEEPT_S2_, symObjAddr: 0x5C74, symBinAddr: 0x10000FEE4, symSize: 0x14 }
  - { offsetInCU: 0x6D1C1, offset: 0x82ACF, size: 0x8, addend: 0x0, symName: __ZNSt3__110destroy_atB7v160006IiLi0EEEvPT_, symObjAddr: 0x5D3C, symBinAddr: 0x10000FFAC, symSize: 0x24 }
  - { offsetInCU: 0x6D1FC, offset: 0x82B0A, size: 0x8, addend: 0x0, symName: __ZNSt3__112__destroy_atB7v160006IiLi0EEEvPT_, symObjAddr: 0x5D60, symBinAddr: 0x10000FFD0, symSize: 0x10 }
  - { offsetInCU: 0x6D237, offset: 0x82B45, size: 0x8, addend: 0x0, symName: __ZNSt3__118__debug_db_erase_cB7v160006INS_6vectorINS_6atomicIjEENS_9allocatorIS3_EEEEEEvPT_, symObjAddr: 0x63E0, symBinAddr: 0x100010650, symSize: 0x10 }
  - { offsetInCU: 0x6D26B, offset: 0x82B79, size: 0x8, addend: 0x0, symName: __ZNSt3__112__to_addressB7v160006INS_6atomicIjEEEEPT_S4_, symObjAddr: 0x6524, symBinAddr: 0x100010794, symSize: 0x14 }
  - { offsetInCU: 0x6D2A1, offset: 0x82BAF, size: 0x8, addend: 0x0, symName: __ZNSt3__110destroy_atB7v160006INS_6atomicIjEELi0EEEvPT_, symObjAddr: 0x65EC, symBinAddr: 0x10001085C, symSize: 0x24 }
  - { offsetInCU: 0x6D2DC, offset: 0x82BEA, size: 0x8, addend: 0x0, symName: __ZNSt3__112__destroy_atB7v160006INS_6atomicIjEELi0EEEvPT_, symObjAddr: 0x6610, symBinAddr: 0x100010880, symSize: 0x10 }
  - { offsetInCU: 0x6D34D, offset: 0x82C5B, size: 0x8, addend: 0x0, symName: __ZNSt3__112__to_addressB7v160006IN4asio6detail11timer_queueINS2_18chrono_time_traitsINS_6chrono12steady_clockENS1_11wait_traitsIS6_EEEEE10heap_entryEEEPT_SD_, symObjAddr: 0x78DC, symBinAddr: 0x100011B38, symSize: 0x14 }
  - { offsetInCU: 0x6D383, offset: 0x82C91, size: 0x8, addend: 0x0, symName: __ZNSt3__110destroy_atB7v160006IN4asio6detail11timer_queueINS2_18chrono_time_traitsINS_6chrono12steady_clockENS1_11wait_traitsIS6_EEEEE10heap_entryELi0EEEvPT_, symObjAddr: 0x78F0, symBinAddr: 0x100011B4C, symSize: 0x24 }
  - { offsetInCU: 0x6D3BE, offset: 0x82CCC, size: 0x8, addend: 0x0, symName: __ZNSt3__112__destroy_atB7v160006IN4asio6detail11timer_queueINS2_18chrono_time_traitsINS_6chrono12steady_clockENS1_11wait_traitsIS6_EEEEE10heap_entryELi0EEEvPT_, symObjAddr: 0x7914, symBinAddr: 0x100011B70, symSize: 0x10 }
  - { offsetInCU: 0x6D3F8, offset: 0x82D06, size: 0x8, addend: 0x0, symName: __ZNSt3__1eqB7v160006ERKNS_10error_codeES2_, symObjAddr: 0x9610, symBinAddr: 0x100013864, symSize: 0x84 }
  - { offsetInCU: 0x6D436, offset: 0x82D44, size: 0x8, addend: 0x0, symName: __ZNSt3__118__debug_db_erase_cB7v160006INS_6vectorINS_8functionIFNS_12basic_stringIcNS_11char_traitsIcEENS_9allocatorIcEEEEvEEENS6_ISA_EEEEEEvPT_, symObjAddr: 0x9BE0, symBinAddr: 0x100013E34, symSize: 0x10 }
  - { offsetInCU: 0x6D46A, offset: 0x82D78, size: 0x8, addend: 0x0, symName: __ZNSt3__112__to_addressB7v160006INS_8functionIFNS_12basic_stringIcNS_11char_traitsIcEENS_9allocatorIcEEEEvEEEEEPT_SB_, symObjAddr: 0x9D24, symBinAddr: 0x100013F78, symSize: 0x14 }
  - { offsetInCU: 0x6D4A0, offset: 0x82DAE, size: 0x8, addend: 0x0, symName: __ZNSt3__110destroy_atB7v160006INS_8functionIFNS_12basic_stringIcNS_11char_traitsIcEENS_9allocatorIcEEEEvEEELi0EEEvPT_, symObjAddr: 0x9DEC, symBinAddr: 0x100014040, symSize: 0x24 }
  - { offsetInCU: 0x6D4DB, offset: 0x82DE9, size: 0x8, addend: 0x0, symName: __ZNSt3__112__destroy_atB7v160006INS_8functionIFNS_12basic_stringIcNS_11char_traitsIcEENS_9allocatorIcEEEEvEEELi0EEEvPT_, symObjAddr: 0x9E10, symBinAddr: 0x100014064, symSize: 0x24 }
  - { offsetInCU: 0x6D516, offset: 0x82E24, size: 0x8, addend: 0x0, symName: __ZNSt3__118__debug_db_erase_cB7v160006INS_6vectorIPN4crow6detail10task_timerENS_9allocatorIS5_EEEEEEvPT_, symObjAddr: 0xA20C, symBinAddr: 0x100014460, symSize: 0x10 }
  - { offsetInCU: 0x6D54A, offset: 0x82E58, size: 0x8, addend: 0x0, symName: __ZNSt3__112__to_addressB7v160006IPN4crow6detail10task_timerEEEPT_S6_, symObjAddr: 0xA350, symBinAddr: 0x1000145A4, symSize: 0x14 }
  - { offsetInCU: 0x6D580, offset: 0x82E8E, size: 0x8, addend: 0x0, symName: __ZNSt3__110destroy_atB7v160006IPN4crow6detail10task_timerELi0EEEvPT_, symObjAddr: 0xA418, symBinAddr: 0x10001466C, symSize: 0x24 }
  - { offsetInCU: 0x6D5BB, offset: 0x82EC9, size: 0x8, addend: 0x0, symName: __ZNSt3__112__destroy_atB7v160006IPN4crow6detail10task_timerELi0EEEvPT_, symObjAddr: 0xA43C, symBinAddr: 0x100014690, symSize: 0x10 }
  - { offsetInCU: 0x6D5F6, offset: 0x82F04, size: 0x8, addend: 0x0, symName: __ZNSt3__118__debug_db_erase_cB7v160006INS_6vectorINS_10unique_ptrIN4asio10io_contextENS_14default_deleteIS4_EEEENS_9allocatorIS7_EEEEEEvPT_, symObjAddr: 0xA710, symBinAddr: 0x100014964, symSize: 0x10 }
  - { offsetInCU: 0x6D62A, offset: 0x82F38, size: 0x8, addend: 0x0, symName: __ZNSt3__112__to_addressB7v160006INS_10unique_ptrIN4asio10io_contextENS_14default_deleteIS3_EEEEEEPT_S8_, symObjAddr: 0xA854, symBinAddr: 0x100014AA8, symSize: 0x14 }
  - { offsetInCU: 0x6D660, offset: 0x82F6E, size: 0x8, addend: 0x0, symName: __ZNSt3__110destroy_atB7v160006INS_10unique_ptrIN4asio10io_contextENS_14default_deleteIS3_EEEELi0EEEvPT_, symObjAddr: 0xA91C, symBinAddr: 0x100014B70, symSize: 0x24 }
  - { offsetInCU: 0x6D69B, offset: 0x82FA9, size: 0x8, addend: 0x0, symName: __ZNSt3__112__destroy_atB7v160006INS_10unique_ptrIN4asio10io_contextENS_14default_deleteIS3_EEEELi0EEEvPT_, symObjAddr: 0xA940, symBinAddr: 0x100014B94, symSize: 0x24 }
  - { offsetInCU: 0x6D6D6, offset: 0x82FE4, size: 0x8, addend: 0x0, symName: __ZNSt3__118__debug_db_erase_cB7v160006INS_6vectorIPN4crow9BlueprintENS_9allocatorIS4_EEEEEEvPT_, symObjAddr: 0xB288, symBinAddr: 0x1000154DC, symSize: 0x10 }
  - { offsetInCU: 0x6D70A, offset: 0x83018, size: 0x8, addend: 0x0, symName: __ZNSt3__112__to_addressB7v160006IPN4crow9BlueprintEEEPT_S5_, symObjAddr: 0xB3CC, symBinAddr: 0x100015620, symSize: 0x14 }
  - { offsetInCU: 0x6D740, offset: 0x8304E, size: 0x8, addend: 0x0, symName: __ZNSt3__110destroy_atB7v160006IPN4crow9BlueprintELi0EEEvPT_, symObjAddr: 0xB494, symBinAddr: 0x1000156E8, symSize: 0x24 }
  - { offsetInCU: 0x6D77B, offset: 0x83089, size: 0x8, addend: 0x0, symName: __ZNSt3__112__destroy_atB7v160006IPN4crow9BlueprintELi0EEEvPT_, symObjAddr: 0xB4B8, symBinAddr: 0x10001570C, symSize: 0x10 }
  - { offsetInCU: 0x6D7B6, offset: 0x830C4, size: 0x8, addend: 0x0, symName: __ZNSt3__118__debug_db_erase_cB7v160006INS_6vectorINS_10unique_ptrIN4crow8BaseRuleENS_14default_deleteIS4_EEEENS_9allocatorIS7_EEEEEEvPT_, symObjAddr: 0xB78C, symBinAddr: 0x1000159E0, symSize: 0x10 }
  - { offsetInCU: 0x6D7EA, offset: 0x830F8, size: 0x8, addend: 0x0, symName: __ZNSt3__112__to_addressB7v160006INS_10unique_ptrIN4crow8BaseRuleENS_14default_deleteIS3_EEEEEEPT_S8_, symObjAddr: 0xB8D0, symBinAddr: 0x100015B24, symSize: 0x14 }
  - { offsetInCU: 0x6D820, offset: 0x8312E, size: 0x8, addend: 0x0, symName: __ZNSt3__110destroy_atB7v160006INS_10unique_ptrIN4crow8BaseRuleENS_14default_deleteIS3_EEEELi0EEEvPT_, symObjAddr: 0xB998, symBinAddr: 0x100015BEC, symSize: 0x24 }
  - { offsetInCU: 0x6D85B, offset: 0x83169, size: 0x8, addend: 0x0, symName: __ZNSt3__112__destroy_atB7v160006INS_10unique_ptrIN4crow8BaseRuleENS_14default_deleteIS3_EEEELi0EEEvPT_, symObjAddr: 0xB9BC, symBinAddr: 0x100015C10, symSize: 0x24 }
  - { offsetInCU: 0x6D896, offset: 0x831A4, size: 0x8, addend: 0x0, symName: __ZNSt3__118__debug_db_erase_cB7v160006INS_6vectorIN4crow4Trie4NodeENS_9allocatorIS4_EEEEEEvPT_, symObjAddr: 0xC014, symBinAddr: 0x100016268, symSize: 0x10 }
  - { offsetInCU: 0x6D8CA, offset: 0x831D8, size: 0x8, addend: 0x0, symName: __ZNSt3__112__to_addressB7v160006IN4crow4Trie4NodeEEEPT_S5_, symObjAddr: 0xC158, symBinAddr: 0x1000163AC, symSize: 0x14 }
  - { offsetInCU: 0x6D900, offset: 0x8320E, size: 0x8, addend: 0x0, symName: __ZNSt3__110destroy_atB7v160006IN4crow4Trie4NodeELi0EEEvPT_, symObjAddr: 0xC220, symBinAddr: 0x100016474, symSize: 0x24 }
  - { offsetInCU: 0x6D93B, offset: 0x83249, size: 0x8, addend: 0x0, symName: __ZNSt3__112__destroy_atB7v160006IN4crow4Trie4NodeELi0EEEvPT_, symObjAddr: 0xC244, symBinAddr: 0x100016498, symSize: 0x24 }
  - { offsetInCU: 0x6D976, offset: 0x83284, size: 0x8, addend: 0x0, symName: __ZNSt3__118__debug_db_erase_cB7v160006INS_6vectorIPN4crow8BaseRuleENS_9allocatorIS4_EEEEEEvPT_, symObjAddr: 0xC52C, symBinAddr: 0x100016780, symSize: 0x10 }
  - { offsetInCU: 0x6D9AA, offset: 0x832B8, size: 0x8, addend: 0x0, symName: __ZNSt3__112__to_addressB7v160006IPN4crow8BaseRuleEEEPT_S5_, symObjAddr: 0xC670, symBinAddr: 0x1000168C4, symSize: 0x14 }
  - { offsetInCU: 0x6D9E0, offset: 0x832EE, size: 0x8, addend: 0x0, symName: __ZNSt3__110destroy_atB7v160006IPN4crow8BaseRuleELi0EEEvPT_, symObjAddr: 0xC738, symBinAddr: 0x10001698C, symSize: 0x24 }
  - { offsetInCU: 0x6DA1B, offset: 0x83329, size: 0x8, addend: 0x0, symName: __ZNSt3__112__destroy_atB7v160006IPN4crow8BaseRuleELi0EEEvPT_, symObjAddr: 0xC75C, symBinAddr: 0x1000169B0, symSize: 0x10 }
  - { offsetInCU: 0x6DA56, offset: 0x83364, size: 0x8, addend: 0x0, symName: __ZNSt3__118__debug_db_erase_cB7v160006INS_12__hash_tableINS_17__hash_value_typeINS_12basic_stringIcNS_11char_traitsIcEENS_9allocatorIcEEEES8_EENS_22__unordered_map_hasherIS8_S9_NS_4hashIS8_EENS_8equal_toIS8_EELb1EEENS_21__unordered_map_equalIS8_S9_SE_SC_Lb1EEENS6_IS9_EEEEEEvPT_, symObjAddr: 0xCB00, symBinAddr: 0x100016D54, symSize: 0x10 }
  - { offsetInCU: 0x6DABE, offset: 0x833CC, size: 0x8, addend: 0x0, symName: __ZNSt3__110destroy_atB7v160006INS_4pairIKNS_12basic_stringIcNS_11char_traitsIcEENS_9allocatorIcEEEES7_EELi0EEEvPT_, symObjAddr: 0xCC54, symBinAddr: 0x100016EA8, symSize: 0x24 }
  - { offsetInCU: 0x6DAF9, offset: 0x83407, size: 0x8, addend: 0x0, symName: __ZNSt3__112__destroy_atB7v160006INS_4pairIKNS_12basic_stringIcNS_11char_traitsIcEENS_9allocatorIcEEEES7_EELi0EEEvPT_, symObjAddr: 0xCC78, symBinAddr: 0x100016ECC, symSize: 0x24 }
  - { offsetInCU: 0x6DB33, offset: 0x83441, size: 0x8, addend: 0x0, symName: __ZNSt3__17launderB7v160006INS_4pairIKNS_12basic_stringIcNS_11char_traitsIcEENS_9allocatorIcEEEES7_EEEEPT_SB_, symObjAddr: 0xCCC0, symBinAddr: 0x100016F14, symSize: 0x24 }
  - { offsetInCU: 0x6DB6A, offset: 0x83478, size: 0x8, addend: 0x0, symName: __ZNSt3__19__launderB7v160006INS_4pairIKNS_12basic_stringIcNS_11char_traitsIcEENS_9allocatorIcEEEES7_EEEEPT_SB_, symObjAddr: 0xCCE4, symBinAddr: 0x100016F38, symSize: 0x14 }
  - { offsetInCU: 0x6DCBC, offset: 0x835CA, size: 0x8, addend: 0x0, symName: __ZNSt3__122__cxx_atomic_fetch_subB7v160006IlEET_PNS_22__cxx_atomic_base_implIS1_EES1_NS_12memory_orderE, symObjAddr: 0xD8E8, symBinAddr: 0x100017B3C, symSize: 0xD8 }
  - { offsetInCU: 0x6DD12, offset: 0x83620, size: 0x8, addend: 0x0, symName: __ZNSt3__119__debug_db_insert_cB7v160006INS_13unordered_mapINS_12basic_stringIcNS_11char_traitsIcEENS_9allocatorIcEEEES7_NS_4hashIS7_EENS_8equal_toIS7_EENS5_INS_4pairIKS7_S7_EEEEEEEEvPT_, symObjAddr: 0xDDEC, symBinAddr: 0x100018040, symSize: 0x10 }
  - { offsetInCU: 0x6DD46, offset: 0x83654, size: 0x8, addend: 0x0, symName: __ZNSt3__116__constrain_hashB7v160006Emm, symObjAddr: 0xEA40, symBinAddr: 0x100018C94, symSize: 0x98 }
  - { offsetInCU: 0x6DD80, offset: 0x8368E, size: 0x8, addend: 0x0, symName: __ZNSt3__116__is_hash_power2B7v160006Em, symObjAddr: 0xED7C, symBinAddr: 0x100018FA4, symSize: 0x50 }
  - { offsetInCU: 0x6DDAC, offset: 0x836BA, size: 0x8, addend: 0x0, symName: __ZNSt3__116__do_string_hashB7v160006IPKcEEmT_S3_, symObjAddr: 0xEFDC, symBinAddr: 0x100019204, symSize: 0x3C }
  - { offsetInCU: 0x6DDF2, offset: 0x83700, size: 0x8, addend: 0x0, symName: __ZNSt3__110__loadwordB7v160006ImEET_PKv, symObjAddr: 0xFA4C, symBinAddr: 0x100019BF8, symSize: 0x20 }
  - { offsetInCU: 0x6DE35, offset: 0x83743, size: 0x8, addend: 0x0, symName: __ZNSt3__14swapB7v160006ImEENS_9enable_ifIXaasr21is_move_constructibleIT_EE5valuesr18is_move_assignableIS2_EE5valueEvE4typeERS2_S5_, symObjAddr: 0xFC08, symBinAddr: 0x100019DB4, symSize: 0x3C }
  - { offsetInCU: 0x6DE8E, offset: 0x8379C, size: 0x8, addend: 0x0, symName: __ZNSt3__110__loadwordB7v160006IjEET_PKv, symObjAddr: 0xFC98, symBinAddr: 0x100019E44, symSize: 0x20 }
  - { offsetInCU: 0x6DED1, offset: 0x837DF, size: 0x8, addend: 0x0, symName: __ZNSt3__17launderB7v160006IKNS_4pairIKNS_12basic_stringIcNS_11char_traitsIcEENS_9allocatorIcEEEES7_EEEEPT_SC_, symObjAddr: 0x10308, symBinAddr: 0x10001A134, symSize: 0x24 }
  - { offsetInCU: 0x6DF08, offset: 0x83816, size: 0x8, addend: 0x0, symName: __ZNSt3__19__launderB7v160006IKNS_4pairIKNS_12basic_stringIcNS_11char_traitsIcEENS_9allocatorIcEEEES7_EEEEPT_SC_, symObjAddr: 0x1032C, symBinAddr: 0x10001A158, symSize: 0x14 }
  - { offsetInCU: 0x6DF86, offset: 0x83894, size: 0x8, addend: 0x0, symName: __ZNSt3__112construct_atB7v160006INS_4pairIKNS_12basic_stringIcNS_11char_traitsIcEENS_9allocatorIcEEEES7_EEJRKS9_EPS9_EEPT_SE_DpOT0_, symObjAddr: 0x106F4, symBinAddr: 0x10001A43C, symSize: 0x3C }
  - { offsetInCU: 0x6DFFE, offset: 0x8390C, size: 0x8, addend: 0x0, symName: __ZNSt3__116__next_hash_pow2B7v160006Em, symObjAddr: 0x10CA4, symBinAddr: 0x10001A9EC, symSize: 0x6C }
  - { offsetInCU: 0x6E02B, offset: 0x83939, size: 0x8, addend: 0x0, symName: __ZNSt3__125__debug_db_invalidate_allB7v160006INS_12__hash_tableINS_17__hash_value_typeINS_12basic_stringIcNS_11char_traitsIcEENS_9allocatorIcEEEES8_EENS_22__unordered_map_hasherIS8_S9_NS_4hashIS8_EENS_8equal_toIS8_EELb1EEENS_21__unordered_map_equalIS8_S9_SE_SC_Lb1EEENS6_IS9_EEEEEEvPT_, symObjAddr: 0x10D10, symBinAddr: 0x10001AA58, symSize: 0x10 }
  - { offsetInCU: 0x6E05F, offset: 0x8396D, size: 0x8, addend: 0x0, symName: __ZNSt3__112__libcpp_clzB7v160006Em, symObjAddr: 0x10E68, symBinAddr: 0x10001ABB0, symSize: 0x1C }
  - { offsetInCU: 0x6E08F, offset: 0x8399D, size: 0x8, addend: 0x0, symName: __ZNSt3__122__make_exception_guardB7v160006INS_6vectorIPN4crow8BaseRuleENS_9allocatorIS4_EEE16__destroy_vectorEEENS_28__exception_guard_exceptionsIT_EESA_, symObjAddr: 0x11AA4, symBinAddr: 0x10001B5E0, symSize: 0x40 }
  - { offsetInCU: 0x6E0C5, offset: 0x839D3, size: 0x8, addend: 0x0, symName: __ZNSt3__119__debug_db_insert_cB7v160006INS_6vectorIPN4crow8BaseRuleENS_9allocatorIS4_EEEEEEvPT_, symObjAddr: 0x11AE4, symBinAddr: 0x10001B620, symSize: 0x10 }
  - { offsetInCU: 0x6E0F9, offset: 0x83A07, size: 0x8, addend: 0x0, symName: __ZNSt3__119__allocate_at_leastB7v160006INS_9allocatorIPN4crow8BaseRuleEEEEENS_19__allocation_resultINS_16allocator_traitsIT_E7pointerEEERS8_m, symObjAddr: 0x11E4C, symBinAddr: 0x10001B988, symSize: 0x40 }
  - { offsetInCU: 0x6E16B, offset: 0x83A79, size: 0x8, addend: 0x0, symName: __ZNSt3__112construct_atB7v160006IPN4crow8BaseRuleEJEPS3_EEPT_S6_DpOT0_, symObjAddr: 0x122CC, symBinAddr: 0x10001BC88, symSize: 0x20 }
  - { offsetInCU: 0x6E1CE, offset: 0x83ADC, size: 0x8, addend: 0x0, symName: __ZNSt3__119__debug_db_insert_cB7v160006INS_6vectorIN4crow4Trie4NodeENS_9allocatorIS4_EEEEEEvPT_, symObjAddr: 0x1253C, symBinAddr: 0x10001BE80, symSize: 0x10 }
  - { offsetInCU: 0x6E203, offset: 0x83B11, size: 0x8, addend: 0x0, symName: __ZNSt3__119__debug_db_insert_cB7v160006INS_6vectorINS_10unique_ptrIN4crow8BaseRuleENS_14default_deleteIS4_EEEENS_9allocatorIS7_EEEEEEvPT_, symObjAddr: 0x126A8, symBinAddr: 0x10001BFEC, symSize: 0x10 }
  - { offsetInCU: 0x6E238, offset: 0x83B46, size: 0x8, addend: 0x0, symName: __ZNSt3__119__debug_db_insert_cB7v160006INS_6vectorIPN4crow9BlueprintENS_9allocatorIS4_EEEEEEvPT_, symObjAddr: 0x12814, symBinAddr: 0x10001C158, symSize: 0x10 }
  - { offsetInCU: 0x6E26C, offset: 0x83B7A, size: 0x8, addend: 0x0, symName: __ZNSt3__122__make_exception_guardB7v160006INS_6vectorIiNS_9allocatorIiEEE16__destroy_vectorEEENS_28__exception_guard_exceptionsIT_EES7_, symObjAddr: 0x12B9C, symBinAddr: 0x10001C4E0, symSize: 0x40 }
  - { offsetInCU: 0x6E2A2, offset: 0x83BB0, size: 0x8, addend: 0x0, symName: __ZNSt3__119__debug_db_insert_cB7v160006INS_6vectorIiNS_9allocatorIiEEEEEEvPT_, symObjAddr: 0x12BDC, symBinAddr: 0x10001C520, symSize: 0x10 }
  - { offsetInCU: 0x6E2D6, offset: 0x83BE4, size: 0x8, addend: 0x0, symName: __ZNSt3__119__allocate_at_leastB7v160006INS_9allocatorIiEEEENS_19__allocation_resultINS_16allocator_traitsIT_E7pointerEEERS5_m, symObjAddr: 0x12F58, symBinAddr: 0x10001C89C, symSize: 0x40 }
  - { offsetInCU: 0x6E31F, offset: 0x83C2D, size: 0x8, addend: 0x0, symName: __ZNSt3__130__uninitialized_allocator_copyB7v160006INS_9allocatorIiEEiiLPv0EEEPT0_RT_PKS4_S9_S5_, symObjAddr: 0x131C0, symBinAddr: 0x10001CB04, symSize: 0x38 }
  - { offsetInCU: 0x6E398, offset: 0x83CA6, size: 0x8, addend: 0x0, symName: __ZNSt3__14copyB7v160006IPKiPiEET0_T_S5_S4_, symObjAddr: 0x13268, symBinAddr: 0x10001CBAC, symSize: 0x40 }
  - { offsetInCU: 0x6E3FA, offset: 0x83D08, size: 0x8, addend: 0x0, symName: __ZNSt3__16__copyB7v160006INS_17_ClassicAlgPolicyEPKiS3_PiEENS_4pairIT0_T2_EES6_T1_S7_, symObjAddr: 0x132A8, symBinAddr: 0x10001CBEC, symSize: 0x44 }
  - { offsetInCU: 0x6E46E, offset: 0x83D7C, size: 0x8, addend: 0x0, symName: __ZNSt3__123__dispatch_copy_or_moveB7v160006INS_17_ClassicAlgPolicyENS_11__copy_loopIS1_EENS_14__copy_trivialEPKiS6_PiEENS_4pairIT2_T4_EES9_T3_SA_, symObjAddr: 0x132EC, symBinAddr: 0x10001CC30, symSize: 0x44 }
  - { offsetInCU: 0x6E4F4, offset: 0x83E02, size: 0x8, addend: 0x0, symName: __ZNSt3__121__unwrap_and_dispatchB7v160006INS_10__overloadINS_11__copy_loopINS_17_ClassicAlgPolicyEEENS_14__copy_trivialEEEPKiS8_PiLi0EEENS_4pairIT0_T2_EESB_T1_SC_, symObjAddr: 0x13330, symBinAddr: 0x10001CC74, symSize: 0xB4 }
  - { offsetInCU: 0x6E58E, offset: 0x83E9C, size: 0x8, addend: 0x0, symName: __ZNSt3__114__unwrap_rangeB7v160006IPKiS2_EEDaT_T0_, symObjAddr: 0x133E4, symBinAddr: 0x10001CD28, symSize: 0x3C }
  - { offsetInCU: 0x6E76B, offset: 0x84079, size: 0x8, addend: 0x0, symName: __ZNSt3__113__unwrap_iterB7v160006IPiNS_18__unwrap_iter_implIS1_Lb1EEELi0EEEDTclsrT0_8__unwrapclsr3stdE7declvalIT_EEEES5_, symObjAddr: 0x13468, symBinAddr: 0x10001CDAC, symSize: 0x24 }
  - { offsetInCU: 0x6E7B3, offset: 0x840C1, size: 0x8, addend: 0x0, symName: __ZNSt3__19make_pairB7v160006IPKiPiEENS_4pairINS_18__unwrap_ref_decayIT_E4typeENS5_IT0_E4typeEEEOS6_OS9_, symObjAddr: 0x1348C, symBinAddr: 0x10001CDD0, symSize: 0x38 }
  - { offsetInCU: 0x6E802, offset: 0x84110, size: 0x8, addend: 0x0, symName: __ZNSt3__114__rewrap_rangeB7v160006IPKiS2_S2_EET0_S3_T1_, symObjAddr: 0x134C4, symBinAddr: 0x10001CE08, symSize: 0x2C }
  - { offsetInCU: 0x6E85D, offset: 0x8416B, size: 0x8, addend: 0x0, symName: __ZNSt3__113__rewrap_iterB7v160006IPiS1_NS_18__unwrap_iter_implIS1_Lb1EEEEET_S4_T0_, symObjAddr: 0x134F0, symBinAddr: 0x10001CE34, symSize: 0x3C }
  - { offsetInCU: 0x6E9DA, offset: 0x842E8, size: 0x8, addend: 0x0, symName: __ZNSt3__113__unwrap_iterB7v160006IPKiNS_18__unwrap_iter_implIS2_Lb1EEELi0EEEDTclsrT0_8__unwrapclsr3stdE7declvalIT_EEEES6_, symObjAddr: 0x13584, symBinAddr: 0x10001CEC8, symSize: 0x24 }
  - { offsetInCU: 0x6EA7D, offset: 0x8438B, size: 0x8, addend: 0x0, symName: __ZNSt3__112__to_addressB7v160006IKiEEPT_S3_, symObjAddr: 0x13608, symBinAddr: 0x10001CF4C, symSize: 0x14 }
  - { offsetInCU: 0x6EAB2, offset: 0x843C0, size: 0x8, addend: 0x0, symName: __ZNSt3__119__copy_trivial_implB7v160006IKiiEENS_4pairIPT_PT0_EES4_S4_S6_, symObjAddr: 0x13650, symBinAddr: 0x10001CF94, symSize: 0x84 }
  - { offsetInCU: 0x6EB24, offset: 0x84432, size: 0x8, addend: 0x0, symName: __ZNSt3__19make_pairB7v160006IRPKiPiEENS_4pairINS_18__unwrap_ref_decayIT_E4typeENS6_IT0_E4typeEEEOS7_OSA_, symObjAddr: 0x136D4, symBinAddr: 0x10001D018, symSize: 0x38 }
  - { offsetInCU: 0x6EBCE, offset: 0x844DC, size: 0x8, addend: 0x0, symName: __ZNSt3__113__rewrap_iterB7v160006IPKiS2_NS_18__unwrap_iter_implIS2_Lb1EEEEET_S5_T0_, symObjAddr: 0x1383C, symBinAddr: 0x10001D180, symSize: 0x3C }
  - { offsetInCU: 0x6EC2A, offset: 0x84538, size: 0x8, addend: 0x0, symName: __ZNSt3__119__debug_db_insert_cB7v160006INS_6vectorIPN4crow9websocket10connectionENS_9allocatorIS5_EEEEEEvPT_, symObjAddr: 0x13AA4, symBinAddr: 0x10001D3E8, symSize: 0x10 }
  - { offsetInCU: 0x6EC5E, offset: 0x8456C, size: 0x8, addend: 0x0, symName: __ZNSt3__134__libcpp_atomic_refcount_decrementB7v160006IlEET_RS1_, symObjAddr: 0x13C64, symBinAddr: 0x10001D5A8, symSize: 0x30 }
  - { offsetInCU: 0x6EC93, offset: 0x845A1, size: 0x8, addend: 0x0, symName: __ZNSt3__1plB7v160006IcNS_11char_traitsIcEENS_9allocatorIcEEEENS_12basic_stringIT_T0_T1_EEOS9_RKS9_, symObjAddr: 0x147D0, symBinAddr: 0x10001E114, symSize: 0x40 }
  - { offsetInCU: 0x6ECEB, offset: 0x845F9, size: 0x8, addend: 0x0, symName: __ZNSt3__1plB7v160006IcNS_11char_traitsIcEENS_9allocatorIcEEEENS_12basic_stringIT_T0_T1_EERKS9_PKS6_, symObjAddr: 0x14810, symBinAddr: 0x10001E154, symSize: 0x11C }
  - { offsetInCU: 0x6ED8C, offset: 0x8469A, size: 0x8, addend: 0x0, symName: __ZNSt3__112__to_addressB7v160006IcEEPT_S2_, symObjAddr: 0x14A3C, symBinAddr: 0x10001E2E0, symSize: 0x14 }
  - { offsetInCU: 0x6EDC1, offset: 0x846CF, size: 0x8, addend: 0x0, symName: __ZNSt3__14copyB7v160006IPKcPcEET0_T_S5_S4_, symObjAddr: 0x151F0, symBinAddr: 0x10001E70C, symSize: 0x40 }
  - { offsetInCU: 0x6EE23, offset: 0x84731, size: 0x8, addend: 0x0, symName: __ZNSt3__16__copyB7v160006INS_17_ClassicAlgPolicyEPKcS3_PcEENS_4pairIT0_T2_EES6_T1_S7_, symObjAddr: 0x15230, symBinAddr: 0x10001E74C, symSize: 0x44 }
  - { offsetInCU: 0x6EE97, offset: 0x847A5, size: 0x8, addend: 0x0, symName: __ZNSt3__123__dispatch_copy_or_moveB7v160006INS_17_ClassicAlgPolicyENS_11__copy_loopIS1_EENS_14__copy_trivialEPKcS6_PcEENS_4pairIT2_T4_EES9_T3_SA_, symObjAddr: 0x15274, symBinAddr: 0x10001E790, symSize: 0x44 }
  - { offsetInCU: 0x6EF1D, offset: 0x8482B, size: 0x8, addend: 0x0, symName: __ZNSt3__121__unwrap_and_dispatchB7v160006INS_10__overloadINS_11__copy_loopINS_17_ClassicAlgPolicyEEENS_14__copy_trivialEEEPKcS8_PcLi0EEENS_4pairIT0_T2_EESB_T1_SC_, symObjAddr: 0x152B8, symBinAddr: 0x10001E7D4, symSize: 0xB4 }
  - { offsetInCU: 0x6EFB7, offset: 0x848C5, size: 0x8, addend: 0x0, symName: __ZNSt3__114__unwrap_rangeB7v160006IPKcS2_EEDaT_T0_, symObjAddr: 0x1536C, symBinAddr: 0x10001E888, symSize: 0x3C }
  - { offsetInCU: 0x6F10C, offset: 0x84A1A, size: 0x8, addend: 0x0, symName: __ZNSt3__113__unwrap_iterB7v160006IPcNS_18__unwrap_iter_implIS1_Lb1EEELi0EEEDTclsrT0_8__unwrapclsr3stdE7declvalIT_EEEES5_, symObjAddr: 0x153F0, symBinAddr: 0x10001E90C, symSize: 0x24 }
  - { offsetInCU: 0x6F154, offset: 0x84A62, size: 0x8, addend: 0x0, symName: __ZNSt3__19make_pairB7v160006IPKcPcEENS_4pairINS_18__unwrap_ref_decayIT_E4typeENS5_IT0_E4typeEEEOS6_OS9_, symObjAddr: 0x15414, symBinAddr: 0x10001E930, symSize: 0x38 }
  - { offsetInCU: 0x6F1A3, offset: 0x84AB1, size: 0x8, addend: 0x0, symName: __ZNSt3__114__rewrap_rangeB7v160006IPKcS2_S2_EET0_S3_T1_, symObjAddr: 0x1544C, symBinAddr: 0x10001E968, symSize: 0x2C }
  - { offsetInCU: 0x6F1FE, offset: 0x84B0C, size: 0x8, addend: 0x0, symName: __ZNSt3__113__rewrap_iterB7v160006IPcS1_NS_18__unwrap_iter_implIS1_Lb1EEEEET_S4_T0_, symObjAddr: 0x15478, symBinAddr: 0x10001E994, symSize: 0x3C }
  - { offsetInCU: 0x6F37B, offset: 0x84C89, size: 0x8, addend: 0x0, symName: __ZNSt3__113__unwrap_iterB7v160006IPKcNS_18__unwrap_iter_implIS2_Lb1EEELi0EEEDTclsrT0_8__unwrapclsr3stdE7declvalIT_EEEES6_, symObjAddr: 0x1550C, symBinAddr: 0x10001EA28, symSize: 0x24 }
  - { offsetInCU: 0x6F41E, offset: 0x84D2C, size: 0x8, addend: 0x0, symName: __ZNSt3__119__copy_trivial_implB7v160006IKccEENS_4pairIPT_PT0_EES4_S4_S6_, symObjAddr: 0x155C4, symBinAddr: 0x10001EAE0, symSize: 0x7C }
  - { offsetInCU: 0x6F490, offset: 0x84D9E, size: 0x8, addend: 0x0, symName: __ZNSt3__19make_pairB7v160006IRPKcPcEENS_4pairINS_18__unwrap_ref_decayIT_E4typeENS6_IT0_E4typeEEEOS7_OSA_, symObjAddr: 0x15640, symBinAddr: 0x10001EB5C, symSize: 0x38 }
  - { offsetInCU: 0x6F53A, offset: 0x84E48, size: 0x8, addend: 0x0, symName: __ZNSt3__113__rewrap_iterB7v160006IPKcS2_NS_18__unwrap_iter_implIS2_Lb1EEEEET_S5_T0_, symObjAddr: 0x157A8, symBinAddr: 0x10001ECC4, symSize: 0x3C }
  - { offsetInCU: 0x6F595, offset: 0x84EA3, size: 0x8, addend: 0x0, symName: __ZNSt3__16fill_nB7v160006IPcmcEET_S2_T0_RKT1_, symObjAddr: 0x15874, symBinAddr: 0x10001ED90, symSize: 0x44 }
  - { offsetInCU: 0x6F600, offset: 0x84F0E, size: 0x8, addend: 0x0, symName: __ZNSt3__18__fill_nB7v160006IPcmcEET_S2_T0_RKT1_, symObjAddr: 0x158B8, symBinAddr: 0x10001EDD4, symSize: 0x64 }
  - { offsetInCU: 0x6F66B, offset: 0x84F79, size: 0x8, addend: 0x0, symName: __ZNSt3__121__convert_to_integralB7v160006Em, symObjAddr: 0x1591C, symBinAddr: 0x10001EE38, symSize: 0x14 }
  - { offsetInCU: 0x6F69C, offset: 0x84FAA, size: 0x8, addend: 0x0, symName: __ZNSt3__125__throw_bad_function_callB7v160006Ev, symObjAddr: 0x15C70, symBinAddr: 0x10001F158, symSize: 0x38 }
  - { offsetInCU: 0x6F6EC, offset: 0x84FFA, size: 0x8, addend: 0x0, symName: __ZNSt3__119__debug_db_insert_cB7v160006INS_18unordered_multimapINS_12basic_stringIcNS_11char_traitsIcEENS_9allocatorIcEEEES7_N4crow7ci_hashENS8_9ci_key_eqENS5_INS_4pairIKS7_S7_EEEEEEEEvPT_, symObjAddr: 0x161CC, symBinAddr: 0x10001F6B4, symSize: 0x10 }
  - { offsetInCU: 0x6F721, offset: 0x8502F, size: 0x8, addend: 0x0, symName: __ZNSt3__118__debug_db_erase_cB7v160006INS_12__hash_tableINS_17__hash_value_typeINS_12basic_stringIcNS_11char_traitsIcEENS_9allocatorIcEEEES8_EENS_22__unordered_map_hasherIS8_S9_N4crow7ci_hashENSB_9ci_key_eqELb1EEENS_21__unordered_map_equalIS8_S9_SD_SC_Lb1EEENS6_IS9_EEEEEEvPT_, symObjAddr: 0x166B4, symBinAddr: 0x10001FB9C, symSize: 0x10 }
  - { offsetInCU: 0x6F756, offset: 0x85064, size: 0x8, addend: 0x0, symName: __ZNSt3__115__debug_db_swapB7v160006INS_12__hash_tableINS_17__hash_value_typeINS_12basic_stringIcNS_11char_traitsIcEENS_9allocatorIcEEEES8_EENS_22__unordered_map_hasherIS8_S9_N4crow7ci_hashENSB_9ci_key_eqELb1EEENS_21__unordered_map_equalIS8_S9_SD_SC_Lb1EEENS6_IS9_EEEEEEvPT_SK_, symObjAddr: 0x16D98, symBinAddr: 0x100020058, symSize: 0x14 }
  - { offsetInCU: 0x6F79A, offset: 0x850A8, size: 0x8, addend: 0x0, symName: __ZNSt3__1neB7v160006ERKNS_15__hash_iteratorIPNS_11__hash_nodeINS_17__hash_value_typeINS_12basic_stringIcNS_11char_traitsIcEENS_9allocatorIcEEEES8_EEPvEEEESF_, symObjAddr: 0x17374, symBinAddr: 0x100020608, symSize: 0x34 }
  - { offsetInCU: 0x6F7D7, offset: 0x850E5, size: 0x8, addend: 0x0, symName: __ZNSt3__1neB7v160006IPKcEEbRKNS_11__wrap_iterIT_EES7_, symObjAddr: 0x176D0, symBinAddr: 0x100020964, symSize: 0x34 }
  - { offsetInCU: 0x6F81A, offset: 0x85128, size: 0x8, addend: 0x0, symName: __ZNSt3__17toupperB7v160006IcEET_S1_RKNS_6localeE, symObjAddr: 0x1777C, symBinAddr: 0x100020A10, symSize: 0x34 }
  - { offsetInCU: 0x6F860, offset: 0x8516E, size: 0x8, addend: 0x0, symName: __ZNSt3__1eqB7v160006IPKcEEbRKNS_11__wrap_iterIT_EES7_, symObjAddr: 0x17864, symBinAddr: 0x100020AF8, symSize: 0x48 }
  - { offsetInCU: 0x6F8FB, offset: 0x85209, size: 0x8, addend: 0x0, symName: __ZNSt3__1eqB7v160006ERKNS_15__hash_iteratorIPNS_11__hash_nodeINS_17__hash_value_typeINS_12basic_stringIcNS_11char_traitsIcEENS_9allocatorIcEEEES8_EEPvEEEESF_, symObjAddr: 0x17940, symBinAddr: 0x100020BA8, symSize: 0x30 }
  - { offsetInCU: 0x6F938, offset: 0x85246, size: 0x8, addend: 0x0, symName: __ZNSt3__112construct_atB7v160006INS_4pairIKNS_12basic_stringIcNS_11char_traitsIcEENS_9allocatorIcEEEES7_EEJS7_S7_EPS9_EEPT_SC_DpOT0_, symObjAddr: 0x1814C, symBinAddr: 0x1000213B4, symSize: 0x44 }
  - { offsetInCU: 0x6F9C6, offset: 0x852D4, size: 0x8, addend: 0x0, symName: __ZNSt3__125__debug_db_invalidate_allB7v160006INS_12__hash_tableINS_17__hash_value_typeINS_12basic_stringIcNS_11char_traitsIcEENS_9allocatorIcEEEES8_EENS_22__unordered_map_hasherIS8_S9_N4crow7ci_hashENSB_9ci_key_eqELb1EEENS_21__unordered_map_equalIS8_S9_SD_SC_Lb1EEENS6_IS9_EEEEEEvPT_, symObjAddr: 0x18BA8, symBinAddr: 0x100021E10, symSize: 0x10 }
  - { offsetInCU: 0x6FA23, offset: 0x85331, size: 0x8, addend: 0x0, symName: __ZNSt3__112construct_atB7v160006INS_10unique_ptrIN4crow8BaseRuleENS_14default_deleteIS3_EEEEJRPNS2_10TaggedRuleIJEEEEPS6_EEPT_SD_DpOT0_, symObjAddr: 0x18F0C, symBinAddr: 0x100022174, symSize: 0x40 }
  - { offsetInCU: 0x6FA9B, offset: 0x853A9, size: 0x8, addend: 0x0, symName: __ZNSt3__119__allocate_at_leastB7v160006INS_9allocatorINS_10unique_ptrIN4crow8BaseRuleENS_14default_deleteIS4_EEEEEEEENS_19__allocation_resultINS_16allocator_traitsIT_E7pointerEEERSB_m, symObjAddr: 0x194D4, symBinAddr: 0x10002273C, symSize: 0x40 }
  - { offsetInCU: 0x6FAE4, offset: 0x853F2, size: 0x8, addend: 0x0, symName: __ZNSt3__142__uninitialized_allocator_move_if_noexceptB7v160006INS_9allocatorINS_10unique_ptrIN4crow8BaseRuleENS_14default_deleteIS4_EEEEEENS_16reverse_iteratorIPS7_EESB_SB_EET2_RT_T0_T1_SC_, symObjAddr: 0x19688, symBinAddr: 0x1000228F0, symSize: 0x12C }
  - { offsetInCU: 0x6FB84, offset: 0x85492, size: 0x8, addend: 0x0, symName: __ZNSt3__14swapB7v160006IPNS_10unique_ptrIN4crow8BaseRuleENS_14default_deleteIS3_EEEEEENS_9enable_ifIXaasr21is_move_constructibleIT_EE5valuesr18is_move_assignableIS9_EE5valueEvE4typeERS9_SC_, symObjAddr: 0x19800, symBinAddr: 0x100022A68, symSize: 0x3C }
  - { offsetInCU: 0x6FBDE, offset: 0x854EC, size: 0x8, addend: 0x0, symName: __ZNSt3__125__debug_db_invalidate_allB7v160006INS_6vectorINS_10unique_ptrIN4crow8BaseRuleENS_14default_deleteIS4_EEEENS_9allocatorIS7_EEEEEEvPT_, symObjAddr: 0x198E8, symBinAddr: 0x100022B50, symSize: 0x10 }
  - { offsetInCU: 0x6FC12, offset: 0x85520, size: 0x8, addend: 0x0, symName: __ZNSt3__122__make_exception_guardB7v160006INS_29_AllocatorDestroyRangeReverseINS_9allocatorINS_10unique_ptrIN4crow8BaseRuleENS_14default_deleteIS5_EEEEEENS_16reverse_iteratorIPS8_EEEEEENS_28__exception_guard_exceptionsIT_EESF_, symObjAddr: 0x198F8, symBinAddr: 0x100022B60, symSize: 0x4C }
  - { offsetInCU: 0x6FC48, offset: 0x85556, size: 0x8, addend: 0x0, symName: __ZNSt3__1neB7v160006IPNS_10unique_ptrIN4crow8BaseRuleENS_14default_deleteIS3_EEEES7_EEbRKNS_16reverse_iteratorIT_EERKNS8_IT0_EE, symObjAddr: 0x19988, symBinAddr: 0x100022BF0, symSize: 0x48 }
  - { offsetInCU: 0x6FC94, offset: 0x855A2, size: 0x8, addend: 0x0, symName: __ZNSt3__112__to_addressB7v160006INS_16reverse_iteratorIPNS_10unique_ptrIN4crow8BaseRuleENS_14default_deleteIS4_EEEEEEvEENS_5decayIDTclsr19__to_address_helperIT_EE6__callclsr3stdE7declvalIRKSB_EEEEE4typeESD_, symObjAddr: 0x19A00, symBinAddr: 0x100022C68, symSize: 0x24 }
  - { offsetInCU: 0x6FCCA, offset: 0x855D8, size: 0x8, addend: 0x0, symName: __ZNSt3__112construct_atB7v160006INS_10unique_ptrIN4crow8BaseRuleENS_14default_deleteIS3_EEEEJS6_EPS6_EEPT_S9_DpOT0_, symObjAddr: 0x19B50, symBinAddr: 0x100022DB8, symSize: 0x3C }
  - { offsetInCU: 0x6FD6B, offset: 0x85679, size: 0x8, addend: 0x0, symName: __ZNSt3__14prevB7v160006IPNS_10unique_ptrIN4crow8BaseRuleENS_14default_deleteIS3_EEEEEENS_9enable_ifIXsr25__is_cpp17_input_iteratorIT_EE5valueES9_E4typeES9_NS_15iterator_traitsIS9_E15difference_typeE, symObjAddr: 0x19DA8, symBinAddr: 0x100023010, symSize: 0x50 }
  - { offsetInCU: 0x6FDB5, offset: 0x856C3, size: 0x8, addend: 0x0, symName: __ZNSt3__19__advanceB7v160006IPNS_10unique_ptrIN4crow8BaseRuleENS_14default_deleteIS3_EEEEEEvRT_NS_15iterator_traitsIS8_E15difference_typeENS_26random_access_iterator_tagE, symObjAddr: 0x19E5C, symBinAddr: 0x1000230B0, symSize: 0x28 }
  - { offsetInCU: 0x6FDFD, offset: 0x8570B, size: 0x8, addend: 0x0, symName: __ZNSt3__119__allocator_destroyB7v160006INS_9allocatorINS_10unique_ptrIN4crow8BaseRuleENS_14default_deleteIS4_EEEEEENS_16reverse_iteratorINS9_IPS7_EEEESC_EEvRT_T0_T1_, symObjAddr: 0x19F88, symBinAddr: 0x1000231DC, symSize: 0x70 }
  - { offsetInCU: 0x6FE62, offset: 0x85770, size: 0x8, addend: 0x0, symName: __ZNSt3__1neB7v160006INS_16reverse_iteratorIPNS_10unique_ptrIN4crow8BaseRuleENS_14default_deleteIS4_EEEEEES9_EEbRKNS1_IT_EERKNS1_IT0_EE, symObjAddr: 0x1A034, symBinAddr: 0x100023288, symSize: 0x60 }
  - { offsetInCU: 0x6FEAE, offset: 0x857BC, size: 0x8, addend: 0x0, symName: __ZNSt3__112__to_addressB7v160006INS_16reverse_iteratorINS1_IPNS_10unique_ptrIN4crow8BaseRuleENS_14default_deleteIS4_EEEEEEEEvEENS_5decayIDTclsr19__to_address_helperIT_EE6__callclsr3stdE7declvalIRKSC_EEEEE4typeESE_, symObjAddr: 0x1A094, symBinAddr: 0x1000232E8, symSize: 0x24 }
  - { offsetInCU: 0x6FF0D, offset: 0x8581B, size: 0x8, addend: 0x0, symName: __ZNSt3__14prevB7v160006INS_16reverse_iteratorIPNS_10unique_ptrIN4crow8BaseRuleENS_14default_deleteIS4_EEEEEEEENS_9enable_ifIXsr25__is_cpp17_input_iteratorIT_EE5valueESB_E4typeESB_NS_15iterator_traitsISB_E15difference_typeE, symObjAddr: 0x1A190, symBinAddr: 0x1000233E4, symSize: 0x60 }
  - { offsetInCU: 0x6FF56, offset: 0x85864, size: 0x8, addend: 0x0, symName: __ZNSt3__19__advanceB7v160006INS_16reverse_iteratorIPNS_10unique_ptrIN4crow8BaseRuleENS_14default_deleteIS4_EEEEEEEEvRT_NS_15iterator_traitsISA_E15difference_typeENS_26random_access_iterator_tagE, symObjAddr: 0x1A240, symBinAddr: 0x100023494, symSize: 0x2C }
  - { offsetInCU: 0x70054, offset: 0x85962, size: 0x8, addend: 0x0, symName: '__ZNSt3__116forward_as_tupleB7v160006IJZN4crow10TaggedRuleIJEEclIZ4mainE3$_0EEvOT_EUlRNS1_7requestERNS1_8responseEE_EEENS_5tupleIJDpOT_EEESG_', symObjAddr: 0x1AD38, symBinAddr: 0x100023F8C, symSize: 0x2C }
  - { offsetInCU: 0x7008E, offset: 0x8599C, size: 0x8, addend: 0x0, symName: '__ZNSt3__116forward_as_tupleB7v160006IJNS_9allocatorIZN4crow10TaggedRuleIJEEclIZ4mainE3$_0EEvOT_EUlRNS2_7requestERNS2_8responseEE_EEEEENS_5tupleIJDpOT_EEESI_', symObjAddr: 0x1AD64, symBinAddr: 0x100023FB8, symSize: 0x2C }
  - { offsetInCU: 0x70113, offset: 0x85A21, size: 0x8, addend: 0x0, symName: '__ZNSt3__13getB7v160006ILm0EJOZN4crow10TaggedRuleIJEEclIZ4mainE3$_0EEvOT_EUlRNS1_7requestERNS1_8responseEE_EEERNS_13tuple_elementIXT_ENS_5tupleIJDpT0_EEEE4typeERSI_', symObjAddr: 0x1B07C, symBinAddr: 0x1000242D0, symSize: 0x24 }
  - { offsetInCU: 0x70158, offset: 0x85A66, size: 0x8, addend: 0x0, symName: '__ZNSt3__13getB7v160006ILm0EJONS_9allocatorIZN4crow10TaggedRuleIJEEclIZ4mainE3$_0EEvOT_EUlRNS2_7requestERNS2_8responseEE_EEEEERNS_13tuple_elementIXT_ENS_5tupleIJDpT0_EEEE4typeERSK_', symObjAddr: 0x1B0B8, symBinAddr: 0x10002430C, symSize: 0x24 }
  - { offsetInCU: 0x706AF, offset: 0x85FBD, size: 0x8, addend: 0x0, symName: '__ZNSt3__116forward_as_tupleB7v160006IJRKZN4crow10TaggedRuleIJEEclIZ4mainE3$_0EEvOT_EUlRNS1_7requestERNS1_8responseEE_EEENS_5tupleIJDpOT_EEESI_', symObjAddr: 0x1B63C, symBinAddr: 0x100024890, symSize: 0x2C }
  - { offsetInCU: 0x70700, offset: 0x8600E, size: 0x8, addend: 0x0, symName: '__ZNSt3__13getB7v160006ILm0EJRKZN4crow10TaggedRuleIJEEclIZ4mainE3$_0EEvOT_EUlRNS1_7requestERNS1_8responseEE_EEERNS_13tuple_elementIXT_ENS_5tupleIJDpT0_EEEE4typeERSJ_', symObjAddr: 0x1B82C, symBinAddr: 0x100024A80, symSize: 0x24 }
  - { offsetInCU: 0x70745, offset: 0x86053, size: 0x8, addend: 0x0, symName: '__ZNSt3__116forward_as_tupleB7v160006IJRKNS_9allocatorIZN4crow10TaggedRuleIJEEclIZ4mainE3$_0EEvOT_EUlRNS2_7requestERNS2_8responseEE_EEEEENS_5tupleIJDpOT_EEESK_', symObjAddr: 0x1BB88, symBinAddr: 0x100024DDC, symSize: 0x2C }
  - { offsetInCU: 0x70796, offset: 0x860A4, size: 0x8, addend: 0x0, symName: '__ZNSt3__13getB7v160006ILm0EJRKNS_9allocatorIZN4crow10TaggedRuleIJEEclIZ4mainE3$_0EEvOT_EUlRNS2_7requestERNS2_8responseEE_EEEEERNS_13tuple_elementIXT_ENS_5tupleIJDpT0_EEEE4typeERSL_', symObjAddr: 0x1BD6C, symBinAddr: 0x100024FC0, symSize: 0x24 }
  - { offsetInCU: 0x709DF, offset: 0x862ED, size: 0x8, addend: 0x0, symName: '__ZNSt3__18__invokeB7v160006IRZN4crow10TaggedRuleIJEEclIZ4mainE3$_0EEvOT_EUlRNS1_7requestERNS1_8responseEE_JS9_SB_EEEDTclclsr3stdE7declvalIS6_EEspclsr3stdE7declvalIT0_EEEES7_DpOSE_', symObjAddr: 0x1BE48, symBinAddr: 0x10002509C, symSize: 0x34 }
  - { offsetInCU: 0x70A47, offset: 0x86355, size: 0x8, addend: 0x0, symName: __ZNSt3__1neB7v160006IPN4crow4json6wvalueEEEbRKNS_11__wrap_iterIT_EES9_, symObjAddr: 0x1DA4C, symBinAddr: 0x100026B04, symSize: 0x34 }
  - { offsetInCU: 0x70A8A, offset: 0x86398, size: 0x8, addend: 0x0, symName: __ZNSt3__1neB7v160006ERKNS_19__hash_map_iteratorINS_15__hash_iteratorIPNS_11__hash_nodeINS_17__hash_value_typeINS_12basic_stringIcNS_11char_traitsIcEENS_9allocatorIcEEEEN4crow4json6wvalueEEEPvEEEEEESK_, symObjAddr: 0x1DB84, symBinAddr: 0x100026C3C, symSize: 0x30 }
  - { offsetInCU: 0x70AC7, offset: 0x863D5, size: 0x8, addend: 0x0, symName: __ZNSt3__1eqB7v160006IPN4crow4json6wvalueEEEbRKNS_11__wrap_iterIT_EES9_, symObjAddr: 0x1DCD4, symBinAddr: 0x100026D8C, symSize: 0x48 }
  - { offsetInCU: 0x70B0A, offset: 0x86418, size: 0x8, addend: 0x0, symName: __ZNSt3__1neB7v160006ERKNS_15__hash_iteratorIPNS_11__hash_nodeINS_17__hash_value_typeINS_12basic_stringIcNS_11char_traitsIcEENS_9allocatorIcEEEEN4crow4json6wvalueEEEPvEEEESI_, symObjAddr: 0x1DEC8, symBinAddr: 0x100026F80, symSize: 0x34 }
  - { offsetInCU: 0x70B47, offset: 0x86455, size: 0x8, addend: 0x0, symName: __ZNSt3__1eqB7v160006ERKNS_15__hash_iteratorIPNS_11__hash_nodeINS_17__hash_value_typeINS_12basic_stringIcNS_11char_traitsIcEENS_9allocatorIcEEEEN4crow4json6wvalueEEEPvEEEESI_, symObjAddr: 0x1DEFC, symBinAddr: 0x100026FB4, symSize: 0x30 }
  - { offsetInCU: 0x70BEA, offset: 0x864F8, size: 0x8, addend: 0x0, symName: __ZNSt3__17launderB7v160006INS_4pairIKNS_12basic_stringIcNS_11char_traitsIcEENS_9allocatorIcEEEEN4crow4json6wvalueEEEEEPT_SE_, symObjAddr: 0x1DFCC, symBinAddr: 0x100027084, symSize: 0x24 }
  - { offsetInCU: 0x70C21, offset: 0x8652F, size: 0x8, addend: 0x0, symName: __ZNSt3__19__launderB7v160006INS_4pairIKNS_12basic_stringIcNS_11char_traitsIcEENS_9allocatorIcEEEEN4crow4json6wvalueEEEEEPT_SE_, symObjAddr: 0x1DFF0, symBinAddr: 0x1000270A8, symSize: 0x14 }
  - { offsetInCU: 0x70C58, offset: 0x86566, size: 0x8, addend: 0x0, symName: __ZNSt3__1lsB7v160006INS_11char_traitsIcEEEERNS_13basic_ostreamIcT_EES6_PKc, symObjAddr: 0x1E57C, symBinAddr: 0x100027554, symSize: 0x48 }
  - { offsetInCU: 0x70C9F, offset: 0x865AD, size: 0x8, addend: 0x0, symName: __ZNSt3__116__pad_and_outputB7v160006IcNS_11char_traitsIcEEEENS_19ostreambuf_iteratorIT_T0_EES6_PKS4_S8_S8_RNS_8ios_baseES4_, symObjAddr: 0x1E7CC, symBinAddr: 0x1000277A4, symSize: 0x240 }
  - { offsetInCU: 0x70D83, offset: 0x86691, size: 0x8, addend: 0x0, symName: __ZNSt3__1lsB7v160006IcNS_11char_traitsIcEENS_9allocatorIcEEEERNS_13basic_ostreamIT_T0_EES9_RKNS_12basic_stringIS6_S7_T1_EE, symObjAddr: 0x1F2FC, symBinAddr: 0x1000281CC, symSize: 0x4C }
  - { offsetInCU: 0x70DDB, offset: 0x866E9, size: 0x8, addend: 0x0, symName: __ZNSt3__1plB7v160006IcNS_11char_traitsIcEENS_9allocatorIcEEEENS_12basic_stringIT_T0_T1_EEOS9_SA_, symObjAddr: 0x1F348, symBinAddr: 0x100028218, symSize: 0x40 }
  - { offsetInCU: 0x70E33, offset: 0x86741, size: 0x8, addend: 0x0, symName: __ZNSt3__14endlB7v160006IcNS_11char_traitsIcEEEERNS_13basic_ostreamIT_T0_EES7_, symObjAddr: 0x1F464, symBinAddr: 0x100028334, symSize: 0x58 }
  - { offsetInCU: 0x70E73, offset: 0x86781, size: 0x8, addend: 0x0, symName: __ZNSt3__18distanceB7v160006IPcEENS_15iterator_traitsIT_E15difference_typeES3_S3_, symObjAddr: 0x1F6A4, symBinAddr: 0x100028574, symSize: 0x2C }
  - { offsetInCU: 0x70EBC, offset: 0x867CA, size: 0x8, addend: 0x0, symName: __ZNSt3__119__allocate_at_leastB7v160006INS_9allocatorIcEEEENS_19__allocation_resultINS_16allocator_traitsIT_E7pointerEEERS5_m, symObjAddr: 0x1F6D0, symBinAddr: 0x1000285A0, symSize: 0x40 }
  - { offsetInCU: 0x70F05, offset: 0x86813, size: 0x8, addend: 0x0, symName: __ZNSt3__110__distanceB7v160006IPcEENS_15iterator_traitsIT_E15difference_typeES3_S3_NS_26random_access_iterator_tagE, symObjAddr: 0x1F710, symBinAddr: 0x1000285E0, symSize: 0x20 }
  - { offsetInCU: 0x70F5B, offset: 0x86869, size: 0x8, addend: 0x0, symName: __ZNSt3__119__debug_db_insert_cB7v160006INS_6vectorINS_12basic_stringIcNS_11char_traitsIcEENS_9allocatorIcEEEENS5_IS7_EEEEEEvPT_, symObjAddr: 0x1FBC0, symBinAddr: 0x100028A1C, symSize: 0x10 }
  - { offsetInCU: 0x70F90, offset: 0x8689E, size: 0x8, addend: 0x0, symName: __ZNSt3__118__debug_db_erase_cB7v160006INS_6vectorIN4crow4json6wvalueENS_9allocatorIS4_EEEEEEvPT_, symObjAddr: 0x206A4, symBinAddr: 0x100029078, symSize: 0x10 }
  - { offsetInCU: 0x70FC4, offset: 0x868D2, size: 0x8, addend: 0x0, symName: __ZNSt3__112__to_addressB7v160006IN4crow4json6wvalueEEEPT_S5_, symObjAddr: 0x207E8, symBinAddr: 0x1000291BC, symSize: 0x14 }
  - { offsetInCU: 0x70FFA, offset: 0x86908, size: 0x8, addend: 0x0, symName: __ZNSt3__110destroy_atB7v160006IN4crow4json6wvalueELi0EEEvPT_, symObjAddr: 0x208B0, symBinAddr: 0x100029284, symSize: 0x24 }
  - { offsetInCU: 0x71035, offset: 0x86943, size: 0x8, addend: 0x0, symName: __ZNSt3__112__destroy_atB7v160006IN4crow4json6wvalueELi0EEEvPT_, symObjAddr: 0x208D4, symBinAddr: 0x1000292A8, symSize: 0x2C }
  - { offsetInCU: 0x71070, offset: 0x8697E, size: 0x8, addend: 0x0, symName: __ZNSt3__118__debug_db_erase_cB7v160006INS_12__hash_tableINS_17__hash_value_typeINS_12basic_stringIcNS_11char_traitsIcEENS_9allocatorIcEEEEN4crow4json6wvalueEEENS_22__unordered_map_hasherIS8_SC_NS_4hashIS8_EENS_8equal_toIS8_EELb1EEENS_21__unordered_map_equalIS8_SC_SH_SF_Lb1EEENS6_ISC_EEEEEEvPT_, symObjAddr: 0x20C1C, symBinAddr: 0x1000295F0, symSize: 0x10 }
  - { offsetInCU: 0x710A5, offset: 0x869B3, size: 0x8, addend: 0x0, symName: __ZNSt3__110destroy_atB7v160006INS_4pairIKNS_12basic_stringIcNS_11char_traitsIcEENS_9allocatorIcEEEEN4crow4json6wvalueEEELi0EEEvPT_, symObjAddr: 0x20D38, symBinAddr: 0x10002970C, symSize: 0x24 }
  - { offsetInCU: 0x710E0, offset: 0x869EE, size: 0x8, addend: 0x0, symName: __ZNSt3__112__destroy_atB7v160006INS_4pairIKNS_12basic_stringIcNS_11char_traitsIcEENS_9allocatorIcEEEEN4crow4json6wvalueEEELi0EEEvPT_, symObjAddr: 0x20D5C, symBinAddr: 0x100029730, symSize: 0x24 }
  - { offsetInCU: 0x7111B, offset: 0x86A29, size: 0x8, addend: 0x0, symName: __ZNSt3__119__debug_db_insert_cB7v160006INS_13unordered_mapINS_12basic_stringIcNS_11char_traitsIcEENS_9allocatorIcEEEEN4crow4json6wvalueENS_4hashIS7_EENS_8equal_toIS7_EENS5_INS_4pairIKS7_SA_EEEEEEEEvPT_, symObjAddr: 0x21110, symBinAddr: 0x100029AE4, symSize: 0x10 }
  - { offsetInCU: 0x7114F, offset: 0x86A5D, size: 0x8, addend: 0x0, symName: __ZNSt3__116forward_as_tupleB7v160006IJRKNS_12basic_stringIcNS_11char_traitsIcEENS_9allocatorIcEEEEEEENS_5tupleIJDpOT_EEESC_, symObjAddr: 0x21CFC, symBinAddr: 0x10002A6D0, symSize: 0x2C }
  - { offsetInCU: 0x71188, offset: 0x86A96, size: 0x8, addend: 0x0, symName: __ZNSt3__116forward_as_tupleB7v160006IJEEENS_5tupleIJDpOT_EEES4_, symObjAddr: 0x21D28, symBinAddr: 0x10002A6FC, symSize: 0x4 }
  - { offsetInCU: 0x711AC, offset: 0x86ABA, size: 0x8, addend: 0x0, symName: __ZNSt3__17launderB7v160006IKNS_4pairIKNS_12basic_stringIcNS_11char_traitsIcEENS_9allocatorIcEEEEN4crow4json6wvalueEEEEEPT_SF_, symObjAddr: 0x222C0, symBinAddr: 0x10002AC94, symSize: 0x24 }
  - { offsetInCU: 0x711E3, offset: 0x86AF1, size: 0x8, addend: 0x0, symName: __ZNSt3__19__launderB7v160006IKNS_4pairIKNS_12basic_stringIcNS_11char_traitsIcEENS_9allocatorIcEEEEN4crow4json6wvalueEEEEEPT_SF_, symObjAddr: 0x222E4, symBinAddr: 0x10002ACB8, symSize: 0x14 }
  - { offsetInCU: 0x71261, offset: 0x86B6F, size: 0x8, addend: 0x0, symName: __ZNSt3__112construct_atB7v160006INS_4pairIKNS_12basic_stringIcNS_11char_traitsIcEENS_9allocatorIcEEEEN4crow4json6wvalueEEEJRKNS_21piecewise_construct_tENS_5tupleIJRS8_EEENSG_IJEEEEPSC_EEPT_SM_DpOT0_, symObjAddr: 0x225DC, symBinAddr: 0x10002AFB0, symSize: 0x50 }
  - { offsetInCU: 0x71303, offset: 0x86C11, size: 0x8, addend: 0x0, symName: __ZNSt3__13getB7v160006ILm0EJRKNS_12basic_stringIcNS_11char_traitsIcEENS_9allocatorIcEEEEEEERNS_13tuple_elementIXT_ENS_5tupleIJDpT0_EEEE4typeERSD_, symObjAddr: 0x2271C, symBinAddr: 0x10002B0F0, symSize: 0x24 }
  - { offsetInCU: 0x71347, offset: 0x86C55, size: 0x8, addend: 0x0, symName: __ZNSt3__125__debug_db_invalidate_allB7v160006INS_12__hash_tableINS_17__hash_value_typeINS_12basic_stringIcNS_11char_traitsIcEENS_9allocatorIcEEEEN4crow4json6wvalueEEENS_22__unordered_map_hasherIS8_SC_NS_4hashIS8_EENS_8equal_toIS8_EELb1EEENS_21__unordered_map_equalIS8_SC_SH_SF_Lb1EEENS6_ISC_EEEEEEvPT_, symObjAddr: 0x22C14, symBinAddr: 0x10002B5E8, symSize: 0x10 }
  - { offsetInCU: 0x713BB, offset: 0x86CC9, size: 0x8, addend: 0x0, symName: __ZNSt3__112construct_atB7v160006INS_12basic_stringIcNS_11char_traitsIcEENS_9allocatorIcEEEEJS6_EPS6_EEPT_S9_DpOT0_, symObjAddr: 0x23304, symBinAddr: 0x10002BCD8, symSize: 0x3C }
  - { offsetInCU: 0x71433, offset: 0x86D41, size: 0x8, addend: 0x0, symName: __ZNSt3__119__allocate_at_leastB7v160006INS_9allocatorINS_12basic_stringIcNS_11char_traitsIcEENS1_IcEEEEEEEENS_19__allocation_resultINS_16allocator_traitsIT_E7pointerEEERSA_m, symObjAddr: 0x237BC, symBinAddr: 0x10002C190, symSize: 0x40 }
  - { offsetInCU: 0x7147C, offset: 0x86D8A, size: 0x8, addend: 0x0, symName: __ZNSt3__142__uninitialized_allocator_move_if_noexceptB7v160006INS_9allocatorINS_12basic_stringIcNS_11char_traitsIcEENS1_IcEEEEEENS_16reverse_iteratorIPS6_EESA_SA_EET2_RT_T0_T1_SB_, symObjAddr: 0x23974, symBinAddr: 0x10002C348, symSize: 0x12C }
  - { offsetInCU: 0x7151C, offset: 0x86E2A, size: 0x8, addend: 0x0, symName: __ZNSt3__14swapB7v160006IPNS_12basic_stringIcNS_11char_traitsIcEENS_9allocatorIcEEEEEENS_9enable_ifIXaasr21is_move_constructibleIT_EE5valuesr18is_move_assignableIS9_EE5valueEvE4typeERS9_SC_, symObjAddr: 0x23AEC, symBinAddr: 0x10002C4C0, symSize: 0x3C }
  - { offsetInCU: 0x71576, offset: 0x86E84, size: 0x8, addend: 0x0, symName: __ZNSt3__125__debug_db_invalidate_allB7v160006INS_6vectorINS_12basic_stringIcNS_11char_traitsIcEENS_9allocatorIcEEEENS5_IS7_EEEEEEvPT_, symObjAddr: 0x23BF0, symBinAddr: 0x10002C5C4, symSize: 0x10 }
  - { offsetInCU: 0x715AA, offset: 0x86EB8, size: 0x8, addend: 0x0, symName: __ZNSt3__122__make_exception_guardB7v160006INS_29_AllocatorDestroyRangeReverseINS_9allocatorINS_12basic_stringIcNS_11char_traitsIcEENS2_IcEEEEEENS_16reverse_iteratorIPS7_EEEEEENS_28__exception_guard_exceptionsIT_EESE_, symObjAddr: 0x23C00, symBinAddr: 0x10002C5D4, symSize: 0x4C }
  - { offsetInCU: 0x715E0, offset: 0x86EEE, size: 0x8, addend: 0x0, symName: __ZNSt3__1neB7v160006IPNS_12basic_stringIcNS_11char_traitsIcEENS_9allocatorIcEEEES7_EEbRKNS_16reverse_iteratorIT_EERKNS8_IT0_EE, symObjAddr: 0x23C90, symBinAddr: 0x10002C664, symSize: 0x48 }
  - { offsetInCU: 0x7162C, offset: 0x86F3A, size: 0x8, addend: 0x0, symName: __ZNSt3__112__to_addressB7v160006INS_16reverse_iteratorIPNS_12basic_stringIcNS_11char_traitsIcEENS_9allocatorIcEEEEEEvEENS_5decayIDTclsr19__to_address_helperIT_EE6__callclsr3stdE7declvalIRKSB_EEEEE4typeESD_, symObjAddr: 0x23CD8, symBinAddr: 0x10002C6AC, symSize: 0x24 }
  - { offsetInCU: 0x7168B, offset: 0x86F99, size: 0x8, addend: 0x0, symName: __ZNSt3__14prevB7v160006IPNS_12basic_stringIcNS_11char_traitsIcEENS_9allocatorIcEEEEEENS_9enable_ifIXsr25__is_cpp17_input_iteratorIT_EE5valueES9_E4typeES9_NS_15iterator_traitsIS9_E15difference_typeE, symObjAddr: 0x23E8C, symBinAddr: 0x10002C860, symSize: 0x50 }
  - { offsetInCU: 0x716D5, offset: 0x86FE3, size: 0x8, addend: 0x0, symName: __ZNSt3__19__advanceB7v160006IPNS_12basic_stringIcNS_11char_traitsIcEENS_9allocatorIcEEEEEEvRT_NS_15iterator_traitsIS8_E15difference_typeENS_26random_access_iterator_tagE, symObjAddr: 0x23F2C, symBinAddr: 0x10002C900, symSize: 0x30 }
  - { offsetInCU: 0x7171D, offset: 0x8702B, size: 0x8, addend: 0x0, symName: __ZNSt3__119__allocator_destroyB7v160006INS_9allocatorINS_12basic_stringIcNS_11char_traitsIcEENS1_IcEEEEEENS_16reverse_iteratorINS8_IPS6_EEEESB_EEvRT_T0_T1_, symObjAddr: 0x24060, symBinAddr: 0x10002CA34, symSize: 0x70 }
  - { offsetInCU: 0x71782, offset: 0x87090, size: 0x8, addend: 0x0, symName: __ZNSt3__1neB7v160006INS_16reverse_iteratorIPNS_12basic_stringIcNS_11char_traitsIcEENS_9allocatorIcEEEEEES9_EEbRKNS1_IT_EERKNS1_IT0_EE, symObjAddr: 0x2410C, symBinAddr: 0x10002CAE0, symSize: 0x60 }
  - { offsetInCU: 0x717CE, offset: 0x870DC, size: 0x8, addend: 0x0, symName: __ZNSt3__112__to_addressB7v160006INS_16reverse_iteratorINS1_IPNS_12basic_stringIcNS_11char_traitsIcEENS_9allocatorIcEEEEEEEEvEENS_5decayIDTclsr19__to_address_helperIT_EE6__callclsr3stdE7declvalIRKSC_EEEEE4typeESE_, symObjAddr: 0x2416C, symBinAddr: 0x10002CB40, symSize: 0x24 }
  - { offsetInCU: 0x7182D, offset: 0x8713B, size: 0x8, addend: 0x0, symName: __ZNSt3__14prevB7v160006INS_16reverse_iteratorIPNS_12basic_stringIcNS_11char_traitsIcEENS_9allocatorIcEEEEEEEENS_9enable_ifIXsr25__is_cpp17_input_iteratorIT_EE5valueESB_E4typeESB_NS_15iterator_traitsISB_E15difference_typeE, symObjAddr: 0x24268, symBinAddr: 0x10002CC3C, symSize: 0x60 }
  - { offsetInCU: 0x71876, offset: 0x87184, size: 0x8, addend: 0x0, symName: __ZNSt3__19__advanceB7v160006INS_16reverse_iteratorIPNS_12basic_stringIcNS_11char_traitsIcEENS_9allocatorIcEEEEEEEEvRT_NS_15iterator_traitsISA_E15difference_typeENS_26random_access_iterator_tagE, symObjAddr: 0x24318, symBinAddr: 0x10002CCEC, symSize: 0x2C }
  - { offsetInCU: 0x718BF, offset: 0x871CD, size: 0x8, addend: 0x0, symName: __ZNSt3__1neB7v160006IPKNS_12basic_stringIcNS_11char_traitsIcEENS_9allocatorIcEEEEEEbRKNS_11__wrap_iterIT_EESD_, symObjAddr: 0x24828, symBinAddr: 0x10002D1FC, symSize: 0x34 }
  - { offsetInCU: 0x71903, offset: 0x87211, size: 0x8, addend: 0x0, symName: __ZNSt3__119__debug_db_insert_cB7v160006INS_6vectorIN4crow4json6wvalueENS_9allocatorIS4_EEEEEEvPT_, symObjAddr: 0x24954, symBinAddr: 0x10002D328, symSize: 0x10 }
  - { offsetInCU: 0x71938, offset: 0x87246, size: 0x8, addend: 0x0, symName: __ZNSt3__125__debug_db_invalidate_allB7v160006INS_6vectorIN4crow4json6wvalueENS_9allocatorIS4_EEEEEEvPT_, symObjAddr: 0x24C78, symBinAddr: 0x10002D64C, symSize: 0x10 }
  - { offsetInCU: 0x71995, offset: 0x872A3, size: 0x8, addend: 0x0, symName: __ZNSt3__112construct_atB7v160006IN4crow4json6wvalueEJEPS3_EEPT_S6_DpOT0_, symObjAddr: 0x252E4, symBinAddr: 0x10002DCB8, symSize: 0x34 }
  - { offsetInCU: 0x719F7, offset: 0x87305, size: 0x8, addend: 0x0, symName: __ZNSt3__119__allocate_at_leastB7v160006INS_9allocatorIN4crow4json6wvalueEEEEENS_19__allocation_resultINS_16allocator_traitsIT_E7pointerEEERS8_m, symObjAddr: 0x25558, symBinAddr: 0x10002DF2C, symSize: 0x40 }
  - { offsetInCU: 0x71A40, offset: 0x8734E, size: 0x8, addend: 0x0, symName: __ZNSt3__142__uninitialized_allocator_move_if_noexceptB7v160006INS_9allocatorIN4crow4json6wvalueEEENS_16reverse_iteratorIPS4_EES8_S8_EET2_RT_T0_T1_S9_, symObjAddr: 0x257E4, symBinAddr: 0x10002E1B8, symSize: 0x12C }
  - { offsetInCU: 0x71AE0, offset: 0x873EE, size: 0x8, addend: 0x0, symName: __ZNSt3__14swapB7v160006IPN4crow4json6wvalueEEENS_9enable_ifIXaasr21is_move_constructibleIT_EE5valuesr18is_move_assignableIS6_EE5valueEvE4typeERS6_S9_, symObjAddr: 0x2595C, symBinAddr: 0x10002E330, symSize: 0x3C }
  - { offsetInCU: 0x71B39, offset: 0x87447, size: 0x8, addend: 0x0, symName: __ZNSt3__122__make_exception_guardB7v160006INS_29_AllocatorDestroyRangeReverseINS_9allocatorIN4crow4json6wvalueEEENS_16reverse_iteratorIPS5_EEEEEENS_28__exception_guard_exceptionsIT_EESC_, symObjAddr: 0x25A60, symBinAddr: 0x10002E434, symSize: 0x4C }
  - { offsetInCU: 0x71B6F, offset: 0x8747D, size: 0x8, addend: 0x0, symName: __ZNSt3__1neB7v160006IPN4crow4json6wvalueES4_EEbRKNS_16reverse_iteratorIT_EERKNS5_IT0_EE, symObjAddr: 0x25AF0, symBinAddr: 0x10002E4C4, symSize: 0x48 }
  - { offsetInCU: 0x71BBB, offset: 0x874C9, size: 0x8, addend: 0x0, symName: __ZNSt3__112__to_addressB7v160006INS_16reverse_iteratorIPN4crow4json6wvalueEEEvEENS_5decayIDTclsr19__to_address_helperIT_EE6__callclsr3stdE7declvalIRKS8_EEEEE4typeESA_, symObjAddr: 0x25B68, symBinAddr: 0x10002E53C, symSize: 0x24 }
  - { offsetInCU: 0x71BF1, offset: 0x874FF, size: 0x8, addend: 0x0, symName: __ZNSt3__112construct_atB7v160006IN4crow4json6wvalueEJRKS3_EPS3_EEPT_S8_DpOT0_, symObjAddr: 0x25CB8, symBinAddr: 0x10002E68C, symSize: 0x3C }
  - { offsetInCU: 0x71C69, offset: 0x87577, size: 0x8, addend: 0x0, symName: __ZNSt3__112construct_atB7v160006IN4crow4json6wvalueEJRS3_EPS3_EEPT_S7_DpOT0_, symObjAddr: 0x2662C, symBinAddr: 0x10002F000, symSize: 0x3C }
  - { offsetInCU: 0x71CE1, offset: 0x875EF, size: 0x8, addend: 0x0, symName: __ZNSt3__112construct_atB7v160006INS_4pairIKNS_12basic_stringIcNS_11char_traitsIcEENS_9allocatorIcEEEEN4crow4json6wvalueEEEJRKSC_EPSC_EEPT_SH_DpOT0_, symObjAddr: 0x26CBC, symBinAddr: 0x10002F690, symSize: 0x3C }
  - { offsetInCU: 0x71D59, offset: 0x87667, size: 0x8, addend: 0x0, symName: __ZNSt3__14swapB7v160006IPNS_10__function6__baseIFNS_12basic_stringIcNS_11char_traitsIcEENS_9allocatorIcEEEERS8_EEEEENS_9enable_ifIXaasr21is_move_constructibleIT_EE5valuesr18is_move_assignableISE_EE5valueEvE4typeERSE_SH_, symObjAddr: 0x271E0, symBinAddr: 0x10002FBB4, symSize: 0x3C }
  - { offsetInCU: 0x71DDB, offset: 0x876E9, size: 0x8, addend: 0x0, symName: __ZNSt3__14prevB7v160006IPN4crow4json6wvalueEEENS_9enable_ifIXsr25__is_cpp17_input_iteratorIT_EE5valueES6_E4typeES6_NS_15iterator_traitsIS6_E15difference_typeE, symObjAddr: 0x27368, symBinAddr: 0x10002FD3C, symSize: 0x50 }
  - { offsetInCU: 0x71E25, offset: 0x87733, size: 0x8, addend: 0x0, symName: __ZNSt3__19__advanceB7v160006IPN4crow4json6wvalueEEEvRT_NS_15iterator_traitsIS5_E15difference_typeENS_26random_access_iterator_tagE, symObjAddr: 0x27408, symBinAddr: 0x10002FDDC, symSize: 0x30 }
  - { offsetInCU: 0x71E6D, offset: 0x8777B, size: 0x8, addend: 0x0, symName: __ZNSt3__119__allocator_destroyB7v160006INS_9allocatorIN4crow4json6wvalueEEENS_16reverse_iteratorINS6_IPS4_EEEES9_EEvRT_T0_T1_, symObjAddr: 0x2753C, symBinAddr: 0x10002FF10, symSize: 0x70 }
  - { offsetInCU: 0x71ED2, offset: 0x877E0, size: 0x8, addend: 0x0, symName: __ZNSt3__1neB7v160006INS_16reverse_iteratorIPN4crow4json6wvalueEEES6_EEbRKNS1_IT_EERKNS1_IT0_EE, symObjAddr: 0x275E8, symBinAddr: 0x10002FFBC, symSize: 0x60 }
  - { offsetInCU: 0x71F1E, offset: 0x8782C, size: 0x8, addend: 0x0, symName: __ZNSt3__112__to_addressB7v160006INS_16reverse_iteratorINS1_IPN4crow4json6wvalueEEEEEvEENS_5decayIDTclsr19__to_address_helperIT_EE6__callclsr3stdE7declvalIRKS9_EEEEE4typeESB_, symObjAddr: 0x27648, symBinAddr: 0x10003001C, symSize: 0x24 }
  - { offsetInCU: 0x71F7D, offset: 0x8788B, size: 0x8, addend: 0x0, symName: __ZNSt3__14prevB7v160006INS_16reverse_iteratorIPN4crow4json6wvalueEEEEENS_9enable_ifIXsr25__is_cpp17_input_iteratorIT_EE5valueES8_E4typeES8_NS_15iterator_traitsIS8_E15difference_typeE, symObjAddr: 0x27744, symBinAddr: 0x100030118, symSize: 0x60 }
  - { offsetInCU: 0x71FC6, offset: 0x878D4, size: 0x8, addend: 0x0, symName: __ZNSt3__19__advanceB7v160006INS_16reverse_iteratorIPN4crow4json6wvalueEEEEEvRT_NS_15iterator_traitsIS7_E15difference_typeENS_26random_access_iterator_tagE, symObjAddr: 0x277F4, symBinAddr: 0x1000301C8, symSize: 0x2C }
  - { offsetInCU: 0x7200F, offset: 0x8791D, size: 0x8, addend: 0x0, symName: __ZNSt3__1eqB7v160006IPKNS_12basic_stringIcNS_11char_traitsIcEENS_9allocatorIcEEEEEEbRKNS_11__wrap_iterIT_EESD_, symObjAddr: 0x27B58, symBinAddr: 0x10003052C, symSize: 0x48 }
  - { offsetInCU: 0x72053, offset: 0x87961, size: 0x8, addend: 0x0, symName: __ZNSt3__119__debug_db_insert_cB7v160006INS_6vectorINS_4pairIiiEENS_9allocatorIS3_EEEEEEvPT_, symObjAddr: 0x29FB4, symBinAddr: 0x100032988, symSize: 0x10 }
  - { offsetInCU: 0x72088, offset: 0x87996, size: 0x8, addend: 0x0, symName: __ZNSt3__119__debug_db_insert_cB7v160006INS_6vectorIN4crow8mustache6ActionENS_9allocatorIS4_EEEEEEvPT_, symObjAddr: 0x2A120, symBinAddr: 0x100032AF4, symSize: 0x10 }
  - { offsetInCU: 0x720BC, offset: 0x879CA, size: 0x8, addend: 0x0, symName: __ZNSt3__110__str_findB7v160006IcmNS_11char_traitsIcEELm18446744073709551615EEET0_PKT_S3_S6_S3_S3_, symObjAddr: 0x2A7D8, symBinAddr: 0x100033100, symSize: 0xE4 }
  - { offsetInCU: 0x72163, offset: 0x87A71, size: 0x8, addend: 0x0, symName: __ZNSt3__118__search_substringB7v160006IcNS_11char_traitsIcEEEEPKT_S5_S5_S5_S5_, symObjAddr: 0x2A8BC, symBinAddr: 0x1000331E4, symSize: 0x154 }
  - { offsetInCU: 0x721FD, offset: 0x87B0B, size: 0x8, addend: 0x0, symName: __ZNSt3__123__constexpr_char_memchrB7v160006EPKcim, symObjAddr: 0x2AA80, symBinAddr: 0x1000333A8, symSize: 0x34 }
  - { offsetInCU: 0x7224D, offset: 0x87B5B, size: 0x8, addend: 0x0, symName: __ZNSt3__112__to_addressB7v160006INS_4pairIiiEEEEPT_S4_, symObjAddr: 0x2AD44, symBinAddr: 0x10003366C, symSize: 0x14 }
  - { offsetInCU: 0x722AB, offset: 0x87BB9, size: 0x8, addend: 0x0, symName: __ZNSt3__112construct_atB7v160006INS_4pairIiiEEJiiEPS2_EEPT_S5_DpOT0_, symObjAddr: 0x2ADC8, symBinAddr: 0x1000336F0, symSize: 0x44 }
  - { offsetInCU: 0x72338, offset: 0x87C46, size: 0x8, addend: 0x0, symName: __ZNSt3__119__allocate_at_leastB7v160006INS_9allocatorINS_4pairIiiEEEEEENS_19__allocation_resultINS_16allocator_traitsIT_E7pointerEEERS7_m, symObjAddr: 0x2B3EC, symBinAddr: 0x100033D14, symSize: 0x40 }
  - { offsetInCU: 0x72381, offset: 0x87C8F, size: 0x8, addend: 0x0, symName: __ZNSt3__142__uninitialized_allocator_move_if_noexceptB7v160006INS_9allocatorINS_4pairIiiEEEENS_16reverse_iteratorIPS3_EES7_S7_EET2_RT_T0_T1_S8_, symObjAddr: 0x2B658, symBinAddr: 0x100033F80, symSize: 0x12C }
  - { offsetInCU: 0x72421, offset: 0x87D2F, size: 0x8, addend: 0x0, symName: __ZNSt3__14swapB7v160006IPNS_4pairIiiEEEENS_9enable_ifIXaasr21is_move_constructibleIT_EE5valuesr18is_move_assignableIS5_EE5valueEvE4typeERS5_S8_, symObjAddr: 0x2B7D0, symBinAddr: 0x1000340F8, symSize: 0x3C }
  - { offsetInCU: 0x7247B, offset: 0x87D89, size: 0x8, addend: 0x0, symName: __ZNSt3__125__debug_db_invalidate_allB7v160006INS_6vectorINS_4pairIiiEENS_9allocatorIS3_EEEEEEvPT_, symObjAddr: 0x2B8B8, symBinAddr: 0x1000341E0, symSize: 0x10 }
  - { offsetInCU: 0x724AF, offset: 0x87DBD, size: 0x8, addend: 0x0, symName: __ZNSt3__122__make_exception_guardB7v160006INS_29_AllocatorDestroyRangeReverseINS_9allocatorINS_4pairIiiEEEENS_16reverse_iteratorIPS4_EEEEEENS_28__exception_guard_exceptionsIT_EESB_, symObjAddr: 0x2B910, symBinAddr: 0x100034238, symSize: 0x4C }
  - { offsetInCU: 0x724E5, offset: 0x87DF3, size: 0x8, addend: 0x0, symName: __ZNSt3__1neB7v160006IPNS_4pairIiiEES3_EEbRKNS_16reverse_iteratorIT_EERKNS4_IT0_EE, symObjAddr: 0x2B9A0, symBinAddr: 0x1000342C8, symSize: 0x48 }
  - { offsetInCU: 0x72531, offset: 0x87E3F, size: 0x8, addend: 0x0, symName: __ZNSt3__112__to_addressB7v160006INS_16reverse_iteratorIPNS_4pairIiiEEEEvEENS_5decayIDTclsr19__to_address_helperIT_EE6__callclsr3stdE7declvalIRKS7_EEEEE4typeES9_, symObjAddr: 0x2BA18, symBinAddr: 0x100034340, symSize: 0x24 }
  - { offsetInCU: 0x72567, offset: 0x87E75, size: 0x8, addend: 0x0, symName: __ZNSt3__112construct_atB7v160006INS_4pairIiiEEJS2_EPS2_EEPT_S5_DpOT0_, symObjAddr: 0x2BB68, symBinAddr: 0x100034490, symSize: 0x2C }
  - { offsetInCU: 0x72608, offset: 0x87F16, size: 0x8, addend: 0x0, symName: __ZNSt3__14prevB7v160006IPNS_4pairIiiEEEENS_9enable_ifIXsr25__is_cpp17_input_iteratorIT_EE5valueES5_E4typeES5_NS_15iterator_traitsIS5_E15difference_typeE, symObjAddr: 0x2BBF8, symBinAddr: 0x100034520, symSize: 0x50 }
  - { offsetInCU: 0x72652, offset: 0x87F60, size: 0x8, addend: 0x0, symName: __ZNSt3__19__advanceB7v160006IPNS_4pairIiiEEEEvRT_NS_15iterator_traitsIS4_E15difference_typeENS_26random_access_iterator_tagE, symObjAddr: 0x2BC98, symBinAddr: 0x1000345C0, symSize: 0x28 }
  - { offsetInCU: 0x7269A, offset: 0x87FA8, size: 0x8, addend: 0x0, symName: __ZNSt3__119__allocator_destroyB7v160006INS_9allocatorINS_4pairIiiEEEENS_16reverse_iteratorINS5_IPS3_EEEES8_EEvRT_T0_T1_, symObjAddr: 0x2BDC4, symBinAddr: 0x1000346EC, symSize: 0x70 }
  - { offsetInCU: 0x726FF, offset: 0x8800D, size: 0x8, addend: 0x0, symName: __ZNSt3__1neB7v160006INS_16reverse_iteratorIPNS_4pairIiiEEEES5_EEbRKNS1_IT_EERKNS1_IT0_EE, symObjAddr: 0x2BE70, symBinAddr: 0x100034798, symSize: 0x60 }
  - { offsetInCU: 0x7274B, offset: 0x88059, size: 0x8, addend: 0x0, symName: __ZNSt3__112__to_addressB7v160006INS_16reverse_iteratorINS1_IPNS_4pairIiiEEEEEEvEENS_5decayIDTclsr19__to_address_helperIT_EE6__callclsr3stdE7declvalIRKS8_EEEEE4typeESA_, symObjAddr: 0x2BEF8, symBinAddr: 0x100034820, symSize: 0x24 }
  - { offsetInCU: 0x72782, offset: 0x88090, size: 0x8, addend: 0x0, symName: __ZNSt3__110destroy_atB7v160006INS_4pairIiiEELi0EEEvPT_, symObjAddr: 0x2BF70, symBinAddr: 0x100034898, symSize: 0x24 }
  - { offsetInCU: 0x727BD, offset: 0x880CB, size: 0x8, addend: 0x0, symName: __ZNSt3__112__destroy_atB7v160006INS_4pairIiiEELi0EEEvPT_, symObjAddr: 0x2BF94, symBinAddr: 0x1000348BC, symSize: 0x10 }
  - { offsetInCU: 0x72820, offset: 0x8812E, size: 0x8, addend: 0x0, symName: __ZNSt3__14prevB7v160006INS_16reverse_iteratorIPNS_4pairIiiEEEEEENS_9enable_ifIXsr25__is_cpp17_input_iteratorIT_EE5valueES7_E4typeES7_NS_15iterator_traitsIS7_E15difference_typeE, symObjAddr: 0x2C028, symBinAddr: 0x100034950, symSize: 0x60 }
  - { offsetInCU: 0x72869, offset: 0x88177, size: 0x8, addend: 0x0, symName: __ZNSt3__19__advanceB7v160006INS_16reverse_iteratorIPNS_4pairIiiEEEEEEvRT_NS_15iterator_traitsIS6_E15difference_typeENS_26random_access_iterator_tagE, symObjAddr: 0x2C0D8, symBinAddr: 0x100034A00, symSize: 0x2C }
  - { offsetInCU: 0x728B2, offset: 0x881C0, size: 0x8, addend: 0x0, symName: __ZNSt3__112__to_addressB7v160006IN4crow8mustache6ActionEEEPT_S5_, symObjAddr: 0x2C6B0, symBinAddr: 0x100034FD8, symSize: 0x14 }
  - { offsetInCU: 0x72910, offset: 0x8821E, size: 0x8, addend: 0x0, symName: __ZNSt3__112construct_atB7v160006IN4crow8mustache6ActionEJNS2_10ActionTypeEiiEPS3_EEPT_S7_DpOT0_, symObjAddr: 0x2C734, symBinAddr: 0x10003505C, symSize: 0x5C }
  - { offsetInCU: 0x729B2, offset: 0x882C0, size: 0x8, addend: 0x0, symName: __ZNSt3__119__allocate_at_leastB7v160006INS_9allocatorIN4crow8mustache6ActionEEEEENS_19__allocation_resultINS_16allocator_traitsIT_E7pointerEEERS8_m, symObjAddr: 0x2CD68, symBinAddr: 0x100035690, symSize: 0x40 }
  - { offsetInCU: 0x729FB, offset: 0x88309, size: 0x8, addend: 0x0, symName: __ZNSt3__142__uninitialized_allocator_move_if_noexceptB7v160006INS_9allocatorIN4crow8mustache6ActionEEENS_16reverse_iteratorIPS4_EES8_S4_vEET1_RT_T0_SC_S9_, symObjAddr: 0x2CFD4, symBinAddr: 0x1000358FC, symSize: 0x78 }
  - { offsetInCU: 0x72A79, offset: 0x88387, size: 0x8, addend: 0x0, symName: __ZNSt3__14swapB7v160006IPN4crow8mustache6ActionEEENS_9enable_ifIXaasr21is_move_constructibleIT_EE5valuesr18is_move_assignableIS6_EE5valueEvE4typeERS6_S9_, symObjAddr: 0x2D098, symBinAddr: 0x1000359C0, symSize: 0x3C }
  - { offsetInCU: 0x72AD3, offset: 0x883E1, size: 0x8, addend: 0x0, symName: __ZNSt3__125__debug_db_invalidate_allB7v160006INS_6vectorIN4crow8mustache6ActionENS_9allocatorIS4_EEEEEEvPT_, symObjAddr: 0x2D180, symBinAddr: 0x100035AA8, symSize: 0x10 }
  - { offsetInCU: 0x72B07, offset: 0x88415, size: 0x8, addend: 0x0, symName: __ZNSt3__14moveB7v160006INS_16reverse_iteratorIPN4crow8mustache6ActionEEES6_EET0_T_S8_S7_, symObjAddr: 0x2D1D8, symBinAddr: 0x100035B00, symSize: 0x78 }
  - { offsetInCU: 0x72B69, offset: 0x88477, size: 0x8, addend: 0x0, symName: __ZNSt3__16__moveB7v160006INS_17_ClassicAlgPolicyENS_16reverse_iteratorIPN4crow8mustache6ActionEEES7_S7_EENS_4pairIT0_T2_EES9_T1_SA_, symObjAddr: 0x2D250, symBinAddr: 0x100035B78, symSize: 0x64 }
  - { offsetInCU: 0x72BDD, offset: 0x884EB, size: 0x8, addend: 0x0, symName: __ZNSt3__123__dispatch_copy_or_moveB7v160006INS_17_ClassicAlgPolicyENS_11__move_loopIS1_EENS_14__move_trivialENS_16reverse_iteratorIPN4crow8mustache6ActionEEESA_SA_EENS_4pairIT2_T4_EESC_T3_SD_, symObjAddr: 0x2D2B4, symBinAddr: 0x100035BDC, symSize: 0x64 }
  - { offsetInCU: 0x72C63, offset: 0x88571, size: 0x8, addend: 0x0, symName: __ZNSt3__121__unwrap_and_dispatchB7v160006INS_10__overloadINS_11__move_loopINS_17_ClassicAlgPolicyEEENS_14__move_trivialEEENS_16reverse_iteratorIPN4crow8mustache6ActionEEESC_SC_Li0EEENS_4pairIT0_T2_EESE_T1_SF_, symObjAddr: 0x2D318, symBinAddr: 0x100035C40, symSize: 0x12C }
  - { offsetInCU: 0x72CFF, offset: 0x8860D, size: 0x8, addend: 0x0, symName: __ZNSt3__114__unwrap_rangeB7v160006INS_16reverse_iteratorIPN4crow8mustache6ActionEEES6_EEDaT_T0_, symObjAddr: 0x2D444, symBinAddr: 0x100035D6C, symSize: 0x4C }
  - { offsetInCU: 0x73209, offset: 0x88B17, size: 0x8, addend: 0x0, symName: __ZNSt3__113__unwrap_iterB7v160006INS_16reverse_iteratorIPN4crow8mustache6ActionEEENS_18__unwrap_iter_implIS6_Lb0EEELi0EEEDTclsrT0_8__unwrapclsr3stdE7declvalIT_EEEESA_, symObjAddr: 0x2D530, symBinAddr: 0x100035E58, symSize: 0x44 }
  - { offsetInCU: 0x73251, offset: 0x88B5F, size: 0x8, addend: 0x0, symName: __ZNSt3__19make_pairB7v160006INS_16reverse_iteratorIPN4crow8mustache6ActionEEES6_EENS_4pairINS_18__unwrap_ref_decayIT_E4typeENS8_IT0_E4typeEEEOS9_OSC_, symObjAddr: 0x2D574, symBinAddr: 0x100035E9C, symSize: 0x38 }
  - { offsetInCU: 0x732A0, offset: 0x88BAE, size: 0x8, addend: 0x0, symName: __ZNSt3__114__rewrap_rangeB7v160006INS_16reverse_iteratorIPN4crow8mustache6ActionEEES6_S6_EET0_S7_T1_, symObjAddr: 0x2D5AC, symBinAddr: 0x100035ED4, symSize: 0x5C }
  - { offsetInCU: 0x732FB, offset: 0x88C09, size: 0x8, addend: 0x0, symName: __ZNSt3__113__rewrap_iterB7v160006INS_16reverse_iteratorIPN4crow8mustache6ActionEEES6_NS_18__unwrap_iter_implIS6_Lb0EEEEET_S9_T0_, symObjAddr: 0x2D608, symBinAddr: 0x100035F30, symSize: 0x74 }
  - { offsetInCU: 0x733AC, offset: 0x88CBA, size: 0x8, addend: 0x0, symName: __ZNSt3__1neB7v160006IPN4crow8mustache6ActionES4_EEbRKNS_16reverse_iteratorIT_EERKNS5_IT0_EE, symObjAddr: 0x2D770, symBinAddr: 0x100036098, symSize: 0x48 }
  - { offsetInCU: 0x737F0, offset: 0x890FE, size: 0x8, addend: 0x0, symName: __ZNSt3__110destroy_atB7v160006IN4crow8mustache6ActionELi0EEEvPT_, symObjAddr: 0x2DAFC, symBinAddr: 0x100036424, symSize: 0x24 }
  - { offsetInCU: 0x7382B, offset: 0x89139, size: 0x8, addend: 0x0, symName: __ZNSt3__112__destroy_atB7v160006IN4crow8mustache6ActionELi0EEEvPT_, symObjAddr: 0x2DB20, symBinAddr: 0x100036448, symSize: 0x10 }
  - { offsetInCU: 0x7388E, offset: 0x8919C, size: 0x8, addend: 0x0, symName: __ZNSt3__112construct_atB7v160006IiJiEPiEEPT_S3_DpOT0_, symObjAddr: 0x2DEA0, symBinAddr: 0x1000367A4, symSize: 0x2C }
  - { offsetInCU: 0x73906, offset: 0x89214, size: 0x8, addend: 0x0, symName: __ZNSt3__142__uninitialized_allocator_move_if_noexceptB7v160006INS_9allocatorIiEENS_16reverse_iteratorIPiEES5_ivEET1_RT_T0_S9_S6_, symObjAddr: 0x2E334, symBinAddr: 0x100036C38, symSize: 0x78 }
  - { offsetInCU: 0x73984, offset: 0x89292, size: 0x8, addend: 0x0, symName: __ZNSt3__14swapB7v160006IPiEENS_9enable_ifIXaasr21is_move_constructibleIT_EE5valuesr18is_move_assignableIS3_EE5valueEvE4typeERS3_S6_, symObjAddr: 0x2E3F8, symBinAddr: 0x100036CFC, symSize: 0x3C }
  - { offsetInCU: 0x739DE, offset: 0x892EC, size: 0x8, addend: 0x0, symName: __ZNSt3__125__debug_db_invalidate_allB7v160006INS_6vectorIiNS_9allocatorIiEEEEEEvPT_, symObjAddr: 0x2E434, symBinAddr: 0x100036D38, symSize: 0x10 }
  - { offsetInCU: 0x73A12, offset: 0x89320, size: 0x8, addend: 0x0, symName: __ZNSt3__14moveB7v160006INS_16reverse_iteratorIPiEES3_EET0_T_S5_S4_, symObjAddr: 0x2E444, symBinAddr: 0x100036D48, symSize: 0x78 }
  - { offsetInCU: 0x73A74, offset: 0x89382, size: 0x8, addend: 0x0, symName: __ZNSt3__16__moveB7v160006INS_17_ClassicAlgPolicyENS_16reverse_iteratorIPiEES4_S4_EENS_4pairIT0_T2_EES6_T1_S7_, symObjAddr: 0x2E4BC, symBinAddr: 0x100036DC0, symSize: 0x64 }
  - { offsetInCU: 0x73AE8, offset: 0x893F6, size: 0x8, addend: 0x0, symName: __ZNSt3__123__dispatch_copy_or_moveB7v160006INS_17_ClassicAlgPolicyENS_11__move_loopIS1_EENS_14__move_trivialENS_16reverse_iteratorIPiEES7_S7_EENS_4pairIT2_T4_EES9_T3_SA_, symObjAddr: 0x2E520, symBinAddr: 0x100036E24, symSize: 0x64 }
  - { offsetInCU: 0x73B6E, offset: 0x8947C, size: 0x8, addend: 0x0, symName: __ZNSt3__121__unwrap_and_dispatchB7v160006INS_10__overloadINS_11__move_loopINS_17_ClassicAlgPolicyEEENS_14__move_trivialEEENS_16reverse_iteratorIPiEES9_S9_Li0EEENS_4pairIT0_T2_EESB_T1_SC_, symObjAddr: 0x2E584, symBinAddr: 0x100036E88, symSize: 0x12C }
  - { offsetInCU: 0x73C0A, offset: 0x89518, size: 0x8, addend: 0x0, symName: __ZNSt3__114__unwrap_rangeB7v160006INS_16reverse_iteratorIPiEES3_EEDaT_T0_, symObjAddr: 0x2E6B0, symBinAddr: 0x100036FB4, symSize: 0x4C }
  - { offsetInCU: 0x73D30, offset: 0x8963E, size: 0x8, addend: 0x0, symName: __ZNSt3__113__unwrap_iterB7v160006INS_16reverse_iteratorIPiEENS_18__unwrap_iter_implIS3_Lb0EEELi0EEEDTclsrT0_8__unwrapclsr3stdE7declvalIT_EEEES7_, symObjAddr: 0x2E79C, symBinAddr: 0x1000370A0, symSize: 0x44 }
  - { offsetInCU: 0x73D78, offset: 0x89686, size: 0x8, addend: 0x0, symName: __ZNSt3__19make_pairB7v160006INS_16reverse_iteratorIPiEES3_EENS_4pairINS_18__unwrap_ref_decayIT_E4typeENS5_IT0_E4typeEEEOS6_OS9_, symObjAddr: 0x2E7E0, symBinAddr: 0x1000370E4, symSize: 0x38 }
  - { offsetInCU: 0x73DC7, offset: 0x896D5, size: 0x8, addend: 0x0, symName: __ZNSt3__114__rewrap_rangeB7v160006INS_16reverse_iteratorIPiEES3_S3_EET0_S4_T1_, symObjAddr: 0x2E818, symBinAddr: 0x10003711C, symSize: 0x5C }
  - { offsetInCU: 0x73E22, offset: 0x89730, size: 0x8, addend: 0x0, symName: __ZNSt3__113__rewrap_iterB7v160006INS_16reverse_iteratorIPiEES3_NS_18__unwrap_iter_implIS3_Lb0EEEEET_S6_T0_, symObjAddr: 0x2E874, symBinAddr: 0x100037178, symSize: 0x74 }
  - { offsetInCU: 0x73ED3, offset: 0x897E1, size: 0x8, addend: 0x0, symName: __ZNSt3__1neB7v160006IPiS1_EEbRKNS_16reverse_iteratorIT_EERKNS2_IT0_EE, symObjAddr: 0x2E9DC, symBinAddr: 0x1000372E0, symSize: 0x48 }
  - { offsetInCU: 0x73F91, offset: 0x8989F, size: 0x8, addend: 0x0, symName: __ZNSt3__112construct_atB7v160006IN4crow8mustache6ActionEJNS2_10ActionTypeERmS5_EPS3_EEPT_S8_DpOT0_, symObjAddr: 0x2EF20, symBinAddr: 0x100037824, symSize: 0x5C }
  - { offsetInCU: 0x74033, offset: 0x89941, size: 0x8, addend: 0x0, symName: __ZNSt3__112construct_atB7v160006IN4crow8mustache6ActionEJNS2_10ActionTypeERmS5_RiEPS3_EEPT_S9_DpOT0_, symObjAddr: 0x2F188, symBinAddr: 0x100037A60, symSize: 0x64 }
  - { offsetInCU: 0x740EA, offset: 0x899F8, size: 0x8, addend: 0x0, symName: __ZNSt3__112construct_atB7v160006IN4crow8mustache6ActionEJNS2_10ActionTypeEmRmEPS3_EEPT_S8_DpOT0_, symObjAddr: 0x2F4DC, symBinAddr: 0x100037DB4, symSize: 0x5C }
  - { offsetInCU: 0x7418D, offset: 0x89A9B, size: 0x8, addend: 0x0, symName: __ZNSt3__118__debug_db_erase_cB7v160006INS_6vectorIN4crow8mustache6ActionENS_9allocatorIS4_EEEEEEvPT_, symObjAddr: 0x2F66C, symBinAddr: 0x100037F44, symSize: 0x10 }
  - { offsetInCU: 0x741C2, offset: 0x89AD0, size: 0x8, addend: 0x0, symName: __ZNSt3__118__debug_db_erase_cB7v160006INS_6vectorINS_4pairIiiEENS_9allocatorIS3_EEEEEEvPT_, symObjAddr: 0x2F864, symBinAddr: 0x10003813C, symSize: 0x10 }
  - { offsetInCU: 0x74AE2, offset: 0x8A3F0, size: 0x8, addend: 0x0, symName: __ZNSt3__1eqB7v160006IcNS_11char_traitsIcEEEEbRKNS_19istreambuf_iteratorIT_T0_EES8_, symObjAddr: 0x302C8, symBinAddr: 0x100038AEC, symSize: 0x30 }
  - { offsetInCU: 0x74BDE, offset: 0x8A4EC, size: 0x8, addend: 0x0, symName: __ZNSt3__116forward_as_tupleB7v160006IJPFNS_12basic_stringIcNS_11char_traitsIcEENS_9allocatorIcEEEERKS6_EEEENS_5tupleIJDpOT_EEESE_, symObjAddr: 0x30D00, symBinAddr: 0x100039428, symSize: 0x2C }
  - { offsetInCU: 0x74C17, offset: 0x8A525, size: 0x8, addend: 0x0, symName: __ZNSt3__116forward_as_tupleB7v160006IJNS_9allocatorIPFNS_12basic_stringIcNS_11char_traitsIcEENS1_IcEEEERKS6_EEEEEENS_5tupleIJDpOT_EEESF_, symObjAddr: 0x30D2C, symBinAddr: 0x100039454, symSize: 0x2C }
  - { offsetInCU: 0x74C7E, offset: 0x8A58C, size: 0x8, addend: 0x0, symName: __ZNSt3__13getB7v160006ILm0EJOPFNS_12basic_stringIcNS_11char_traitsIcEENS_9allocatorIcEEEERKS6_EEEERNS_13tuple_elementIXT_ENS_5tupleIJDpT0_EEEE4typeERSG_, symObjAddr: 0x31044, symBinAddr: 0x10003976C, symSize: 0x24 }
  - { offsetInCU: 0x74CC2, offset: 0x8A5D0, size: 0x8, addend: 0x0, symName: __ZNSt3__13getB7v160006ILm0EJONS_9allocatorIPFNS_12basic_stringIcNS_11char_traitsIcEENS1_IcEEEERKS6_EEEEEERNS_13tuple_elementIXT_ENS_5tupleIJDpT0_EEEE4typeERSH_, symObjAddr: 0x31080, symBinAddr: 0x1000397A8, symSize: 0x24 }
  - { offsetInCU: 0x751F5, offset: 0x8AB03, size: 0x8, addend: 0x0, symName: __ZNSt3__116forward_as_tupleB7v160006IJRKPFNS_12basic_stringIcNS_11char_traitsIcEENS_9allocatorIcEEEERKS6_EEEENS_5tupleIJDpOT_EEESG_, symObjAddr: 0x31604, symBinAddr: 0x100039D2C, symSize: 0x2C }
  - { offsetInCU: 0x75245, offset: 0x8AB53, size: 0x8, addend: 0x0, symName: __ZNSt3__13getB7v160006ILm0EJRKPFNS_12basic_stringIcNS_11char_traitsIcEENS_9allocatorIcEEEERKS6_EEEERNS_13tuple_elementIXT_ENS_5tupleIJDpT0_EEEE4typeERSH_, symObjAddr: 0x317F4, symBinAddr: 0x100039F1C, symSize: 0x24 }
  - { offsetInCU: 0x75289, offset: 0x8AB97, size: 0x8, addend: 0x0, symName: __ZNSt3__116forward_as_tupleB7v160006IJRKNS_9allocatorIPFNS_12basic_stringIcNS_11char_traitsIcEENS1_IcEEEERKS6_EEEEEENS_5tupleIJDpOT_EEESH_, symObjAddr: 0x31B50, symBinAddr: 0x10003A278, symSize: 0x2C }
  - { offsetInCU: 0x752D9, offset: 0x8ABE7, size: 0x8, addend: 0x0, symName: __ZNSt3__13getB7v160006ILm0EJRKNS_9allocatorIPFNS_12basic_stringIcNS_11char_traitsIcEENS1_IcEEEERKS6_EEEEEERNS_13tuple_elementIXT_ENS_5tupleIJDpT0_EEEE4typeERSI_, symObjAddr: 0x31D34, symBinAddr: 0x10003A45C, symSize: 0x24 }
  - { offsetInCU: 0x7538A, offset: 0x8AC98, size: 0x8, addend: 0x0, symName: __ZNSt3__18__invokeB7v160006IRPFNS_12basic_stringIcNS_11char_traitsIcEENS_9allocatorIcEEEERKS6_EJS6_EEEDTclclsr3stdE7declvalIT_EEspclsr3stdE7declvalIT0_EEEEOSC_DpOSD_, symObjAddr: 0x31E14, symBinAddr: 0x10003A53C, symSize: 0x38 }
  - { offsetInCU: 0x753E1, offset: 0x8ACEF, size: 0x8, addend: 0x0, symName: __ZNSt3__119__debug_db_insert_cB7v160006INS_6vectorIPKN4crow4json6wvalueENS_9allocatorIS6_EEEEEEvPT_, symObjAddr: 0x32E70, symBinAddr: 0x10003B598, symSize: 0x10 }
  - { offsetInCU: 0x75415, offset: 0x8AD23, size: 0x8, addend: 0x0, symName: __ZNSt3__112__to_addressB7v160006IPKN4crow4json6wvalueEEEPT_S7_, symObjAddr: 0x331C0, symBinAddr: 0x10003B8E8, symSize: 0x14 }
  - { offsetInCU: 0x75473, offset: 0x8AD81, size: 0x8, addend: 0x0, symName: __ZNSt3__112construct_atB7v160006IPKN4crow4json6wvalueEJS5_EPS5_EEPT_S8_DpOT0_, symObjAddr: 0x33244, symBinAddr: 0x10003B96C, symSize: 0x2C }
  - { offsetInCU: 0x754EB, offset: 0x8ADF9, size: 0x8, addend: 0x0, symName: __ZNSt3__119__allocate_at_leastB7v160006INS_9allocatorIPKN4crow4json6wvalueEEEEENS_19__allocation_resultINS_16allocator_traitsIT_E7pointerEEERSA_m, symObjAddr: 0x337E0, symBinAddr: 0x10003BF08, symSize: 0x40 }
  - { offsetInCU: 0x75534, offset: 0x8AE42, size: 0x8, addend: 0x0, symName: __ZNSt3__142__uninitialized_allocator_move_if_noexceptB7v160006INS_9allocatorIPKN4crow4json6wvalueEEENS_16reverse_iteratorIPS6_EESA_S6_vEET1_RT_T0_SE_SB_, symObjAddr: 0x33A4C, symBinAddr: 0x10003C174, symSize: 0x78 }
  - { offsetInCU: 0x755B2, offset: 0x8AEC0, size: 0x8, addend: 0x0, symName: __ZNSt3__14swapB7v160006IPPKN4crow4json6wvalueEEENS_9enable_ifIXaasr21is_move_constructibleIT_EE5valuesr18is_move_assignableIS8_EE5valueEvE4typeERS8_SB_, symObjAddr: 0x33B10, symBinAddr: 0x10003C238, symSize: 0x3C }
  - { offsetInCU: 0x7560C, offset: 0x8AF1A, size: 0x8, addend: 0x0, symName: __ZNSt3__125__debug_db_invalidate_allB7v160006INS_6vectorIPKN4crow4json6wvalueENS_9allocatorIS6_EEEEEEvPT_, symObjAddr: 0x33BF8, symBinAddr: 0x10003C320, symSize: 0x10 }
  - { offsetInCU: 0x75640, offset: 0x8AF4E, size: 0x8, addend: 0x0, symName: __ZNSt3__14moveB7v160006INS_16reverse_iteratorIPPKN4crow4json6wvalueEEES8_EET0_T_SA_S9_, symObjAddr: 0x33C50, symBinAddr: 0x10003C378, symSize: 0x78 }
  - { offsetInCU: 0x756A2, offset: 0x8AFB0, size: 0x8, addend: 0x0, symName: __ZNSt3__16__moveB7v160006INS_17_ClassicAlgPolicyENS_16reverse_iteratorIPPKN4crow4json6wvalueEEES9_S9_EENS_4pairIT0_T2_EESB_T1_SC_, symObjAddr: 0x33CC8, symBinAddr: 0x10003C3F0, symSize: 0x64 }
  - { offsetInCU: 0x75716, offset: 0x8B024, size: 0x8, addend: 0x0, symName: __ZNSt3__123__dispatch_copy_or_moveB7v160006INS_17_ClassicAlgPolicyENS_11__move_loopIS1_EENS_14__move_trivialENS_16reverse_iteratorIPPKN4crow4json6wvalueEEESC_SC_EENS_4pairIT2_T4_EESE_T3_SF_, symObjAddr: 0x33D2C, symBinAddr: 0x10003C454, symSize: 0x64 }
  - { offsetInCU: 0x7579C, offset: 0x8B0AA, size: 0x8, addend: 0x0, symName: __ZNSt3__121__unwrap_and_dispatchB7v160006INS_10__overloadINS_11__move_loopINS_17_ClassicAlgPolicyEEENS_14__move_trivialEEENS_16reverse_iteratorIPPKN4crow4json6wvalueEEESE_SE_Li0EEENS_4pairIT0_T2_EESG_T1_SH_, symObjAddr: 0x33D90, symBinAddr: 0x10003C4B8, symSize: 0x12C }
  - { offsetInCU: 0x75838, offset: 0x8B146, size: 0x8, addend: 0x0, symName: __ZNSt3__114__unwrap_rangeB7v160006INS_16reverse_iteratorIPPKN4crow4json6wvalueEEES8_EEDaT_T0_, symObjAddr: 0x33EBC, symBinAddr: 0x10003C5E4, symSize: 0x4C }
  - { offsetInCU: 0x7595E, offset: 0x8B26C, size: 0x8, addend: 0x0, symName: __ZNSt3__113__unwrap_iterB7v160006INS_16reverse_iteratorIPPKN4crow4json6wvalueEEENS_18__unwrap_iter_implIS8_Lb0EEELi0EEEDTclsrT0_8__unwrapclsr3stdE7declvalIT_EEEESC_, symObjAddr: 0x33FA8, symBinAddr: 0x10003C6D0, symSize: 0x44 }
  - { offsetInCU: 0x759A6, offset: 0x8B2B4, size: 0x8, addend: 0x0, symName: __ZNSt3__19make_pairB7v160006INS_16reverse_iteratorIPPKN4crow4json6wvalueEEES8_EENS_4pairINS_18__unwrap_ref_decayIT_E4typeENSA_IT0_E4typeEEEOSB_OSE_, symObjAddr: 0x33FEC, symBinAddr: 0x10003C714, symSize: 0x38 }
  - { offsetInCU: 0x759F5, offset: 0x8B303, size: 0x8, addend: 0x0, symName: __ZNSt3__114__rewrap_rangeB7v160006INS_16reverse_iteratorIPPKN4crow4json6wvalueEEES8_S8_EET0_S9_T1_, symObjAddr: 0x34024, symBinAddr: 0x10003C74C, symSize: 0x5C }
  - { offsetInCU: 0x75A50, offset: 0x8B35E, size: 0x8, addend: 0x0, symName: __ZNSt3__113__rewrap_iterB7v160006INS_16reverse_iteratorIPPKN4crow4json6wvalueEEES8_NS_18__unwrap_iter_implIS8_Lb0EEEEET_SB_T0_, symObjAddr: 0x34080, symBinAddr: 0x10003C7A8, symSize: 0x74 }
  - { offsetInCU: 0x75B01, offset: 0x8B40F, size: 0x8, addend: 0x0, symName: __ZNSt3__1neB7v160006IPPKN4crow4json6wvalueES6_EEbRKNS_16reverse_iteratorIT_EERKNS7_IT0_EE, symObjAddr: 0x341E8, symBinAddr: 0x10003C910, symSize: 0x48 }
  - { offsetInCU: 0x75BC0, offset: 0x8B4CE, size: 0x8, addend: 0x0, symName: __ZNSt3__110destroy_atB7v160006IPKN4crow4json6wvalueELi0EEEvPT_, symObjAddr: 0x34574, symBinAddr: 0x10003CC9C, symSize: 0x24 }
  - { offsetInCU: 0x75BFB, offset: 0x8B509, size: 0x8, addend: 0x0, symName: __ZNSt3__112__destroy_atB7v160006IPKN4crow4json6wvalueELi0EEEvPT_, symObjAddr: 0x34598, symBinAddr: 0x10003CCC0, symSize: 0x10 }
  - { offsetInCU: 0x75C35, offset: 0x8B543, size: 0x8, addend: 0x0, symName: __ZNSt3__1neB7v160006INS_11__wrap_iterIPKPKN4crow4json6wvalueEEES9_EEbRKNS_16reverse_iteratorIT_EERKNSA_IT0_EE, symObjAddr: 0x358E0, symBinAddr: 0x10003E008, symSize: 0x54 }
  - { offsetInCU: 0x75C81, offset: 0x8B58F, size: 0x8, addend: 0x0, symName: __ZNSt3__1neB7v160006IPNS_12basic_stringIcNS_11char_traitsIcEENS_9allocatorIcEEEEEEbRKNS_11__wrap_iterIT_EESC_, symObjAddr: 0x35C6C, symBinAddr: 0x10003E394, symSize: 0x34 }
  - { offsetInCU: 0x75CC4, offset: 0x8B5D2, size: 0x8, addend: 0x0, symName: __ZNSt3__1neB7v160006IPKPKN4crow4json6wvalueEEEbRKNS_11__wrap_iterIT_EESC_, symObjAddr: 0x35D78, symBinAddr: 0x10003E4A0, symSize: 0x34 }
  - { offsetInCU: 0x75D07, offset: 0x8B615, size: 0x8, addend: 0x0, symName: __ZNSt3__1eqB7v160006IPKPKN4crow4json6wvalueEEEbRKNS_11__wrap_iterIT_EESC_, symObjAddr: 0x35DCC, symBinAddr: 0x10003E4F4, symSize: 0x48 }
  - { offsetInCU: 0x75D4A, offset: 0x8B658, size: 0x8, addend: 0x0, symName: __ZNSt3__1neB7v160006ERKNS_21__hash_const_iteratorIPNS_11__hash_nodeINS_17__hash_value_typeINS_12basic_stringIcNS_11char_traitsIcEENS_9allocatorIcEEEEN4crow4json6wvalueEEEPvEEEESI_, symObjAddr: 0x35EEC, symBinAddr: 0x10003E614, symSize: 0x34 }
  - { offsetInCU: 0x75D87, offset: 0x8B695, size: 0x8, addend: 0x0, symName: __ZNSt3__1eqB7v160006ERKNS_21__hash_const_iteratorIPNS_11__hash_nodeINS_17__hash_value_typeINS_12basic_stringIcNS_11char_traitsIcEENS_9allocatorIcEEEEN4crow4json6wvalueEEEPvEEEESI_, symObjAddr: 0x3610C, symBinAddr: 0x10003E834, symSize: 0x30 }
  - { offsetInCU: 0x75DC4, offset: 0x8B6D2, size: 0x8, addend: 0x0, symName: __ZNSt3__112construct_atB7v160006IiJRKiEPiEEPT_S5_DpOT0_, symObjAddr: 0x364CC, symBinAddr: 0x10003EBF4, symSize: 0x2C }
  - { offsetInCU: 0x75E3C, offset: 0x8B74A, size: 0x8, addend: 0x0, symName: __ZNSt3__1eqB7v160006IPNS_12basic_stringIcNS_11char_traitsIcEENS_9allocatorIcEEEEEEbRKNS_11__wrap_iterIT_EESC_, symObjAddr: 0x3658C, symBinAddr: 0x10003ECB4, symSize: 0x48 }
  - { offsetInCU: 0x7606D, offset: 0x8B97B, size: 0x8, addend: 0x0, symName: __ZNSt3__112construct_atB7v160006IPKN4crow4json6wvalueEJPS3_EPS5_EEPT_S9_DpOT0_, symObjAddr: 0x3703C, symBinAddr: 0x10003F24C, symSize: 0x2C }
  - { offsetInCU: 0x760E6, offset: 0x8B9F4, size: 0x8, addend: 0x0, symName: __ZNSt3__118__debug_db_erase_cB7v160006INS_6vectorIPKN4crow4json6wvalueENS_9allocatorIS6_EEEEEEvPT_, symObjAddr: 0x37534, symBinAddr: 0x10003F744, symSize: 0x10 }
  - { offsetInCU: 0x7611A, offset: 0x8BA28, size: 0x8, addend: 0x0, symName: __ZNSt3__14swapB7v160006IPNS_10__function6__baseIFvRN4crow7requestERNS3_8responseEEEEEENS_9enable_ifIXaasr21is_move_constructibleIT_EE5valuesr18is_move_assignableISC_EE5valueEvE4typeERSC_SF_, symObjAddr: 0x37B2C, symBinAddr: 0x10003FD3C, symSize: 0x3C }
  - { offsetInCU: 0x76228, offset: 0x8BB36, size: 0x8, addend: 0x0, symName: '__ZNSt3__116forward_as_tupleB7v160006IJZN4crow10TaggedRuleIJEEclIZ4mainE3$_1EEvOT_EUlRNS1_7requestERNS1_8responseEE_EEENS_5tupleIJDpOT_EEESG_', symObjAddr: 0x3832C, symBinAddr: 0x10004053C, symSize: 0x2C }
  - { offsetInCU: 0x76262, offset: 0x8BB70, size: 0x8, addend: 0x0, symName: '__ZNSt3__116forward_as_tupleB7v160006IJNS_9allocatorIZN4crow10TaggedRuleIJEEclIZ4mainE3$_1EEvOT_EUlRNS2_7requestERNS2_8responseEE_EEEEENS_5tupleIJDpOT_EEESI_', symObjAddr: 0x38358, symBinAddr: 0x100040568, symSize: 0x2C }
  - { offsetInCU: 0x762CA, offset: 0x8BBD8, size: 0x8, addend: 0x0, symName: '__ZNSt3__13getB7v160006ILm0EJOZN4crow10TaggedRuleIJEEclIZ4mainE3$_1EEvOT_EUlRNS1_7requestERNS1_8responseEE_EEERNS_13tuple_elementIXT_ENS_5tupleIJDpT0_EEEE4typeERSI_', symObjAddr: 0x38670, symBinAddr: 0x100040880, symSize: 0x24 }
  - { offsetInCU: 0x7630F, offset: 0x8BC1D, size: 0x8, addend: 0x0, symName: '__ZNSt3__13getB7v160006ILm0EJONS_9allocatorIZN4crow10TaggedRuleIJEEclIZ4mainE3$_1EEvOT_EUlRNS2_7requestERNS2_8responseEE_EEEEERNS_13tuple_elementIXT_ENS_5tupleIJDpT0_EEEE4typeERSK_', symObjAddr: 0x386AC, symBinAddr: 0x1000408BC, symSize: 0x24 }
  - { offsetInCU: 0x76866, offset: 0x8C174, size: 0x8, addend: 0x0, symName: '__ZNSt3__116forward_as_tupleB7v160006IJRKZN4crow10TaggedRuleIJEEclIZ4mainE3$_1EEvOT_EUlRNS1_7requestERNS1_8responseEE_EEENS_5tupleIJDpOT_EEESI_', symObjAddr: 0x38C30, symBinAddr: 0x100040E40, symSize: 0x2C }
  - { offsetInCU: 0x768B7, offset: 0x8C1C5, size: 0x8, addend: 0x0, symName: '__ZNSt3__13getB7v160006ILm0EJRKZN4crow10TaggedRuleIJEEclIZ4mainE3$_1EEvOT_EUlRNS1_7requestERNS1_8responseEE_EEERNS_13tuple_elementIXT_ENS_5tupleIJDpT0_EEEE4typeERSJ_', symObjAddr: 0x38E20, symBinAddr: 0x100041030, symSize: 0x24 }
  - { offsetInCU: 0x768FC, offset: 0x8C20A, size: 0x8, addend: 0x0, symName: '__ZNSt3__116forward_as_tupleB7v160006IJRKNS_9allocatorIZN4crow10TaggedRuleIJEEclIZ4mainE3$_1EEvOT_EUlRNS2_7requestERNS2_8responseEE_EEEEENS_5tupleIJDpOT_EEESK_', symObjAddr: 0x3917C, symBinAddr: 0x10004138C, symSize: 0x2C }
  - { offsetInCU: 0x7694D, offset: 0x8C25B, size: 0x8, addend: 0x0, symName: '__ZNSt3__13getB7v160006ILm0EJRKNS_9allocatorIZN4crow10TaggedRuleIJEEclIZ4mainE3$_1EEvOT_EUlRNS2_7requestERNS2_8responseEE_EEEEERNS_13tuple_elementIXT_ENS_5tupleIJDpT0_EEEE4typeERSL_', symObjAddr: 0x39360, symBinAddr: 0x100041570, symSize: 0x24 }
  - { offsetInCU: 0x76993, offset: 0x8C2A1, size: 0x8, addend: 0x0, symName: '__ZNSt3__18__invokeB7v160006IRZN4crow10TaggedRuleIJEEclIZ4mainE3$_1EEvOT_EUlRNS1_7requestERNS1_8responseEE_JS9_SB_EEEDTclclsr3stdE7declvalIS6_EEspclsr3stdE7declvalIT0_EEEES7_DpOSE_', symObjAddr: 0x3943C, symBinAddr: 0x10004164C, symSize: 0x34 }
  - { offsetInCU: 0x76AB0, offset: 0x8C3BE, size: 0x8, addend: 0x0, symName: '__ZNSt3__116forward_as_tupleB7v160006IJZN4crow10TaggedRuleIJEEclIZ4mainE3$_2EEvOT_EUlRNS1_7requestERNS1_8responseEE_EEENS_5tupleIJDpOT_EEESG_', symObjAddr: 0x39F18, symBinAddr: 0x100042128, symSize: 0x2C }
  - { offsetInCU: 0x76AEA, offset: 0x8C3F8, size: 0x8, addend: 0x0, symName: '__ZNSt3__116forward_as_tupleB7v160006IJNS_9allocatorIZN4crow10TaggedRuleIJEEclIZ4mainE3$_2EEvOT_EUlRNS2_7requestERNS2_8responseEE_EEEEENS_5tupleIJDpOT_EEESI_', symObjAddr: 0x39F44, symBinAddr: 0x100042154, symSize: 0x2C }
  - { offsetInCU: 0x76B52, offset: 0x8C460, size: 0x8, addend: 0x0, symName: '__ZNSt3__13getB7v160006ILm0EJOZN4crow10TaggedRuleIJEEclIZ4mainE3$_2EEvOT_EUlRNS1_7requestERNS1_8responseEE_EEERNS_13tuple_elementIXT_ENS_5tupleIJDpT0_EEEE4typeERSI_', symObjAddr: 0x3A25C, symBinAddr: 0x10004246C, symSize: 0x24 }
  - { offsetInCU: 0x76B97, offset: 0x8C4A5, size: 0x8, addend: 0x0, symName: '__ZNSt3__13getB7v160006ILm0EJONS_9allocatorIZN4crow10TaggedRuleIJEEclIZ4mainE3$_2EEvOT_EUlRNS2_7requestERNS2_8responseEE_EEEEERNS_13tuple_elementIXT_ENS_5tupleIJDpT0_EEEE4typeERSK_', symObjAddr: 0x3A298, symBinAddr: 0x1000424A8, symSize: 0x24 }
  - { offsetInCU: 0x770EE, offset: 0x8C9FC, size: 0x8, addend: 0x0, symName: '__ZNSt3__116forward_as_tupleB7v160006IJRKZN4crow10TaggedRuleIJEEclIZ4mainE3$_2EEvOT_EUlRNS1_7requestERNS1_8responseEE_EEENS_5tupleIJDpOT_EEESI_', symObjAddr: 0x3A81C, symBinAddr: 0x100042A2C, symSize: 0x2C }
  - { offsetInCU: 0x7713F, offset: 0x8CA4D, size: 0x8, addend: 0x0, symName: '__ZNSt3__13getB7v160006ILm0EJRKZN4crow10TaggedRuleIJEEclIZ4mainE3$_2EEvOT_EUlRNS1_7requestERNS1_8responseEE_EEERNS_13tuple_elementIXT_ENS_5tupleIJDpT0_EEEE4typeERSJ_', symObjAddr: 0x3AA0C, symBinAddr: 0x100042C1C, symSize: 0x24 }
  - { offsetInCU: 0x77184, offset: 0x8CA92, size: 0x8, addend: 0x0, symName: '__ZNSt3__116forward_as_tupleB7v160006IJRKNS_9allocatorIZN4crow10TaggedRuleIJEEclIZ4mainE3$_2EEvOT_EUlRNS2_7requestERNS2_8responseEE_EEEEENS_5tupleIJDpOT_EEESK_', symObjAddr: 0x3AD68, symBinAddr: 0x100042F78, symSize: 0x2C }
  - { offsetInCU: 0x771D5, offset: 0x8CAE3, size: 0x8, addend: 0x0, symName: '__ZNSt3__13getB7v160006ILm0EJRKNS_9allocatorIZN4crow10TaggedRuleIJEEclIZ4mainE3$_2EEvOT_EUlRNS2_7requestERNS2_8responseEE_EEEEERNS_13tuple_elementIXT_ENS_5tupleIJDpT0_EEEE4typeERSL_', symObjAddr: 0x3AF4C, symBinAddr: 0x10004315C, symSize: 0x24 }
  - { offsetInCU: 0x7721B, offset: 0x8CB29, size: 0x8, addend: 0x0, symName: '__ZNSt3__18__invokeB7v160006IRZN4crow10TaggedRuleIJEEclIZ4mainE3$_2EEvOT_EUlRNS1_7requestERNS1_8responseEE_JS9_SB_EEEDTclclsr3stdE7declvalIS6_EEspclsr3stdE7declvalIT0_EEEES7_DpOSE_', symObjAddr: 0x3B028, symBinAddr: 0x100043238, symSize: 0x34 }
  - { offsetInCU: 0x77283, offset: 0x8CB91, size: 0x8, addend: 0x0, symName: __ZNSt3__14swapB7v160006IPNS_13__assoc_stateINS_12basic_stringIcNS_11char_traitsIcEENS_9allocatorIcEEEEEEEENS_9enable_ifIXaasr21is_move_constructibleIT_EE5valuesr18is_move_assignableISB_EE5valueEvE4typeERSB_SE_, symObjAddr: 0x3B2A4, symBinAddr: 0x1000434B4, symSize: 0x3C }
  - { offsetInCU: 0x77391, offset: 0x8CC9F, size: 0x8, addend: 0x0, symName: '__ZNSt3__116forward_as_tupleB7v160006IJZN4crow10TaggedRuleIJEEclIZ4mainE3$_3EEvOT_EUlRNS1_7requestERNS1_8responseEE_EEENS_5tupleIJDpOT_EEESG_', symObjAddr: 0x3BAB8, symBinAddr: 0x100043CC8, symSize: 0x2C }
  - { offsetInCU: 0x773CB, offset: 0x8CCD9, size: 0x8, addend: 0x0, symName: '__ZNSt3__116forward_as_tupleB7v160006IJNS_9allocatorIZN4crow10TaggedRuleIJEEclIZ4mainE3$_3EEvOT_EUlRNS2_7requestERNS2_8responseEE_EEEEENS_5tupleIJDpOT_EEESI_', symObjAddr: 0x3BAE4, symBinAddr: 0x100043CF4, symSize: 0x2C }
  - { offsetInCU: 0x77433, offset: 0x8CD41, size: 0x8, addend: 0x0, symName: '__ZNSt3__13getB7v160006ILm0EJOZN4crow10TaggedRuleIJEEclIZ4mainE3$_3EEvOT_EUlRNS1_7requestERNS1_8responseEE_EEERNS_13tuple_elementIXT_ENS_5tupleIJDpT0_EEEE4typeERSI_', symObjAddr: 0x3BDFC, symBinAddr: 0x10004400C, symSize: 0x24 }
  - { offsetInCU: 0x77478, offset: 0x8CD86, size: 0x8, addend: 0x0, symName: '__ZNSt3__13getB7v160006ILm0EJONS_9allocatorIZN4crow10TaggedRuleIJEEclIZ4mainE3$_3EEvOT_EUlRNS2_7requestERNS2_8responseEE_EEEEERNS_13tuple_elementIXT_ENS_5tupleIJDpT0_EEEE4typeERSK_', symObjAddr: 0x3BE38, symBinAddr: 0x100044048, symSize: 0x24 }
  - { offsetInCU: 0x779CF, offset: 0x8D2DD, size: 0x8, addend: 0x0, symName: '__ZNSt3__116forward_as_tupleB7v160006IJRKZN4crow10TaggedRuleIJEEclIZ4mainE3$_3EEvOT_EUlRNS1_7requestERNS1_8responseEE_EEENS_5tupleIJDpOT_EEESI_', symObjAddr: 0x3C3BC, symBinAddr: 0x1000445CC, symSize: 0x2C }
  - { offsetInCU: 0x77A20, offset: 0x8D32E, size: 0x8, addend: 0x0, symName: '__ZNSt3__13getB7v160006ILm0EJRKZN4crow10TaggedRuleIJEEclIZ4mainE3$_3EEvOT_EUlRNS1_7requestERNS1_8responseEE_EEERNS_13tuple_elementIXT_ENS_5tupleIJDpT0_EEEE4typeERSJ_', symObjAddr: 0x3C5AC, symBinAddr: 0x1000447BC, symSize: 0x24 }
  - { offsetInCU: 0x77A65, offset: 0x8D373, size: 0x8, addend: 0x0, symName: '__ZNSt3__116forward_as_tupleB7v160006IJRKNS_9allocatorIZN4crow10TaggedRuleIJEEclIZ4mainE3$_3EEvOT_EUlRNS2_7requestERNS2_8responseEE_EEEEENS_5tupleIJDpOT_EEESK_', symObjAddr: 0x3C908, symBinAddr: 0x100044B18, symSize: 0x2C }
  - { offsetInCU: 0x77AB6, offset: 0x8D3C4, size: 0x8, addend: 0x0, symName: '__ZNSt3__13getB7v160006ILm0EJRKNS_9allocatorIZN4crow10TaggedRuleIJEEclIZ4mainE3$_3EEvOT_EUlRNS2_7requestERNS2_8responseEE_EEEEERNS_13tuple_elementIXT_ENS_5tupleIJDpT0_EEEE4typeERSL_', symObjAddr: 0x3CAEC, symBinAddr: 0x100044CFC, symSize: 0x24 }
  - { offsetInCU: 0x77AFC, offset: 0x8D40A, size: 0x8, addend: 0x0, symName: '__ZNSt3__18__invokeB7v160006IRZN4crow10TaggedRuleIJEEclIZ4mainE3$_3EEvOT_EUlRNS1_7requestERNS1_8responseEE_JS9_SB_EEEDTclclsr3stdE7declvalIS6_EEspclsr3stdE7declvalIT0_EEEES7_DpOSE_', symObjAddr: 0x3CBC8, symBinAddr: 0x100044DD8, symSize: 0x34 }
  - { offsetInCU: 0x77C19, offset: 0x8D527, size: 0x8, addend: 0x0, symName: '__ZNSt3__116forward_as_tupleB7v160006IJZN4crow10TaggedRuleIJEEclIZ4mainE3$_4EEvOT_EUlRNS1_7requestERNS1_8responseEE_EEENS_5tupleIJDpOT_EEESG_', symObjAddr: 0x3D908, symBinAddr: 0x100045A8C, symSize: 0x2C }
  - { offsetInCU: 0x77C53, offset: 0x8D561, size: 0x8, addend: 0x0, symName: '__ZNSt3__116forward_as_tupleB7v160006IJNS_9allocatorIZN4crow10TaggedRuleIJEEclIZ4mainE3$_4EEvOT_EUlRNS2_7requestERNS2_8responseEE_EEEEENS_5tupleIJDpOT_EEESI_', symObjAddr: 0x3D934, symBinAddr: 0x100045AB8, symSize: 0x2C }
  - { offsetInCU: 0x77CBB, offset: 0x8D5C9, size: 0x8, addend: 0x0, symName: '__ZNSt3__13getB7v160006ILm0EJOZN4crow10TaggedRuleIJEEclIZ4mainE3$_4EEvOT_EUlRNS1_7requestERNS1_8responseEE_EEERNS_13tuple_elementIXT_ENS_5tupleIJDpT0_EEEE4typeERSI_', symObjAddr: 0x3DC4C, symBinAddr: 0x100045DD0, symSize: 0x24 }
  - { offsetInCU: 0x77D00, offset: 0x8D60E, size: 0x8, addend: 0x0, symName: '__ZNSt3__13getB7v160006ILm0EJONS_9allocatorIZN4crow10TaggedRuleIJEEclIZ4mainE3$_4EEvOT_EUlRNS2_7requestERNS2_8responseEE_EEEEERNS_13tuple_elementIXT_ENS_5tupleIJDpT0_EEEE4typeERSK_', symObjAddr: 0x3DC88, symBinAddr: 0x100045E0C, symSize: 0x24 }
  - { offsetInCU: 0x78257, offset: 0x8DB65, size: 0x8, addend: 0x0, symName: '__ZNSt3__116forward_as_tupleB7v160006IJRKZN4crow10TaggedRuleIJEEclIZ4mainE3$_4EEvOT_EUlRNS1_7requestERNS1_8responseEE_EEENS_5tupleIJDpOT_EEESI_', symObjAddr: 0x3E20C, symBinAddr: 0x100046390, symSize: 0x2C }
  - { offsetInCU: 0x782A8, offset: 0x8DBB6, size: 0x8, addend: 0x0, symName: '__ZNSt3__13getB7v160006ILm0EJRKZN4crow10TaggedRuleIJEEclIZ4mainE3$_4EEvOT_EUlRNS1_7requestERNS1_8responseEE_EEERNS_13tuple_elementIXT_ENS_5tupleIJDpT0_EEEE4typeERSJ_', symObjAddr: 0x3E3FC, symBinAddr: 0x100046580, symSize: 0x24 }
  - { offsetInCU: 0x782ED, offset: 0x8DBFB, size: 0x8, addend: 0x0, symName: '__ZNSt3__116forward_as_tupleB7v160006IJRKNS_9allocatorIZN4crow10TaggedRuleIJEEclIZ4mainE3$_4EEvOT_EUlRNS2_7requestERNS2_8responseEE_EEEEENS_5tupleIJDpOT_EEESK_', symObjAddr: 0x3E758, symBinAddr: 0x1000468DC, symSize: 0x2C }
  - { offsetInCU: 0x7833E, offset: 0x8DC4C, size: 0x8, addend: 0x0, symName: '__ZNSt3__13getB7v160006ILm0EJRKNS_9allocatorIZN4crow10TaggedRuleIJEEclIZ4mainE3$_4EEvOT_EUlRNS2_7requestERNS2_8responseEE_EEEEERNS_13tuple_elementIXT_ENS_5tupleIJDpT0_EEEE4typeERSL_', symObjAddr: 0x3E93C, symBinAddr: 0x100046AC0, symSize: 0x24 }
  - { offsetInCU: 0x78384, offset: 0x8DC92, size: 0x8, addend: 0x0, symName: '__ZNSt3__18__invokeB7v160006IRZN4crow10TaggedRuleIJEEclIZ4mainE3$_4EEvOT_EUlRNS1_7requestERNS1_8responseEE_JS9_SB_EEEDTclclsr3stdE7declvalIS6_EEspclsr3stdE7declvalIT0_EEEES7_DpOSE_', symObjAddr: 0x3EA18, symBinAddr: 0x100046B9C, symSize: 0x34 }
  - { offsetInCU: 0x783EC, offset: 0x8DCFA, size: 0x8, addend: 0x0, symName: __ZNSt3__122__safe_nanosecond_castB7v160006IxNS_5ratioILl1ELl1000000000EEEEENS_9enable_ifIXntsr17is_floating_pointIT_EE5valueENS_6chrono8durationIxS2_EEE4typeENS6_IS4_T0_EE, symObjAddr: 0x3F0BC, symBinAddr: 0x100047240, symSize: 0x150 }
  - { offsetInCU: 0x7864B, offset: 0x8DF59, size: 0x8, addend: 0x0, symName: __ZNSt3__122__safe_nanosecond_castB7v160006IxNS_5ratioILl1ELl1000000EEEEENS_9enable_ifIXntsr17is_floating_pointIT_EE5valueENS_6chrono8durationIxNS1_ILl1ELl1000000000EEEEEE4typeENS6_IS4_T0_EE, symObjAddr: 0x3F714, symBinAddr: 0x100047898, symSize: 0x154 }
  - { offsetInCU: 0x78B5E, offset: 0x8E46C, size: 0x8, addend: 0x0, symName: '__ZNSt3__116forward_as_tupleB7v160006IJZN4crow10TaggedRuleIJEEclIZ4mainE3$_5EEvOT_EUlRNS1_7requestERNS1_8responseEE_EEENS_5tupleIJDpOT_EEESG_', symObjAddr: 0x408BC, symBinAddr: 0x100048A40, symSize: 0x2C }
  - { offsetInCU: 0x78B98, offset: 0x8E4A6, size: 0x8, addend: 0x0, symName: '__ZNSt3__116forward_as_tupleB7v160006IJNS_9allocatorIZN4crow10TaggedRuleIJEEclIZ4mainE3$_5EEvOT_EUlRNS2_7requestERNS2_8responseEE_EEEEENS_5tupleIJDpOT_EEESI_', symObjAddr: 0x408E8, symBinAddr: 0x100048A6C, symSize: 0x2C }
  - { offsetInCU: 0x78C00, offset: 0x8E50E, size: 0x8, addend: 0x0, symName: '__ZNSt3__13getB7v160006ILm0EJOZN4crow10TaggedRuleIJEEclIZ4mainE3$_5EEvOT_EUlRNS1_7requestERNS1_8responseEE_EEERNS_13tuple_elementIXT_ENS_5tupleIJDpT0_EEEE4typeERSI_', symObjAddr: 0x40C00, symBinAddr: 0x100048D84, symSize: 0x24 }
  - { offsetInCU: 0x78C45, offset: 0x8E553, size: 0x8, addend: 0x0, symName: '__ZNSt3__13getB7v160006ILm0EJONS_9allocatorIZN4crow10TaggedRuleIJEEclIZ4mainE3$_5EEvOT_EUlRNS2_7requestERNS2_8responseEE_EEEEERNS_13tuple_elementIXT_ENS_5tupleIJDpT0_EEEE4typeERSK_', symObjAddr: 0x40C3C, symBinAddr: 0x100048DC0, symSize: 0x24 }
  - { offsetInCU: 0x7919C, offset: 0x8EAAA, size: 0x8, addend: 0x0, symName: '__ZNSt3__116forward_as_tupleB7v160006IJRKZN4crow10TaggedRuleIJEEclIZ4mainE3$_5EEvOT_EUlRNS1_7requestERNS1_8responseEE_EEENS_5tupleIJDpOT_EEESI_', symObjAddr: 0x411C4, symBinAddr: 0x100049348, symSize: 0x2C }
  - { offsetInCU: 0x791ED, offset: 0x8EAFB, size: 0x8, addend: 0x0, symName: '__ZNSt3__13getB7v160006ILm0EJRKZN4crow10TaggedRuleIJEEclIZ4mainE3$_5EEvOT_EUlRNS1_7requestERNS1_8responseEE_EEERNS_13tuple_elementIXT_ENS_5tupleIJDpT0_EEEE4typeERSJ_', symObjAddr: 0x413B4, symBinAddr: 0x100049538, symSize: 0x24 }
  - { offsetInCU: 0x79232, offset: 0x8EB40, size: 0x8, addend: 0x0, symName: '__ZNSt3__116forward_as_tupleB7v160006IJRKNS_9allocatorIZN4crow10TaggedRuleIJEEclIZ4mainE3$_5EEvOT_EUlRNS2_7requestERNS2_8responseEE_EEEEENS_5tupleIJDpOT_EEESK_', symObjAddr: 0x41714, symBinAddr: 0x100049898, symSize: 0x2C }
  - { offsetInCU: 0x79283, offset: 0x8EB91, size: 0x8, addend: 0x0, symName: '__ZNSt3__13getB7v160006ILm0EJRKNS_9allocatorIZN4crow10TaggedRuleIJEEclIZ4mainE3$_5EEvOT_EUlRNS2_7requestERNS2_8responseEE_EEEEERNS_13tuple_elementIXT_ENS_5tupleIJDpT0_EEEE4typeERSL_', symObjAddr: 0x418F8, symBinAddr: 0x100049A7C, symSize: 0x24 }
  - { offsetInCU: 0x792C9, offset: 0x8EBD7, size: 0x8, addend: 0x0, symName: '__ZNSt3__18__invokeB7v160006IRZN4crow10TaggedRuleIJEEclIZ4mainE3$_5EEvOT_EUlRNS1_7requestERNS1_8responseEE_JS9_SB_EEEDTclclsr3stdE7declvalIS6_EEspclsr3stdE7declvalIT0_EEEES7_DpOSE_', symObjAddr: 0x419D4, symBinAddr: 0x100049B58, symSize: 0x34 }
  - { offsetInCU: 0x79331, offset: 0x8EC3F, size: 0x8, addend: 0x0, symName: __ZNSt3__1neB7v160006IPiEEbRKNS_11__wrap_iterIT_EES6_, symObjAddr: 0x42A08, symBinAddr: 0x10004A9BC, symSize: 0x34 }
  - { offsetInCU: 0x79375, offset: 0x8EC83, size: 0x8, addend: 0x0, symName: __ZNSt3__17replaceB7v160006INS_11__wrap_iterIPcEEcEEvT_S4_RKT0_S7_, symObjAddr: 0x43008, symBinAddr: 0x10004AFBC, symSize: 0x94 }
  - { offsetInCU: 0x79406, offset: 0x8ED14, size: 0x8, addend: 0x0, symName: __ZNSt3__1neB7v160006IPPN4crow9BlueprintEEEbRKNS_11__wrap_iterIT_EES9_, symObjAddr: 0x432AC, symBinAddr: 0x10004B1C0, symSize: 0x34 }
  - { offsetInCU: 0x79449, offset: 0x8ED57, size: 0x8, addend: 0x0, symName: __ZNSt3__112construct_atB7v160006INS_10unique_ptrIN4crow8BaseRuleENS_14default_deleteIS3_EEEEJRPNS2_10TaggedRuleIJNS_12basic_stringIcNS_11char_traitsIcEENS_9allocatorIcEEEEEEEEPS6_EEPT_SJ_DpOT0_, symObjAddr: 0x443F8, symBinAddr: 0x10004C1AC, symSize: 0x40 }
  - { offsetInCU: 0x79A60, offset: 0x8F36E, size: 0x8, addend: 0x0, symName: __ZNSt3__116forward_as_tupleB7v160006IJZN4crow10TaggedRuleIJNS_12basic_stringIcNS_11char_traitsIcEENS_9allocatorIcEEEEEEclIZNS1_4CrowIJEE8validateEvEUlRNS1_8responseES8_E_EEvOT_EUlRNS1_7requestESE_S8_E_EEENS_5tupleIJDpOT_EEESO_, symObjAddr: 0x450A8, symBinAddr: 0x10004CE5C, symSize: 0x2C }
  - { offsetInCU: 0x79A99, offset: 0x8F3A7, size: 0x8, addend: 0x0, symName: __ZNSt3__116forward_as_tupleB7v160006IJNS_9allocatorIZN4crow10TaggedRuleIJNS_12basic_stringIcNS_11char_traitsIcEENS1_IcEEEEEEclIZNS2_4CrowIJEE8validateEvEUlRNS2_8responseES8_E_EEvOT_EUlRNS2_7requestESE_S8_E_EEEEENS_5tupleIJDpOT_EEESP_, symObjAddr: 0x450D4, symBinAddr: 0x10004CE88, symSize: 0x2C }
  - { offsetInCU: 0x79B00, offset: 0x8F40E, size: 0x8, addend: 0x0, symName: __ZNSt3__13getB7v160006ILm0EJOZN4crow10TaggedRuleIJNS_12basic_stringIcNS_11char_traitsIcEENS_9allocatorIcEEEEEEclIZNS1_4CrowIJEE8validateEvEUlRNS1_8responseES8_E_EEvOT_EUlRNS1_7requestESE_S8_E_EEERNS_13tuple_elementIXT_ENS_5tupleIJDpT0_EEEE4typeERSQ_, symObjAddr: 0x45440, symBinAddr: 0x10004D1F4, symSize: 0x24 }
  - { offsetInCU: 0x79B44, offset: 0x8F452, size: 0x8, addend: 0x0, symName: __ZNSt3__13getB7v160006ILm0EJONS_9allocatorIZN4crow10TaggedRuleIJNS_12basic_stringIcNS_11char_traitsIcEENS1_IcEEEEEEclIZNS2_4CrowIJEE8validateEvEUlRNS2_8responseES8_E_EEvOT_EUlRNS2_7requestESE_S8_E_EEEEERNS_13tuple_elementIXT_ENS_5tupleIJDpT0_EEEE4typeERSR_, symObjAddr: 0x4547C, symBinAddr: 0x10004D230, symSize: 0x24 }
  - { offsetInCU: 0x79D14, offset: 0x8F622, size: 0x8, addend: 0x0, symName: __ZNSt3__116forward_as_tupleB7v160006IJRKZN4crow10TaggedRuleIJNS_12basic_stringIcNS_11char_traitsIcEENS_9allocatorIcEEEEEEclIZNS1_4CrowIJEE8validateEvEUlRNS1_8responseES8_E_EEvOT_EUlRNS1_7requestESE_S8_E_EEENS_5tupleIJDpOT_EEESQ_, symObjAddr: 0x45944, symBinAddr: 0x10004D6F8, symSize: 0x2C }
  - { offsetInCU: 0x79D64, offset: 0x8F672, size: 0x8, addend: 0x0, symName: __ZNSt3__13getB7v160006ILm0EJRKZN4crow10TaggedRuleIJNS_12basic_stringIcNS_11char_traitsIcEENS_9allocatorIcEEEEEEclIZNS1_4CrowIJEE8validateEvEUlRNS1_8responseES8_E_EEvOT_EUlRNS1_7requestESE_S8_E_EEERNS_13tuple_elementIXT_ENS_5tupleIJDpT0_EEEE4typeERSR_, symObjAddr: 0x45B34, symBinAddr: 0x10004D8E8, symSize: 0x24 }
  - { offsetInCU: 0x79DA8, offset: 0x8F6B6, size: 0x8, addend: 0x0, symName: __ZNSt3__116forward_as_tupleB7v160006IJRKNS_9allocatorIZN4crow10TaggedRuleIJNS_12basic_stringIcNS_11char_traitsIcEENS1_IcEEEEEEclIZNS2_4CrowIJEE8validateEvEUlRNS2_8responseES8_E_EEvOT_EUlRNS2_7requestESE_S8_E_EEEEENS_5tupleIJDpOT_EEESR_, symObjAddr: 0x45F60, symBinAddr: 0x10004DD14, symSize: 0x2C }
  - { offsetInCU: 0x79DF8, offset: 0x8F706, size: 0x8, addend: 0x0, symName: __ZNSt3__13getB7v160006ILm0EJRKNS_9allocatorIZN4crow10TaggedRuleIJNS_12basic_stringIcNS_11char_traitsIcEENS1_IcEEEEEEclIZNS2_4CrowIJEE8validateEvEUlRNS2_8responseES8_E_EEvOT_EUlRNS2_7requestESE_S8_E_EEEEERNS_13tuple_elementIXT_ENS_5tupleIJDpT0_EEEE4typeERSS_, symObjAddr: 0x4616C, symBinAddr: 0x10004DF20, symSize: 0x24 }
  - { offsetInCU: 0x79E3D, offset: 0x8F74B, size: 0x8, addend: 0x0, symName: __ZNSt3__18__invokeB7v160006IRZN4crow10TaggedRuleIJNS_12basic_stringIcNS_11char_traitsIcEENS_9allocatorIcEEEEEEclIZNS1_4CrowIJEE8validateEvEUlRNS1_8responseES8_E_EEvOT_EUlRNS1_7requestESE_S8_E_JSJ_SE_S8_EEEDTclclsr3stdE7declvalISG_EEspclsr3stdE7declvalIT0_EEEESH_DpOSM_, symObjAddr: 0x4626C, symBinAddr: 0x10004E020, symSize: 0x90 }
  - { offsetInCU: 0x79EBB, offset: 0x8F7C9, size: 0x8, addend: 0x0, symName: __ZNSt3__1plB7v160006IcNS_11char_traitsIcEENS_9allocatorIcEEEENS_12basic_stringIT_T0_T1_EERKS9_SB_, symObjAddr: 0x46680, symBinAddr: 0x10004E434, symSize: 0x134 }
  - { offsetInCU: 0x79F5C, offset: 0x8F86A, size: 0x8, addend: 0x0, symName: __ZNSt3__118__str_find_last_ofB7v160006IcmNS_11char_traitsIcEELm18446744073709551615EEET0_PKT_S3_S6_S3_S3_, symObjAddr: 0x469DC, symBinAddr: 0x10004E790, symSize: 0xFC }
  - { offsetInCU: 0x7A02E, offset: 0x8F93C, size: 0x8, addend: 0x0, symName: __ZNSt3__1neB7v160006ERKNS_25__hash_map_const_iteratorINS_21__hash_const_iteratorIPNS_11__hash_nodeINS_17__hash_value_typeINS_12basic_stringIcNS_11char_traitsIcEENS_9allocatorIcEEEES9_EEPvEEEEEESH_, symObjAddr: 0x46B18, symBinAddr: 0x10004E8CC, symSize: 0x30 }
  - { offsetInCU: 0x7A06B, offset: 0x8F979, size: 0x8, addend: 0x0, symName: __ZNSt3__1neB7v160006ERKNS_21__hash_const_iteratorIPNS_11__hash_nodeINS_17__hash_value_typeINS_12basic_stringIcNS_11char_traitsIcEENS_9allocatorIcEEEES8_EEPvEEEESF_, symObjAddr: 0x47254, symBinAddr: 0x10004F008, symSize: 0x34 }
  - { offsetInCU: 0x7A0A8, offset: 0x8F9B6, size: 0x8, addend: 0x0, symName: __ZNSt3__1eqB7v160006ERKNS_21__hash_const_iteratorIPNS_11__hash_nodeINS_17__hash_value_typeINS_12basic_stringIcNS_11char_traitsIcEENS_9allocatorIcEEEES8_EEPvEEEESF_, symObjAddr: 0x47288, symBinAddr: 0x10004F03C, symSize: 0x30 }
  - { offsetInCU: 0x7A14B, offset: 0x8FA59, size: 0x8, addend: 0x0, symName: __ZNSt3__14swapB7v160006IPNS_10__function6__baseIFvRN4crow7requestERNS3_8responseENS_12basic_stringIcNS_11char_traitsIcEENS_9allocatorIcEEEEEEEEENS_9enable_ifIXaasr21is_move_constructibleIT_EE5valuesr18is_move_assignableISI_EE5valueEvE4typeERSI_SL_, symObjAddr: 0x477D4, symBinAddr: 0x10004F588, symSize: 0x3C }
  - { offsetInCU: 0x7A1A4, offset: 0x8FAB2, size: 0x8, addend: 0x0, symName: __ZNSt3__1eqB7v160006IPPN4crow9BlueprintEEEbRKNS_11__wrap_iterIT_EES9_, symObjAddr: 0x478FC, symBinAddr: 0x10004F6B0, symSize: 0x48 }
  - { offsetInCU: 0x7A1E7, offset: 0x8FAF5, size: 0x8, addend: 0x0, symName: __ZNSt3__1plB7v160006IcNS_11char_traitsIcEENS_9allocatorIcEEEENS_12basic_stringIT_T0_T1_EES6_RKS9_, symObjAddr: 0x4795C, symBinAddr: 0x10004F710, symSize: 0x10C }
  - { offsetInCU: 0x7A80D, offset: 0x9011B, size: 0x8, addend: 0x0, symName: __ZNSt3__116forward_as_tupleB7v160006IJZN4crow10TaggedRuleIJNS_12basic_stringIcNS_11char_traitsIcEENS_9allocatorIcEEEEEEclIZNS1_4CrowIJEE8validateEvEUlRNS1_8responseES8_E0_EEvOT_EUlRNS1_7requestESE_S8_E_EEENS_5tupleIJDpOT_EEESO_, symObjAddr: 0x48654, symBinAddr: 0x100050408, symSize: 0x2C }
  - { offsetInCU: 0x7A846, offset: 0x90154, size: 0x8, addend: 0x0, symName: __ZNSt3__116forward_as_tupleB7v160006IJNS_9allocatorIZN4crow10TaggedRuleIJNS_12basic_stringIcNS_11char_traitsIcEENS1_IcEEEEEEclIZNS2_4CrowIJEE8validateEvEUlRNS2_8responseES8_E0_EEvOT_EUlRNS2_7requestESE_S8_E_EEEEENS_5tupleIJDpOT_EEESP_, symObjAddr: 0x48680, symBinAddr: 0x100050434, symSize: 0x2C }
  - { offsetInCU: 0x7A8AD, offset: 0x901BB, size: 0x8, addend: 0x0, symName: __ZNSt3__13getB7v160006ILm0EJOZN4crow10TaggedRuleIJNS_12basic_stringIcNS_11char_traitsIcEENS_9allocatorIcEEEEEEclIZNS1_4CrowIJEE8validateEvEUlRNS1_8responseES8_E0_EEvOT_EUlRNS1_7requestESE_S8_E_EEERNS_13tuple_elementIXT_ENS_5tupleIJDpT0_EEEE4typeERSQ_, symObjAddr: 0x489EC, symBinAddr: 0x1000507A0, symSize: 0x24 }
  - { offsetInCU: 0x7A8F1, offset: 0x901FF, size: 0x8, addend: 0x0, symName: __ZNSt3__13getB7v160006ILm0EJONS_9allocatorIZN4crow10TaggedRuleIJNS_12basic_stringIcNS_11char_traitsIcEENS1_IcEEEEEEclIZNS2_4CrowIJEE8validateEvEUlRNS2_8responseES8_E0_EEvOT_EUlRNS2_7requestESE_S8_E_EEEEERNS_13tuple_elementIXT_ENS_5tupleIJDpT0_EEEE4typeERSR_, symObjAddr: 0x48A28, symBinAddr: 0x1000507DC, symSize: 0x24 }
  - { offsetInCU: 0x7AAC1, offset: 0x903CF, size: 0x8, addend: 0x0, symName: __ZNSt3__116forward_as_tupleB7v160006IJRKZN4crow10TaggedRuleIJNS_12basic_stringIcNS_11char_traitsIcEENS_9allocatorIcEEEEEEclIZNS1_4CrowIJEE8validateEvEUlRNS1_8responseES8_E0_EEvOT_EUlRNS1_7requestESE_S8_E_EEENS_5tupleIJDpOT_EEESQ_, symObjAddr: 0x48EF0, symBinAddr: 0x100050CA4, symSize: 0x2C }
  - { offsetInCU: 0x7AB11, offset: 0x9041F, size: 0x8, addend: 0x0, symName: __ZNSt3__13getB7v160006ILm0EJRKZN4crow10TaggedRuleIJNS_12basic_stringIcNS_11char_traitsIcEENS_9allocatorIcEEEEEEclIZNS1_4CrowIJEE8validateEvEUlRNS1_8responseES8_E0_EEvOT_EUlRNS1_7requestESE_S8_E_EEERNS_13tuple_elementIXT_ENS_5tupleIJDpT0_EEEE4typeERSR_, symObjAddr: 0x490E0, symBinAddr: 0x100050E94, symSize: 0x24 }
  - { offsetInCU: 0x7AB55, offset: 0x90463, size: 0x8, addend: 0x0, symName: __ZNSt3__116forward_as_tupleB7v160006IJRKNS_9allocatorIZN4crow10TaggedRuleIJNS_12basic_stringIcNS_11char_traitsIcEENS1_IcEEEEEEclIZNS2_4CrowIJEE8validateEvEUlRNS2_8responseES8_E0_EEvOT_EUlRNS2_7requestESE_S8_E_EEEEENS_5tupleIJDpOT_EEESR_, symObjAddr: 0x4950C, symBinAddr: 0x1000512C0, symSize: 0x2C }
  - { offsetInCU: 0x7ABA5, offset: 0x904B3, size: 0x8, addend: 0x0, symName: __ZNSt3__13getB7v160006ILm0EJRKNS_9allocatorIZN4crow10TaggedRuleIJNS_12basic_stringIcNS_11char_traitsIcEENS1_IcEEEEEEclIZNS2_4CrowIJEE8validateEvEUlRNS2_8responseES8_E0_EEvOT_EUlRNS2_7requestESE_S8_E_EEEEERNS_13tuple_elementIXT_ENS_5tupleIJDpT0_EEEE4typeERSS_, symObjAddr: 0x49718, symBinAddr: 0x1000514CC, symSize: 0x24 }
  - { offsetInCU: 0x7ABEA, offset: 0x904F8, size: 0x8, addend: 0x0, symName: __ZNSt3__18__invokeB7v160006IRZN4crow10TaggedRuleIJNS_12basic_stringIcNS_11char_traitsIcEENS_9allocatorIcEEEEEEclIZNS1_4CrowIJEE8validateEvEUlRNS1_8responseES8_E0_EEvOT_EUlRNS1_7requestESE_S8_E_JSJ_SE_S8_EEEDTclclsr3stdE7declvalISG_EEspclsr3stdE7declvalIT0_EEEESH_DpOSM_, symObjAddr: 0x49818, symBinAddr: 0x1000515CC, symSize: 0x90 }
  - { offsetInCU: 0x7AC68, offset: 0x90576, size: 0x8, addend: 0x0, symName: __ZNSt3__1neB7v160006IPNS_10unique_ptrIN4crow8BaseRuleENS_14default_deleteIS3_EEEEEEbRKNS_11__wrap_iterIT_EESC_, symObjAddr: 0x49F60, symBinAddr: 0x100051D14, symSize: 0x34 }
  - { offsetInCU: 0x7ACAB, offset: 0x905B9, size: 0x8, addend: 0x0, symName: __ZNSt3__1neB7v160006IPN4crow10HTTPMethodEEEbRKNS_11__wrap_iterIT_EES8_, symObjAddr: 0x4A54C, symBinAddr: 0x100052300, symSize: 0x34 }
  - { offsetInCU: 0x7ACEF, offset: 0x905FD, size: 0x8, addend: 0x0, symName: __ZNSt3__119__debug_db_insert_cB7v160006INS_6vectorIN4crow10HTTPMethodENS_9allocatorIS3_EEEEEEvPT_, symObjAddr: 0x4AF30, symBinAddr: 0x100052CE4, symSize: 0x10 }
  - { offsetInCU: 0x7AD23, offset: 0x90631, size: 0x8, addend: 0x0, symName: __ZNSt3__112__to_addressB7v160006IN4crow10HTTPMethodEEEPT_S4_, symObjAddr: 0x4B38C, symBinAddr: 0x100053140, symSize: 0x14 }
  - { offsetInCU: 0x7AD81, offset: 0x9068F, size: 0x8, addend: 0x0, symName: __ZNSt3__112construct_atB7v160006IN4crow10HTTPMethodEJS2_EPS2_EEPT_S5_DpOT0_, symObjAddr: 0x4B410, symBinAddr: 0x1000531C4, symSize: 0x2C }
  - { offsetInCU: 0x7ADF9, offset: 0x90707, size: 0x8, addend: 0x0, symName: __ZNSt3__119__allocate_at_leastB7v160006INS_9allocatorIN4crow10HTTPMethodEEEEENS_19__allocation_resultINS_16allocator_traitsIT_E7pointerEEERS7_m, symObjAddr: 0x4B99C, symBinAddr: 0x100053750, symSize: 0x40 }
  - { offsetInCU: 0x7AE42, offset: 0x90750, size: 0x8, addend: 0x0, symName: __ZNSt3__142__uninitialized_allocator_move_if_noexceptB7v160006INS_9allocatorIN4crow10HTTPMethodEEENS_16reverse_iteratorIPS3_EES7_S3_vEET1_RT_T0_SB_S8_, symObjAddr: 0x4BC08, symBinAddr: 0x1000539BC, symSize: 0x78 }
  - { offsetInCU: 0x7AEC0, offset: 0x907CE, size: 0x8, addend: 0x0, symName: __ZNSt3__14swapB7v160006IPN4crow10HTTPMethodEEENS_9enable_ifIXaasr21is_move_constructibleIT_EE5valuesr18is_move_assignableIS5_EE5valueEvE4typeERS5_S8_, symObjAddr: 0x4BCCC, symBinAddr: 0x100053A80, symSize: 0x3C }
  - { offsetInCU: 0x7AF1A, offset: 0x90828, size: 0x8, addend: 0x0, symName: __ZNSt3__125__debug_db_invalidate_allB7v160006INS_6vectorIN4crow10HTTPMethodENS_9allocatorIS3_EEEEEEvPT_, symObjAddr: 0x4BDB4, symBinAddr: 0x100053B68, symSize: 0x10 }
  - { offsetInCU: 0x7AF4E, offset: 0x9085C, size: 0x8, addend: 0x0, symName: __ZNSt3__14moveB7v160006INS_16reverse_iteratorIPN4crow10HTTPMethodEEES5_EET0_T_S7_S6_, symObjAddr: 0x4BE0C, symBinAddr: 0x100053BC0, symSize: 0x78 }
  - { offsetInCU: 0x7AFB0, offset: 0x908BE, size: 0x8, addend: 0x0, symName: __ZNSt3__16__moveB7v160006INS_17_ClassicAlgPolicyENS_16reverse_iteratorIPN4crow10HTTPMethodEEES6_S6_EENS_4pairIT0_T2_EES8_T1_S9_, symObjAddr: 0x4BE84, symBinAddr: 0x100053C38, symSize: 0x64 }
  - { offsetInCU: 0x7B024, offset: 0x90932, size: 0x8, addend: 0x0, symName: __ZNSt3__123__dispatch_copy_or_moveB7v160006INS_17_ClassicAlgPolicyENS_11__move_loopIS1_EENS_14__move_trivialENS_16reverse_iteratorIPN4crow10HTTPMethodEEES9_S9_EENS_4pairIT2_T4_EESB_T3_SC_, symObjAddr: 0x4BEE8, symBinAddr: 0x100053C9C, symSize: 0x64 }
  - { offsetInCU: 0x7B0AA, offset: 0x909B8, size: 0x8, addend: 0x0, symName: __ZNSt3__121__unwrap_and_dispatchB7v160006INS_10__overloadINS_11__move_loopINS_17_ClassicAlgPolicyEEENS_14__move_trivialEEENS_16reverse_iteratorIPN4crow10HTTPMethodEEESB_SB_Li0EEENS_4pairIT0_T2_EESD_T1_SE_, symObjAddr: 0x4BF4C, symBinAddr: 0x100053D00, symSize: 0x12C }
  - { offsetInCU: 0x7B146, offset: 0x90A54, size: 0x8, addend: 0x0, symName: __ZNSt3__114__unwrap_rangeB7v160006INS_16reverse_iteratorIPN4crow10HTTPMethodEEES5_EEDaT_T0_, symObjAddr: 0x4C078, symBinAddr: 0x100053E2C, symSize: 0x4C }
  - { offsetInCU: 0x7B26C, offset: 0x90B7A, size: 0x8, addend: 0x0, symName: __ZNSt3__113__unwrap_iterB7v160006INS_16reverse_iteratorIPN4crow10HTTPMethodEEENS_18__unwrap_iter_implIS5_Lb0EEELi0EEEDTclsrT0_8__unwrapclsr3stdE7declvalIT_EEEES9_, symObjAddr: 0x4C164, symBinAddr: 0x100053F18, symSize: 0x44 }
  - { offsetInCU: 0x7B2B4, offset: 0x90BC2, size: 0x8, addend: 0x0, symName: __ZNSt3__19make_pairB7v160006INS_16reverse_iteratorIPN4crow10HTTPMethodEEES5_EENS_4pairINS_18__unwrap_ref_decayIT_E4typeENS7_IT0_E4typeEEEOS8_OSB_, symObjAddr: 0x4C1A8, symBinAddr: 0x100053F5C, symSize: 0x38 }
  - { offsetInCU: 0x7B303, offset: 0x90C11, size: 0x8, addend: 0x0, symName: __ZNSt3__114__rewrap_rangeB7v160006INS_16reverse_iteratorIPN4crow10HTTPMethodEEES5_S5_EET0_S6_T1_, symObjAddr: 0x4C1E0, symBinAddr: 0x100053F94, symSize: 0x5C }
  - { offsetInCU: 0x7B35E, offset: 0x90C6C, size: 0x8, addend: 0x0, symName: __ZNSt3__113__rewrap_iterB7v160006INS_16reverse_iteratorIPN4crow10HTTPMethodEEES5_NS_18__unwrap_iter_implIS5_Lb0EEEEET_S8_T0_, symObjAddr: 0x4C23C, symBinAddr: 0x100053FF0, symSize: 0x74 }
  - { offsetInCU: 0x7B40F, offset: 0x90D1D, size: 0x8, addend: 0x0, symName: __ZNSt3__1neB7v160006IPN4crow10HTTPMethodES3_EEbRKNS_16reverse_iteratorIT_EERKNS4_IT0_EE, symObjAddr: 0x4C3A4, symBinAddr: 0x100054158, symSize: 0x48 }
  - { offsetInCU: 0x7B4CE, offset: 0x90DDC, size: 0x8, addend: 0x0, symName: __ZNSt3__110destroy_atB7v160006IN4crow10HTTPMethodELi0EEEvPT_, symObjAddr: 0x4C728, symBinAddr: 0x1000544DC, symSize: 0x24 }
  - { offsetInCU: 0x7B509, offset: 0x90E17, size: 0x8, addend: 0x0, symName: __ZNSt3__112__destroy_atB7v160006IN4crow10HTTPMethodELi0EEEvPT_, symObjAddr: 0x4C74C, symBinAddr: 0x100054500, symSize: 0x10 }
  - { offsetInCU: 0x7B543, offset: 0x90E51, size: 0x8, addend: 0x0, symName: __ZNSt3__1eqB7v160006IPN4crow10HTTPMethodEEEbRKNS_11__wrap_iterIT_EES8_, symObjAddr: 0x4C894, symBinAddr: 0x100054648, symSize: 0x48 }
  - { offsetInCU: 0x7B586, offset: 0x90E94, size: 0x8, addend: 0x0, symName: __ZNSt3__14findB7v160006INS_11__wrap_iterIPN4crow10HTTPMethodEEES3_EET_S6_S6_RKT0_, symObjAddr: 0x4C8DC, symBinAddr: 0x100054690, symSize: 0x80 }
  - { offsetInCU: 0x7B5E8, offset: 0x90EF6, size: 0x8, addend: 0x0, symName: __ZNSt3__112construct_atB7v160006IN4crow10HTTPMethodEJRS2_EPS2_EEPT_S6_DpOT0_, symObjAddr: 0x4CB80, symBinAddr: 0x100054934, symSize: 0x2C }
  - { offsetInCU: 0x7B660, offset: 0x90F6E, size: 0x8, addend: 0x0, symName: __ZNSt3__1neB7v160006IPN4crow4Trie4NodeEEEbRKNS_11__wrap_iterIT_EES9_, symObjAddr: 0x4CD38, symBinAddr: 0x100054AEC, symSize: 0x34 }
  - { offsetInCU: 0x7B6A3, offset: 0x90FB1, size: 0x8, addend: 0x0, symName: __ZNSt3__1eqB7v160006IPN4crow4Trie4NodeEEEbRKNS_11__wrap_iterIT_EES9_, symObjAddr: 0x4CEA0, symBinAddr: 0x100054C54, symSize: 0x48 }
  - { offsetInCU: 0x7B70F, offset: 0x9101D, size: 0x8, addend: 0x0, symName: __ZNSt3__112construct_atB7v160006IN4crow4Trie4NodeEJEPS3_EEPT_S6_DpOT0_, symObjAddr: 0x4D210, symBinAddr: 0x100054FC4, symSize: 0x44 }
  - { offsetInCU: 0x7B771, offset: 0x9107F, size: 0x8, addend: 0x0, symName: __ZNSt3__119__allocate_at_leastB7v160006INS_9allocatorIN4crow4Trie4NodeEEEEENS_19__allocation_resultINS_16allocator_traitsIT_E7pointerEEERS8_m, symObjAddr: 0x4D6C4, symBinAddr: 0x100055478, symSize: 0x40 }
  - { offsetInCU: 0x7B7BA, offset: 0x910C8, size: 0x8, addend: 0x0, symName: __ZNSt3__142__uninitialized_allocator_move_if_noexceptB7v160006INS_9allocatorIN4crow4Trie4NodeEEENS_16reverse_iteratorIPS4_EES8_S8_EET2_RT_T0_T1_S9_, symObjAddr: 0x4D878, symBinAddr: 0x10005562C, symSize: 0x12C }
  - { offsetInCU: 0x7B85A, offset: 0x91168, size: 0x8, addend: 0x0, symName: __ZNSt3__14swapB7v160006IPN4crow4Trie4NodeEEENS_9enable_ifIXaasr21is_move_constructibleIT_EE5valuesr18is_move_assignableIS6_EE5valueEvE4typeERS6_S9_, symObjAddr: 0x4D9F0, symBinAddr: 0x1000557A4, symSize: 0x3C }
  - { offsetInCU: 0x7B8B4, offset: 0x911C2, size: 0x8, addend: 0x0, symName: __ZNSt3__125__debug_db_invalidate_allB7v160006INS_6vectorIN4crow4Trie4NodeENS_9allocatorIS4_EEEEEEvPT_, symObjAddr: 0x4DAD8, symBinAddr: 0x10005588C, symSize: 0x10 }
  - { offsetInCU: 0x7B8E8, offset: 0x911F6, size: 0x8, addend: 0x0, symName: __ZNSt3__122__make_exception_guardB7v160006INS_29_AllocatorDestroyRangeReverseINS_9allocatorIN4crow4Trie4NodeEEENS_16reverse_iteratorIPS5_EEEEEENS_28__exception_guard_exceptionsIT_EESC_, symObjAddr: 0x4DAE8, symBinAddr: 0x10005589C, symSize: 0x4C }
  - { offsetInCU: 0x7B91E, offset: 0x9122C, size: 0x8, addend: 0x0, symName: __ZNSt3__1neB7v160006IPN4crow4Trie4NodeES4_EEbRKNS_16reverse_iteratorIT_EERKNS5_IT0_EE, symObjAddr: 0x4DB78, symBinAddr: 0x10005592C, symSize: 0x48 }
  - { offsetInCU: 0x7B96A, offset: 0x91278, size: 0x8, addend: 0x0, symName: __ZNSt3__112__to_addressB7v160006INS_16reverse_iteratorIPN4crow4Trie4NodeEEEvEENS_5decayIDTclsr19__to_address_helperIT_EE6__callclsr3stdE7declvalIRKS8_EEEEE4typeESA_, symObjAddr: 0x4DBF0, symBinAddr: 0x1000559A4, symSize: 0x24 }
  - { offsetInCU: 0x7B9A0, offset: 0x912AE, size: 0x8, addend: 0x0, symName: __ZNSt3__112construct_atB7v160006IN4crow4Trie4NodeEJS3_EPS3_EEPT_S6_DpOT0_, symObjAddr: 0x4DD40, symBinAddr: 0x100055AF4, symSize: 0x3C }
  - { offsetInCU: 0x7BA19, offset: 0x91327, size: 0x8, addend: 0x0, symName: __ZNSt3__115__debug_db_swapB7v160006INS_6vectorIN4crow4Trie4NodeENS_9allocatorIS4_EEEEEEvPT_S9_, symObjAddr: 0x4DF64, symBinAddr: 0x100055D18, symSize: 0x14 }
  - { offsetInCU: 0x7BA86, offset: 0x91394, size: 0x8, addend: 0x0, symName: __ZNSt3__14prevB7v160006IPN4crow4Trie4NodeEEENS_9enable_ifIXsr25__is_cpp17_input_iteratorIT_EE5valueES6_E4typeES6_NS_15iterator_traitsIS6_E15difference_typeE, symObjAddr: 0x4E038, symBinAddr: 0x100055DEC, symSize: 0x50 }
  - { offsetInCU: 0x7BAD0, offset: 0x913DE, size: 0x8, addend: 0x0, symName: __ZNSt3__19__advanceB7v160006IPN4crow4Trie4NodeEEEvRT_NS_15iterator_traitsIS5_E15difference_typeENS_26random_access_iterator_tagE, symObjAddr: 0x4E0D8, symBinAddr: 0x100055E8C, symSize: 0x28 }
  - { offsetInCU: 0x7BB18, offset: 0x91426, size: 0x8, addend: 0x0, symName: __ZNSt3__119__allocator_destroyB7v160006INS_9allocatorIN4crow4Trie4NodeEEENS_16reverse_iteratorINS6_IPS4_EEEES9_EEvRT_T0_T1_, symObjAddr: 0x4E204, symBinAddr: 0x100055FB8, symSize: 0x70 }
  - { offsetInCU: 0x7BB7D, offset: 0x9148B, size: 0x8, addend: 0x0, symName: __ZNSt3__1neB7v160006INS_16reverse_iteratorIPN4crow4Trie4NodeEEES6_EEbRKNS1_IT_EERKNS1_IT0_EE, symObjAddr: 0x4E2B0, symBinAddr: 0x100056064, symSize: 0x60 }
  - { offsetInCU: 0x7BBC9, offset: 0x914D7, size: 0x8, addend: 0x0, symName: __ZNSt3__112__to_addressB7v160006INS_16reverse_iteratorINS1_IPN4crow4Trie4NodeEEEEEvEENS_5decayIDTclsr19__to_address_helperIT_EE6__callclsr3stdE7declvalIRKS9_EEEEE4typeESB_, symObjAddr: 0x4E310, symBinAddr: 0x1000560C4, symSize: 0x24 }
  - { offsetInCU: 0x7BC28, offset: 0x91536, size: 0x8, addend: 0x0, symName: __ZNSt3__14prevB7v160006INS_16reverse_iteratorIPN4crow4Trie4NodeEEEEENS_9enable_ifIXsr25__is_cpp17_input_iteratorIT_EE5valueES8_E4typeES8_NS_15iterator_traitsIS8_E15difference_typeE, symObjAddr: 0x4E40C, symBinAddr: 0x1000561C0, symSize: 0x60 }
  - { offsetInCU: 0x7BC71, offset: 0x9157F, size: 0x8, addend: 0x0, symName: __ZNSt3__19__advanceB7v160006INS_16reverse_iteratorIPN4crow4Trie4NodeEEEEEvRT_NS_15iterator_traitsIS7_E15difference_typeENS_26random_access_iterator_tagE, symObjAddr: 0x4E4BC, symBinAddr: 0x100056270, symSize: 0x2C }
  - { offsetInCU: 0x7BCBB, offset: 0x915C9, size: 0x8, addend: 0x0, symName: __ZNSt3__118__debug_db_erase_cB7v160006INS_6vectorIN4crow10HTTPMethodENS_9allocatorIS3_EEEEEEvPT_, symObjAddr: 0x4E8AC, symBinAddr: 0x100056660, symSize: 0x10 }
  - { offsetInCU: 0x7BCEF, offset: 0x915FD, size: 0x8, addend: 0x0, symName: __ZNSt3__1miB7v160006IPKiPiEEDTmicldtfp_4baseEcldtfp0_4baseEERKNS_11__wrap_iterIT_EERKNS5_IT0_EE, symObjAddr: 0x4ED1C, symBinAddr: 0x100056AD0, symSize: 0x48 }
  - { offsetInCU: 0x7BD3B, offset: 0x91649, size: 0x8, addend: 0x0, symName: __ZNSt3__18distanceB7v160006INS_11__wrap_iterIPKiEEEENS_15iterator_traitsIT_E15difference_typeES6_S6_, symObjAddr: 0x4ED64, symBinAddr: 0x100056B18, symSize: 0x3C }
  - { offsetInCU: 0x7BD84, offset: 0x91692, size: 0x8, addend: 0x0, symName: __ZNSt3__14copyB7v160006INS_11__wrap_iterIPKiEEPiEET0_T_S7_S6_, symObjAddr: 0x4EFB8, symBinAddr: 0x100056D6C, symSize: 0x50 }
  - { offsetInCU: 0x7BDE6, offset: 0x916F4, size: 0x8, addend: 0x0, symName: __ZNSt3__110__distanceB7v160006INS_11__wrap_iterIPKiEEEENS_15iterator_traitsIT_E15difference_typeES6_S6_NS_26random_access_iterator_tagE, symObjAddr: 0x4F2B0, symBinAddr: 0x100057064, symSize: 0x30 }
  - { offsetInCU: 0x7BE3B, offset: 0x91749, size: 0x8, addend: 0x0, symName: __ZNSt3__1miB7v160006IPKiS2_EEDTmicldtfp_4baseEcldtfp0_4baseEERKNS_11__wrap_iterIT_EERKNS4_IT0_EE, symObjAddr: 0x4F2E0, symBinAddr: 0x100057094, symSize: 0x48 }
  - { offsetInCU: 0x7BE87, offset: 0x91795, size: 0x8, addend: 0x0, symName: __ZNSt3__19__advanceB7v160006INS_11__wrap_iterIPKiEEEEvRT_NS_15iterator_traitsIS5_E15difference_typeENS_26random_access_iterator_tagE, symObjAddr: 0x4F328, symBinAddr: 0x1000570DC, symSize: 0x2C }
  - { offsetInCU: 0x7BED0, offset: 0x917DE, size: 0x8, addend: 0x0, symName: __ZNSt3__130__uninitialized_allocator_copyB7v160006INS_9allocatorIiEENS_11__wrap_iterIPKiEES6_PiEET2_RT_T0_T1_S8_, symObjAddr: 0x4F37C, symBinAddr: 0x100057130, symSize: 0xF8 }
  - { offsetInCU: 0x7BF6E, offset: 0x9187C, size: 0x8, addend: 0x0, symName: __ZNSt3__122__make_exception_guardB7v160006INS_29_AllocatorDestroyRangeReverseINS_9allocatorIiEEPiEEEENS_28__exception_guard_exceptionsIT_EES7_, symObjAddr: 0x4F474, symBinAddr: 0x100057228, symSize: 0x4C }
  - { offsetInCU: 0x7BFA4, offset: 0x918B2, size: 0x8, addend: 0x0, symName: __ZNSt3__1neB7v160006IPKiEEbRKNS_11__wrap_iterIT_EES7_, symObjAddr: 0x4F504, symBinAddr: 0x1000572B8, symSize: 0x34 }
  - { offsetInCU: 0x7BFE7, offset: 0x918F5, size: 0x8, addend: 0x0, symName: __ZNSt3__1eqB7v160006IPKiEEbRKNS_11__wrap_iterIT_EES7_, symObjAddr: 0x4F654, symBinAddr: 0x100057408, symSize: 0x48 }
  - { offsetInCU: 0x7C02A, offset: 0x91938, size: 0x8, addend: 0x0, symName: __ZNSt3__119__allocator_destroyB7v160006INS_9allocatorIiEENS_16reverse_iteratorIPiEES5_EEvRT_T0_T1_, symObjAddr: 0x4F754, symBinAddr: 0x100057508, symSize: 0x70 }
  - { offsetInCU: 0x7C08D, offset: 0x9199B, size: 0x8, addend: 0x0, symName: __ZNSt3__112__to_addressB7v160006INS_16reverse_iteratorIPiEEvEENS_5decayIDTclsr19__to_address_helperIT_EE6__callclsr3stdE7declvalIRKS5_EEEEE4typeES7_, symObjAddr: 0x4F7C4, symBinAddr: 0x100057578, symSize: 0x24 }
  - { offsetInCU: 0x7C0EC, offset: 0x919FA, size: 0x8, addend: 0x0, symName: __ZNSt3__14prevB7v160006IPiEENS_9enable_ifIXsr25__is_cpp17_input_iteratorIT_EE5valueES3_E4typeES3_NS_15iterator_traitsIS3_E15difference_typeE, symObjAddr: 0x4F84C, symBinAddr: 0x100057600, symSize: 0x50 }
  - { offsetInCU: 0x7C136, offset: 0x91A44, size: 0x8, addend: 0x0, symName: __ZNSt3__19__advanceB7v160006IPiEEvRT_NS_15iterator_traitsIS2_E15difference_typeENS_26random_access_iterator_tagE, symObjAddr: 0x4F8EC, symBinAddr: 0x1000576A0, symSize: 0x28 }
  - { offsetInCU: 0x7C17E, offset: 0x91A8C, size: 0x8, addend: 0x0, symName: __ZNSt3__113move_backwardB7v160006IPiS1_EET0_T_S3_S2_, symObjAddr: 0x4F914, symBinAddr: 0x1000576C8, symSize: 0x40 }
  - { offsetInCU: 0x7C1E0, offset: 0x91AEE, size: 0x8, addend: 0x0, symName: __ZNSt3__115__move_backwardB7v160006INS_17_ClassicAlgPolicyEPiS2_S2_EENS_4pairIT0_T2_EES4_T1_S5_, symObjAddr: 0x4F954, symBinAddr: 0x100057708, symSize: 0x44 }
  - { offsetInCU: 0x7C254, offset: 0x91B62, size: 0x8, addend: 0x0, symName: __ZNSt3__123__dispatch_copy_or_moveB7v160006INS_17_ClassicAlgPolicyENS_20__move_backward_loopIS1_EENS_23__move_backward_trivialEPiS5_S5_EENS_4pairIT2_T4_EES7_T3_S8_, symObjAddr: 0x4F998, symBinAddr: 0x10005774C, symSize: 0x44 }
  - { offsetInCU: 0x7C2DA, offset: 0x91BE8, size: 0x8, addend: 0x0, symName: __ZNSt3__121__unwrap_and_dispatchB7v160006INS_10__overloadINS_20__move_backward_loopINS_17_ClassicAlgPolicyEEENS_23__move_backward_trivialEEEPiS7_S7_Li0EEENS_4pairIT0_T2_EES9_T1_SA_, symObjAddr: 0x4F9DC, symBinAddr: 0x100057790, symSize: 0xB4 }
  - { offsetInCU: 0x7C374, offset: 0x91C82, size: 0x8, addend: 0x0, symName: __ZNSt3__114__unwrap_rangeB7v160006IPiS1_EEDaT_T0_, symObjAddr: 0x4FA90, symBinAddr: 0x100057844, symSize: 0x3C }
  - { offsetInCU: 0x7C542, offset: 0x91E50, size: 0x8, addend: 0x0, symName: __ZNSt3__19make_pairB7v160006IPiS1_EENS_4pairINS_18__unwrap_ref_decayIT_E4typeENS3_IT0_E4typeEEEOS4_OS7_, symObjAddr: 0x4FB14, symBinAddr: 0x1000578C8, symSize: 0x38 }
  - { offsetInCU: 0x7C591, offset: 0x91E9F, size: 0x8, addend: 0x0, symName: __ZNSt3__114__rewrap_rangeB7v160006IPiS1_S1_EET0_S2_T1_, symObjAddr: 0x4FB4C, symBinAddr: 0x100057900, symSize: 0x2C }
  - { offsetInCU: 0x7C642, offset: 0x91F50, size: 0x8, addend: 0x0, symName: __ZNSt3__128__copy_backward_trivial_implB7v160006IiiEENS_4pairIPT_PT0_EES3_S3_S5_, symObjAddr: 0x4FC40, symBinAddr: 0x1000579F4, symSize: 0x94 }
  - { offsetInCU: 0x7C6B4, offset: 0x91FC2, size: 0x8, addend: 0x0, symName: __ZNSt3__19make_pairB7v160006IRPiS2_EENS_4pairINS_18__unwrap_ref_decayIT_E4typeENS4_IT0_E4typeEEEOS5_OS8_, symObjAddr: 0x4FCD4, symBinAddr: 0x100057A88, symSize: 0x38 }
  - { offsetInCU: 0x7C703, offset: 0x92011, size: 0x8, addend: 0x0, symName: __ZNSt3__16__copyB7v160006INS_17_ClassicAlgPolicyENS_11__wrap_iterIPKiEES5_PiEENS_4pairIT0_T2_EES8_T1_S9_, symObjAddr: 0x4FDA8, symBinAddr: 0x100057B5C, symSize: 0x54 }
  - { offsetInCU: 0x7C777, offset: 0x92085, size: 0x8, addend: 0x0, symName: __ZNSt3__123__dispatch_copy_or_moveB7v160006INS_17_ClassicAlgPolicyENS_11__copy_loopIS1_EENS_14__copy_trivialENS_11__wrap_iterIPKiEES8_PiEENS_4pairIT2_T4_EESB_T3_SC_, symObjAddr: 0x4FDFC, symBinAddr: 0x100057BB0, symSize: 0x54 }
  - { offsetInCU: 0x7C7FD, offset: 0x9210B, size: 0x8, addend: 0x0, symName: __ZNSt3__121__unwrap_and_dispatchB7v160006INS_10__overloadINS_11__copy_loopINS_17_ClassicAlgPolicyEEENS_14__copy_trivialEEENS_11__wrap_iterIPKiEESA_PiLi0EEENS_4pairIT0_T2_EESD_T1_SE_, symObjAddr: 0x4FE50, symBinAddr: 0x100057C04, symSize: 0xCC }
  - { offsetInCU: 0x7C897, offset: 0x921A5, size: 0x8, addend: 0x0, symName: __ZNSt3__114__unwrap_rangeB7v160006INS_11__wrap_iterIPKiEES4_EEDaT_T0_, symObjAddr: 0x4FF1C, symBinAddr: 0x100057CD0, symSize: 0x4C }
  - { offsetInCU: 0x7C8E9, offset: 0x921F7, size: 0x8, addend: 0x0, symName: __ZNSt3__19make_pairB7v160006INS_11__wrap_iterIPKiEEPiEENS_4pairINS_18__unwrap_ref_decayIT_E4typeENS7_IT0_E4typeEEEOS8_OSB_, symObjAddr: 0x4FF68, symBinAddr: 0x100057D1C, symSize: 0x38 }
  - { offsetInCU: 0x7C938, offset: 0x92246, size: 0x8, addend: 0x0, symName: __ZNSt3__114__rewrap_rangeB7v160006INS_11__wrap_iterIPKiEES4_S3_EET0_S5_T1_, symObjAddr: 0x4FFA0, symBinAddr: 0x100057D54, symSize: 0x3C }
  - { offsetInCU: 0x7C9E9, offset: 0x922F7, size: 0x8, addend: 0x0, symName: __ZNSt3__113__unwrap_iterB7v160006INS_11__wrap_iterIPKiEENS_18__unwrap_iter_implIS4_Lb1EEELi0EEEDTclsrT0_8__unwrapclsr3stdE7declvalIT_EEEES8_, symObjAddr: 0x50044, symBinAddr: 0x100057DF8, symSize: 0x2C }
  - { offsetInCU: 0x7CA8C, offset: 0x9239A, size: 0x8, addend: 0x0, symName: __ZNSt3__112__to_addressB7v160006INS_11__wrap_iterIPKiEEvEENS_5decayIDTclsr19__to_address_helperIT_EE6__callclsr3stdE7declvalIRKS6_EEEEE4typeES8_, symObjAddr: 0x50098, symBinAddr: 0x100057E4C, symSize: 0x24 }
  - { offsetInCU: 0x7CC3F, offset: 0x9254D, size: 0x8, addend: 0x0, symName: __ZNSt3__113__rewrap_iterB7v160006INS_11__wrap_iterIPKiEES3_NS_18__unwrap_iter_implIS4_Lb1EEEEET_S7_T0_, symObjAddr: 0x501C4, symBinAddr: 0x100057F78, symSize: 0x4C }
  - { offsetInCU: 0x7CC9A, offset: 0x925A8, size: 0x8, addend: 0x0, symName: __ZNSt3__142__uninitialized_allocator_move_if_noexceptB7v160006INS_9allocatorIiEEPiS3_ivEET1_RT_T0_S7_S4_, symObjAddr: 0x50374, symBinAddr: 0x100058128, symSize: 0x38 }
  - { offsetInCU: 0x7CD17, offset: 0x92625, size: 0x8, addend: 0x0, symName: __ZNSt3__14moveB7v160006IPiS1_EET0_T_S3_S2_, symObjAddr: 0x503AC, symBinAddr: 0x100058160, symSize: 0x40 }
  - { offsetInCU: 0x7CD79, offset: 0x92687, size: 0x8, addend: 0x0, symName: __ZNSt3__16__moveB7v160006INS_17_ClassicAlgPolicyEPiS2_S2_EENS_4pairIT0_T2_EES4_T1_S5_, symObjAddr: 0x503EC, symBinAddr: 0x1000581A0, symSize: 0x44 }
  - { offsetInCU: 0x7CDED, offset: 0x926FB, size: 0x8, addend: 0x0, symName: __ZNSt3__123__dispatch_copy_or_moveB7v160006INS_17_ClassicAlgPolicyENS_11__move_loopIS1_EENS_14__move_trivialEPiS5_S5_EENS_4pairIT2_T4_EES7_T3_S8_, symObjAddr: 0x50430, symBinAddr: 0x1000581E4, symSize: 0x44 }
  - { offsetInCU: 0x7CE73, offset: 0x92781, size: 0x8, addend: 0x0, symName: __ZNSt3__121__unwrap_and_dispatchB7v160006INS_10__overloadINS_11__move_loopINS_17_ClassicAlgPolicyEEENS_14__move_trivialEEEPiS7_S7_Li0EEENS_4pairIT0_T2_EES9_T1_SA_, symObjAddr: 0x50474, symBinAddr: 0x100058228, symSize: 0xB4 }
  - { offsetInCU: 0x7CF57, offset: 0x92865, size: 0x8, addend: 0x0, symName: __ZNSt3__119__copy_trivial_implB7v160006IiiEENS_4pairIPT_PT0_EES3_S3_S5_, symObjAddr: 0x50570, symBinAddr: 0x100058324, symSize: 0x84 }
  - { offsetInCU: 0x7CFC9, offset: 0x928D7, size: 0x8, addend: 0x0, symName: __ZNSt3__19make_pairB7v160006IRPiS1_EENS_4pairINS_18__unwrap_ref_decayIT_E4typeENS4_IT0_E4typeEEEOS5_OS8_, symObjAddr: 0x505F4, symBinAddr: 0x1000583A8, symSize: 0x38 }
  - { offsetInCU: 0x7D018, offset: 0x92926, size: 0x8, addend: 0x0, symName: __ZNSt3__112construct_atB7v160006IiJEPiEEPT_S3_DpOT0_, symObjAddr: 0x50B70, symBinAddr: 0x100058924, symSize: 0x20 }
  - { offsetInCU: 0x7D07A, offset: 0x92988, size: 0x8, addend: 0x0, symName: __ZNSt3__122__make_exception_guardB7v160006INS_6vectorIPN4crow9BlueprintENS_9allocatorIS4_EEE16__destroy_vectorEEENS_28__exception_guard_exceptionsIT_EESA_, symObjAddr: 0x50D14, symBinAddr: 0x100058AC8, symSize: 0x40 }
  - { offsetInCU: 0x7D0AF, offset: 0x929BD, size: 0x8, addend: 0x0, symName: __ZNSt3__119__allocate_at_leastB7v160006INS_9allocatorIPN4crow9BlueprintEEEEENS_19__allocation_resultINS_16allocator_traitsIT_E7pointerEEERS8_m, symObjAddr: 0x5103C, symBinAddr: 0x100058DF0, symSize: 0x40 }
  - { offsetInCU: 0x7D0F8, offset: 0x92A06, size: 0x8, addend: 0x0, symName: __ZNSt3__130__uninitialized_allocator_copyB7v160006INS_9allocatorIPN4crow9BlueprintEEEPS4_S6_S6_EET2_RT_T0_T1_S7_, symObjAddr: 0x51244, symBinAddr: 0x100058FF8, symSize: 0xF4 }
  - { offsetInCU: 0x7D196, offset: 0x92AA4, size: 0x8, addend: 0x0, symName: __ZNSt3__122__make_exception_guardB7v160006INS_29_AllocatorDestroyRangeReverseINS_9allocatorIPN4crow9BlueprintEEEPS5_EEEENS_28__exception_guard_exceptionsIT_EESA_, symObjAddr: 0x513A8, symBinAddr: 0x10005915C, symSize: 0x4C }
  - { offsetInCU: 0x7D1F5, offset: 0x92B03, size: 0x8, addend: 0x0, symName: __ZNSt3__112construct_atB7v160006IPN4crow9BlueprintEJRS3_EPS3_EEPT_S7_DpOT0_, symObjAddr: 0x5154C, symBinAddr: 0x100059300, symSize: 0x2C }
  - { offsetInCU: 0x7D26D, offset: 0x92B7B, size: 0x8, addend: 0x0, symName: __ZNSt3__119__allocator_destroyB7v160006INS_9allocatorIPN4crow9BlueprintEEENS_16reverse_iteratorIPS4_EES8_EEvRT_T0_T1_, symObjAddr: 0x51630, symBinAddr: 0x1000593E4, symSize: 0x70 }
  - { offsetInCU: 0x7D2D0, offset: 0x92BDE, size: 0x8, addend: 0x0, symName: __ZNSt3__1neB7v160006IPPN4crow9BlueprintES4_EEbRKNS_16reverse_iteratorIT_EERKNS5_IT0_EE, symObjAddr: 0x516D4, symBinAddr: 0x100059488, symSize: 0x48 }
  - { offsetInCU: 0x7D31C, offset: 0x92C2A, size: 0x8, addend: 0x0, symName: __ZNSt3__112__to_addressB7v160006INS_16reverse_iteratorIPPN4crow9BlueprintEEEvEENS_5decayIDTclsr19__to_address_helperIT_EE6__callclsr3stdE7declvalIRKS8_EEEEE4typeESA_, symObjAddr: 0x5171C, symBinAddr: 0x1000594D0, symSize: 0x24 }
  - { offsetInCU: 0x7D37B, offset: 0x92C89, size: 0x8, addend: 0x0, symName: __ZNSt3__14prevB7v160006IPPN4crow9BlueprintEEENS_9enable_ifIXsr25__is_cpp17_input_iteratorIT_EE5valueES6_E4typeES6_NS_15iterator_traitsIS6_E15difference_typeE, symObjAddr: 0x517DC, symBinAddr: 0x100059590, symSize: 0x50 }
  - { offsetInCU: 0x7D3C5, offset: 0x92CD3, size: 0x8, addend: 0x0, symName: __ZNSt3__19__advanceB7v160006IPPN4crow9BlueprintEEEvRT_NS_15iterator_traitsIS5_E15difference_typeENS_26random_access_iterator_tagE, symObjAddr: 0x5187C, symBinAddr: 0x100059630, symSize: 0x28 }
  - { offsetInCU: 0x7D40D, offset: 0x92D1B, size: 0x8, addend: 0x0, symName: __ZNSt3__1eqB7v160006IPNS_10unique_ptrIN4crow8BaseRuleENS_14default_deleteIS3_EEEEEEbRKNS_11__wrap_iterIT_EESC_, symObjAddr: 0x519D0, symBinAddr: 0x100059784, symSize: 0x48 }
  - { offsetInCU: 0x7D451, offset: 0x92D5F, size: 0x8, addend: 0x0, symName: __ZNSt3__14sortB7v160006INS_11__wrap_iterIPiEEEEvT_S4_, symObjAddr: 0x51D40, symBinAddr: 0x100059AF4, symSize: 0x3C }
  - { offsetInCU: 0x7D498, offset: 0x92DA6, size: 0x8, addend: 0x0, symName: __ZNSt3__16uniqueB7v160006INS_11__wrap_iterIPiEEEET_S4_S4_, symObjAddr: 0x51E5C, symBinAddr: 0x100059C10, symSize: 0x44 }
  - { offsetInCU: 0x7D4E2, offset: 0x92DF0, size: 0x8, addend: 0x0, symName: __ZNSt3__14sortB7v160006INS_11__wrap_iterIPiEENS_6__lessIiiEEEEvT_S6_T0_, symObjAddr: 0x51EA0, symBinAddr: 0x100059C54, symSize: 0x40 }
  - { offsetInCU: 0x7D544, offset: 0x92E52, size: 0x8, addend: 0x0, symName: __ZNSt3__111__sort_implB7v160006INS_17_ClassicAlgPolicyENS_11__wrap_iterIPiEENS_6__lessIiiEEEEvT0_S7_RT1_, symObjAddr: 0x51EE0, symBinAddr: 0x100059C94, symSize: 0x84 }
  - { offsetInCU: 0x7D5FB, offset: 0x92F09, size: 0x8, addend: 0x0, symName: __ZNSt3__123__debug_randomize_rangeB7v160006INS_17_ClassicAlgPolicyENS_11__wrap_iterIPiEES4_EEvT0_T1_, symObjAddr: 0x51F64, symBinAddr: 0x100059D18, symSize: 0x14 }
  - { offsetInCU: 0x7D651, offset: 0x92F5F, size: 0x8, addend: 0x0, symName: __ZNSt3__113__unwrap_iterB7v160006INS_11__wrap_iterIPiEENS_18__unwrap_iter_implIS3_Lb1EEELi0EEEDTclsrT0_8__unwrapclsr3stdE7declvalIT_EEEES7_, symObjAddr: 0x51F78, symBinAddr: 0x100059D2C, symSize: 0x2C }
  - { offsetInCU: 0x7D6F4, offset: 0x93002, size: 0x8, addend: 0x0, symName: __ZNSt3__112__to_addressB7v160006INS_11__wrap_iterIPiEEvEENS_5decayIDTclsr19__to_address_helperIT_EE6__callclsr3stdE7declvalIRKS5_EEEEE4typeES7_, symObjAddr: 0x51FCC, symBinAddr: 0x100059D80, symSize: 0x24 }
  - { offsetInCU: 0x7D795, offset: 0x930A3, size: 0x8, addend: 0x0, symName: __ZNSt3__16uniqueB7v160006INS_11__wrap_iterIPiEENS_10__equal_toEEET_S5_S5_T0_, symObjAddr: 0x5204C, symBinAddr: 0x100059E00, symSize: 0x54 }
  - { offsetInCU: 0x7D7F7, offset: 0x93105, size: 0x8, addend: 0x0, symName: __ZNSt3__18__uniqueB7v160006INS_17_ClassicAlgPolicyENS_11__wrap_iterIPiEES4_RNS_10__equal_toEEENS_4pairIT0_S8_EES8_T1_OT2_, symObjAddr: 0x520A0, symBinAddr: 0x100059E54, symSize: 0x140 }
  - { offsetInCU: 0x7D889, offset: 0x93197, size: 0x8, addend: 0x0, symName: __ZNSt3__115__adjacent_findB7v160006INS_11__wrap_iterIPiEES3_RNS_10__equal_toEEET_S6_T0_OT1_, symObjAddr: 0x521E0, symBinAddr: 0x100059F94, symSize: 0xCC }
  - { offsetInCU: 0x7DA46, offset: 0x93354, size: 0x8, addend: 0x0, symName: __ZNSt3__1eqB7v160006IPiEEbRKNS_11__wrap_iterIT_EES6_, symObjAddr: 0x52380, symBinAddr: 0x10005A134, symSize: 0x48 }
  - { offsetInCU: 0x7DA89, offset: 0x93397, size: 0x8, addend: 0x0, symName: __ZNSt3__112construct_atB7v160006IPN4crow8BaseRuleEJRS3_EPS3_EEPT_S7_DpOT0_, symObjAddr: 0x52900, symBinAddr: 0x10005A6B4, symSize: 0x2C }
  - { offsetInCU: 0x7DB01, offset: 0x9340F, size: 0x8, addend: 0x0, symName: __ZNSt3__142__uninitialized_allocator_move_if_noexceptB7v160006INS_9allocatorIPN4crow8BaseRuleEEENS_16reverse_iteratorIPS4_EES8_S4_vEET1_RT_T0_SC_S9_, symObjAddr: 0x52D94, symBinAddr: 0x10005AB48, symSize: 0x78 }
  - { offsetInCU: 0x7DB7F, offset: 0x9348D, size: 0x8, addend: 0x0, symName: __ZNSt3__14swapB7v160006IPPN4crow8BaseRuleEEENS_9enable_ifIXaasr21is_move_constructibleIT_EE5valuesr18is_move_assignableIS6_EE5valueEvE4typeERS6_S9_, symObjAddr: 0x52E58, symBinAddr: 0x10005AC0C, symSize: 0x3C }
  - { offsetInCU: 0x7DBD9, offset: 0x934E7, size: 0x8, addend: 0x0, symName: __ZNSt3__125__debug_db_invalidate_allB7v160006INS_6vectorIPN4crow8BaseRuleENS_9allocatorIS4_EEEEEEvPT_, symObjAddr: 0x52E94, symBinAddr: 0x10005AC48, symSize: 0x10 }
  - { offsetInCU: 0x7DC0D, offset: 0x9351B, size: 0x8, addend: 0x0, symName: __ZNSt3__14moveB7v160006INS_16reverse_iteratorIPPN4crow8BaseRuleEEES6_EET0_T_S8_S7_, symObjAddr: 0x52EA4, symBinAddr: 0x10005AC58, symSize: 0x78 }
  - { offsetInCU: 0x7DC6F, offset: 0x9357D, size: 0x8, addend: 0x0, symName: __ZNSt3__16__moveB7v160006INS_17_ClassicAlgPolicyENS_16reverse_iteratorIPPN4crow8BaseRuleEEES7_S7_EENS_4pairIT0_T2_EES9_T1_SA_, symObjAddr: 0x52F1C, symBinAddr: 0x10005ACD0, symSize: 0x64 }
  - { offsetInCU: 0x7DCE3, offset: 0x935F1, size: 0x8, addend: 0x0, symName: __ZNSt3__123__dispatch_copy_or_moveB7v160006INS_17_ClassicAlgPolicyENS_11__move_loopIS1_EENS_14__move_trivialENS_16reverse_iteratorIPPN4crow8BaseRuleEEESA_SA_EENS_4pairIT2_T4_EESC_T3_SD_, symObjAddr: 0x52F80, symBinAddr: 0x10005AD34, symSize: 0x64 }
  - { offsetInCU: 0x7DD69, offset: 0x93677, size: 0x8, addend: 0x0, symName: __ZNSt3__121__unwrap_and_dispatchB7v160006INS_10__overloadINS_11__move_loopINS_17_ClassicAlgPolicyEEENS_14__move_trivialEEENS_16reverse_iteratorIPPN4crow8BaseRuleEEESC_SC_Li0EEENS_4pairIT0_T2_EESE_T1_SF_, symObjAddr: 0x52FE4, symBinAddr: 0x10005AD98, symSize: 0x12C }
  - { offsetInCU: 0x7DE05, offset: 0x93713, size: 0x8, addend: 0x0, symName: __ZNSt3__114__unwrap_rangeB7v160006INS_16reverse_iteratorIPPN4crow8BaseRuleEEES6_EEDaT_T0_, symObjAddr: 0x53110, symBinAddr: 0x10005AEC4, symSize: 0x4C }
  - { offsetInCU: 0x7DF2B, offset: 0x93839, size: 0x8, addend: 0x0, symName: __ZNSt3__113__unwrap_iterB7v160006INS_16reverse_iteratorIPPN4crow8BaseRuleEEENS_18__unwrap_iter_implIS6_Lb0EEELi0EEEDTclsrT0_8__unwrapclsr3stdE7declvalIT_EEEESA_, symObjAddr: 0x531FC, symBinAddr: 0x10005AFB0, symSize: 0x44 }
  - { offsetInCU: 0x7DF73, offset: 0x93881, size: 0x8, addend: 0x0, symName: __ZNSt3__19make_pairB7v160006INS_16reverse_iteratorIPPN4crow8BaseRuleEEES6_EENS_4pairINS_18__unwrap_ref_decayIT_E4typeENS8_IT0_E4typeEEEOS9_OSC_, symObjAddr: 0x53240, symBinAddr: 0x10005AFF4, symSize: 0x38 }
  - { offsetInCU: 0x7DFC2, offset: 0x938D0, size: 0x8, addend: 0x0, symName: __ZNSt3__114__rewrap_rangeB7v160006INS_16reverse_iteratorIPPN4crow8BaseRuleEEES6_S6_EET0_S7_T1_, symObjAddr: 0x53278, symBinAddr: 0x10005B02C, symSize: 0x5C }
  - { offsetInCU: 0x7E01D, offset: 0x9392B, size: 0x8, addend: 0x0, symName: __ZNSt3__113__rewrap_iterB7v160006INS_16reverse_iteratorIPPN4crow8BaseRuleEEES6_NS_18__unwrap_iter_implIS6_Lb0EEEEET_S9_T0_, symObjAddr: 0x532D4, symBinAddr: 0x10005B088, symSize: 0x74 }
  - { offsetInCU: 0x7E0CE, offset: 0x939DC, size: 0x8, addend: 0x0, symName: __ZNSt3__1neB7v160006IPPN4crow8BaseRuleES4_EEbRKNS_16reverse_iteratorIT_EERKNS5_IT0_EE, symObjAddr: 0x5343C, symBinAddr: 0x10005B1F0, symSize: 0x48 }
  - { offsetInCU: 0x7E18C, offset: 0x93A9A, size: 0x8, addend: 0x0, symName: __ZNSt3__16all_ofB7v160006INS_11__wrap_iterIPKN4crow4Trie4NodeEEEZNKS4_12IsSimpleNodeEvEUlRS5_E_EEbT_SA_T0_, symObjAddr: 0x53938, symBinAddr: 0x10005B6EC, symSize: 0x94 }
  - { offsetInCU: 0x7E1EE, offset: 0x93AFC, size: 0x8, addend: 0x0, symName: __ZNSt3__15beginB7v160006INS_6vectorIN4crow4Trie4NodeENS_9allocatorIS4_EEEEEEDTcldtfp_5beginEERKT_, symObjAddr: 0x539CC, symBinAddr: 0x10005B780, symSize: 0x2C }
  - { offsetInCU: 0x7E227, offset: 0x93B35, size: 0x8, addend: 0x0, symName: __ZNSt3__13endB7v160006INS_6vectorIN4crow4Trie4NodeENS_9allocatorIS4_EEEEEEDTcldtfp_3endEERKT_, symObjAddr: 0x539F8, symBinAddr: 0x10005B7AC, symSize: 0x2C }
  - { offsetInCU: 0x7E260, offset: 0x93B6E, size: 0x8, addend: 0x0, symName: __ZNSt3__1neB7v160006IPKN4crow4Trie4NodeEEEbRKNS_11__wrap_iterIT_EESA_, symObjAddr: 0x53A24, symBinAddr: 0x10005B7D8, symSize: 0x34 }
  - { offsetInCU: 0x7E2A3, offset: 0x93BB1, size: 0x8, addend: 0x0, symName: __ZNSt3__1eqB7v160006IPKN4crow4Trie4NodeEEEbRKNS_11__wrap_iterIT_EESA_, symObjAddr: 0x53AB8, symBinAddr: 0x10005B86C, symSize: 0x48 }
  - { offsetInCU: 0x7E32E, offset: 0x93C3C, size: 0x8, addend: 0x0, symName: __ZNSt3__122__cxx_atomic_fetch_addB7v160006IlEET_PNS_22__cxx_atomic_base_implIS1_EES1_NS_12memory_orderE, symObjAddr: 0x57FD8, symBinAddr: 0x10005FD8C, symSize: 0xC4 }
  - { offsetInCU: 0x7E384, offset: 0x93C92, size: 0x8, addend: 0x0, symName: __ZNSt3__119__debug_db_insert_cB7v160006INS_6vectorINS_10unique_ptrIN4asio10io_contextENS_14default_deleteIS4_EEEENS_9allocatorIS7_EEEEEEvPT_, symObjAddr: 0x598C0, symBinAddr: 0x100061674, symSize: 0x10 }
  - { offsetInCU: 0x7E3B9, offset: 0x93CC7, size: 0x8, addend: 0x0, symName: __ZNSt3__119__debug_db_insert_cB7v160006INS_6vectorIPN4crow6detail10task_timerENS_9allocatorIS5_EEEEEEvPT_, symObjAddr: 0x59A2C, symBinAddr: 0x1000617E0, symSize: 0x10 }
  - { offsetInCU: 0x7E3EE, offset: 0x93CFC, size: 0x8, addend: 0x0, symName: __ZNSt3__119__debug_db_insert_cB7v160006INS_6vectorINS_8functionIFNS_12basic_stringIcNS_11char_traitsIcEENS_9allocatorIcEEEEvEEENS6_ISA_EEEEEEvPT_, symObjAddr: 0x59B98, symBinAddr: 0x10006194C, symSize: 0x10 }
  - { offsetInCU: 0x7E422, offset: 0x93D30, size: 0x8, addend: 0x0, symName: __ZNSt3__1eqB7v160006IvvEEbRKNS_9allocatorIT_EERKNS1_IT0_EE, symObjAddr: 0x5BFE8, symBinAddr: 0x100063D9C, symSize: 0x1C }
  - { offsetInCU: 0x7E465, offset: 0x93D73, size: 0x8, addend: 0x0, symName: __ZNSt3__119atomic_thread_fenceB7v160006ENS_12memory_orderE, symObjAddr: 0x5C5D4, symBinAddr: 0x100064388, symSize: 0x24 }
  - { offsetInCU: 0x7E490, offset: 0x93D9E, size: 0x8, addend: 0x0, symName: __ZNSt3__125__cxx_atomic_thread_fenceB7v160006ENS_12memory_orderE, symObjAddr: 0x5C5F8, symBinAddr: 0x1000643AC, symSize: 0x64 }
  - { offsetInCU: 0x7E5FF, offset: 0x93F0D, size: 0x8, addend: 0x0, symName: __ZNSt3__119__debug_db_insert_cB7v160006INS_6vectorIN4asio6detail11timer_queueINS3_18chrono_time_traitsINS_6chrono12steady_clockENS2_11wait_traitsIS7_EEEEE10heap_entryENS_9allocatorISC_EEEEEEvPT_, symObjAddr: 0x65BD8, symBinAddr: 0x10006D98C, symSize: 0x10 }
  - { offsetInCU: 0x7E634, offset: 0x93F42, size: 0x8, addend: 0x0, symName: __ZNSt3__125__debug_db_invalidate_allB7v160006INS_6vectorIN4asio6detail11timer_queueINS3_18chrono_time_traitsINS_6chrono12steady_clockENS2_11wait_traitsIS7_EEEEE10heap_entryENS_9allocatorISC_EEEEEEvPT_, symObjAddr: 0x66560, symBinAddr: 0x10006E314, symSize: 0x10 }
  - { offsetInCU: 0x7E669, offset: 0x93F77, size: 0x8, addend: 0x0, symName: __ZNSt3__118__debug_db_erase_cB7v160006INS_6vectorIN4asio6detail11timer_queueINS3_18chrono_time_traitsINS_6chrono12steady_clockENS2_11wait_traitsIS7_EEEEE10heap_entryENS_9allocatorISC_EEEEEEvPT_, symObjAddr: 0x66898, symBinAddr: 0x10006E64C, symSize: 0x10 }
  - { offsetInCU: 0x7E69D, offset: 0x93FAB, size: 0x8, addend: 0x0, symName: __ZNSt3__122__make_exception_guardB7v160006INS_6vectorINS_6atomicIjEENS_9allocatorIS3_EEE16__destroy_vectorEEENS_28__exception_guard_exceptionsIT_EES9_, symObjAddr: 0x66D4C, symBinAddr: 0x10006EB00, symSize: 0x40 }
  - { offsetInCU: 0x7E6D3, offset: 0x93FE1, size: 0x8, addend: 0x0, symName: __ZNSt3__119__debug_db_insert_cB7v160006INS_6vectorINS_6atomicIjEENS_9allocatorIS3_EEEEEEvPT_, symObjAddr: 0x66D8C, symBinAddr: 0x10006EB40, symSize: 0x10 }
  - { offsetInCU: 0x7E707, offset: 0x94015, size: 0x8, addend: 0x0, symName: __ZNSt3__119__allocate_at_leastB7v160006INS_9allocatorINS_6atomicIjEEEEEENS_19__allocation_resultINS_16allocator_traitsIT_E7pointerEEERS7_m, symObjAddr: 0x670F4, symBinAddr: 0x10006EEA8, symSize: 0x40 }
  - { offsetInCU: 0x7E779, offset: 0x94087, size: 0x8, addend: 0x0, symName: __ZNSt3__112construct_atB7v160006INS_6atomicIjEEJEPS2_EEPT_S5_DpOT0_, symObjAddr: 0x673F4, symBinAddr: 0x10006F1A8, symSize: 0x38 }
  - { offsetInCU: 0x7E7DB, offset: 0x940E9, size: 0x8, addend: 0x0, symName: __ZNSt3__14swapB7v160006IPNS_10__function6__baseIFvvEEEEENS_9enable_ifIXaasr21is_move_constructibleIT_EE5valuesr18is_move_assignableIS7_EE5valueEvE4typeERS7_SA_, symObjAddr: 0x67B24, symBinAddr: 0x10006F8D8, symSize: 0x3C }
  - { offsetInCU: 0x7E83A, offset: 0x94148, size: 0x8, addend: 0x0, symName: __ZNSt3__111this_thread5yieldB7v160006Ev, symObjAddr: 0x68C30, symBinAddr: 0x1000709E4, symSize: 0x1C }
  - { offsetInCU: 0x7E87E, offset: 0x9418C, size: 0x8, addend: 0x0, symName: __ZNSt3__112construct_atB7v160006INS_10unique_ptrIN4asio10io_contextENS_14default_deleteIS3_EEEEJPS3_EPS6_EEPT_SA_DpOT0_, symObjAddr: 0x69204, symBinAddr: 0x100070FB8, symSize: 0x40 }
  - { offsetInCU: 0x7E8F6, offset: 0x94204, size: 0x8, addend: 0x0, symName: __ZNSt3__119__allocate_at_leastB7v160006INS_9allocatorINS_10unique_ptrIN4asio10io_contextENS_14default_deleteIS4_EEEEEEEENS_19__allocation_resultINS_16allocator_traitsIT_E7pointerEEERSB_m, symObjAddr: 0x697E0, symBinAddr: 0x100071594, symSize: 0x40 }
  - { offsetInCU: 0x7E93F, offset: 0x9424D, size: 0x8, addend: 0x0, symName: __ZNSt3__142__uninitialized_allocator_move_if_noexceptB7v160006INS_9allocatorINS_10unique_ptrIN4asio10io_contextENS_14default_deleteIS4_EEEEEENS_16reverse_iteratorIPS7_EESB_SB_EET2_RT_T0_T1_SC_, symObjAddr: 0x69994, symBinAddr: 0x100071748, symSize: 0x12C }
  - { offsetInCU: 0x7E9DF, offset: 0x942ED, size: 0x8, addend: 0x0, symName: __ZNSt3__14swapB7v160006IPNS_10unique_ptrIN4asio10io_contextENS_14default_deleteIS3_EEEEEENS_9enable_ifIXaasr21is_move_constructibleIT_EE5valuesr18is_move_assignableIS9_EE5valueEvE4typeERS9_SC_, symObjAddr: 0x69B0C, symBinAddr: 0x1000718C0, symSize: 0x3C }
  - { offsetInCU: 0x7EA39, offset: 0x94347, size: 0x8, addend: 0x0, symName: __ZNSt3__125__debug_db_invalidate_allB7v160006INS_6vectorINS_10unique_ptrIN4asio10io_contextENS_14default_deleteIS4_EEEENS_9allocatorIS7_EEEEEEvPT_, symObjAddr: 0x69BF4, symBinAddr: 0x1000719A8, symSize: 0x10 }
  - { offsetInCU: 0x7EA6D, offset: 0x9437B, size: 0x8, addend: 0x0, symName: __ZNSt3__122__make_exception_guardB7v160006INS_29_AllocatorDestroyRangeReverseINS_9allocatorINS_10unique_ptrIN4asio10io_contextENS_14default_deleteIS5_EEEEEENS_16reverse_iteratorIPS8_EEEEEENS_28__exception_guard_exceptionsIT_EESF_, symObjAddr: 0x69C04, symBinAddr: 0x1000719B8, symSize: 0x4C }
  - { offsetInCU: 0x7EAA3, offset: 0x943B1, size: 0x8, addend: 0x0, symName: __ZNSt3__1neB7v160006IPNS_10unique_ptrIN4asio10io_contextENS_14default_deleteIS3_EEEES7_EEbRKNS_16reverse_iteratorIT_EERKNS8_IT0_EE, symObjAddr: 0x69C94, symBinAddr: 0x100071A48, symSize: 0x48 }
  - { offsetInCU: 0x7EAEF, offset: 0x943FD, size: 0x8, addend: 0x0, symName: __ZNSt3__112__to_addressB7v160006INS_16reverse_iteratorIPNS_10unique_ptrIN4asio10io_contextENS_14default_deleteIS4_EEEEEEvEENS_5decayIDTclsr19__to_address_helperIT_EE6__callclsr3stdE7declvalIRKSB_EEEEE4typeESD_, symObjAddr: 0x69D0C, symBinAddr: 0x100071AC0, symSize: 0x24 }
  - { offsetInCU: 0x7EB25, offset: 0x94433, size: 0x8, addend: 0x0, symName: __ZNSt3__112construct_atB7v160006INS_10unique_ptrIN4asio10io_contextENS_14default_deleteIS3_EEEEJS6_EPS6_EEPT_S9_DpOT0_, symObjAddr: 0x69E5C, symBinAddr: 0x100071C10, symSize: 0x3C }
  - { offsetInCU: 0x7EBC6, offset: 0x944D4, size: 0x8, addend: 0x0, symName: __ZNSt3__14prevB7v160006IPNS_10unique_ptrIN4asio10io_contextENS_14default_deleteIS3_EEEEEENS_9enable_ifIXsr25__is_cpp17_input_iteratorIT_EE5valueES9_E4typeES9_NS_15iterator_traitsIS9_E15difference_typeE, symObjAddr: 0x6A0B4, symBinAddr: 0x100071E68, symSize: 0x50 }
  - { offsetInCU: 0x7EC10, offset: 0x9451E, size: 0x8, addend: 0x0, symName: __ZNSt3__19__advanceB7v160006IPNS_10unique_ptrIN4asio10io_contextENS_14default_deleteIS3_EEEEEEvRT_NS_15iterator_traitsIS8_E15difference_typeENS_26random_access_iterator_tagE, symObjAddr: 0x6A154, symBinAddr: 0x100071F08, symSize: 0x28 }
  - { offsetInCU: 0x7EC58, offset: 0x94566, size: 0x8, addend: 0x0, symName: __ZNSt3__119__allocator_destroyB7v160006INS_9allocatorINS_10unique_ptrIN4asio10io_contextENS_14default_deleteIS4_EEEEEENS_16reverse_iteratorINS9_IPS7_EEEESC_EEvRT_T0_T1_, symObjAddr: 0x6A280, symBinAddr: 0x100072034, symSize: 0x70 }
  - { offsetInCU: 0x7ECBD, offset: 0x945CB, size: 0x8, addend: 0x0, symName: __ZNSt3__1neB7v160006INS_16reverse_iteratorIPNS_10unique_ptrIN4asio10io_contextENS_14default_deleteIS4_EEEEEES9_EEbRKNS1_IT_EERKNS1_IT0_EE, symObjAddr: 0x6A32C, symBinAddr: 0x1000720E0, symSize: 0x60 }
  - { offsetInCU: 0x7ED09, offset: 0x94617, size: 0x8, addend: 0x0, symName: __ZNSt3__112__to_addressB7v160006INS_16reverse_iteratorINS1_IPNS_10unique_ptrIN4asio10io_contextENS_14default_deleteIS4_EEEEEEEEvEENS_5decayIDTclsr19__to_address_helperIT_EE6__callclsr3stdE7declvalIRKSC_EEEEE4typeESE_, symObjAddr: 0x6A38C, symBinAddr: 0x100072140, symSize: 0x24 }
  - { offsetInCU: 0x7ED68, offset: 0x94676, size: 0x8, addend: 0x0, symName: __ZNSt3__14prevB7v160006INS_16reverse_iteratorIPNS_10unique_ptrIN4asio10io_contextENS_14default_deleteIS4_EEEEEEEENS_9enable_ifIXsr25__is_cpp17_input_iteratorIT_EE5valueESB_E4typeESB_NS_15iterator_traitsISB_E15difference_typeE, symObjAddr: 0x6A488, symBinAddr: 0x10007223C, symSize: 0x60 }
  - { offsetInCU: 0x7EDB1, offset: 0x946BF, size: 0x8, addend: 0x0, symName: __ZNSt3__19__advanceB7v160006INS_16reverse_iteratorIPNS_10unique_ptrIN4asio10io_contextENS_14default_deleteIS4_EEEEEEEEvRT_NS_15iterator_traitsISA_E15difference_typeENS_26random_access_iterator_tagE, symObjAddr: 0x6A538, symBinAddr: 0x1000722EC, symSize: 0x2C }
  - { offsetInCU: 0x7EE23, offset: 0x94731, size: 0x8, addend: 0x0, symName: __ZNSt3__112construct_atB7v160006INS_8functionIFNS_12basic_stringIcNS_11char_traitsIcEENS_9allocatorIcEEEEvEEEJEPS9_EEPT_SC_DpOT0_, symObjAddr: 0x6AE48, symBinAddr: 0x100072BFC, symSize: 0x34 }
  - { offsetInCU: 0x7EE85, offset: 0x94793, size: 0x8, addend: 0x0, symName: __ZNSt3__119__allocate_at_leastB7v160006INS_9allocatorINS_8functionIFNS_12basic_stringIcNS_11char_traitsIcEENS1_IcEEEEvEEEEEEENS_19__allocation_resultINS_16allocator_traitsIT_E7pointerEEERSD_m, symObjAddr: 0x6B14C, symBinAddr: 0x100072F00, symSize: 0x40 }
  - { offsetInCU: 0x7EECE, offset: 0x947DC, size: 0x8, addend: 0x0, symName: __ZNSt3__142__uninitialized_allocator_move_if_noexceptB7v160006INS_9allocatorINS_8functionIFNS_12basic_stringIcNS_11char_traitsIcEENS1_IcEEEEvEEEEENS_16reverse_iteratorIPS9_EESD_SD_EET2_RT_T0_T1_SE_, symObjAddr: 0x6B3CC, symBinAddr: 0x100073180, symSize: 0x12C }
  - { offsetInCU: 0x7EF6E, offset: 0x9487C, size: 0x8, addend: 0x0, symName: __ZNSt3__14swapB7v160006IPNS_8functionIFNS_12basic_stringIcNS_11char_traitsIcEENS_9allocatorIcEEEEvEEEEENS_9enable_ifIXaasr21is_move_constructibleIT_EE5valuesr18is_move_assignableISC_EE5valueEvE4typeERSC_SF_, symObjAddr: 0x6B544, symBinAddr: 0x1000732F8, symSize: 0x3C }
  - { offsetInCU: 0x7EFC8, offset: 0x948D6, size: 0x8, addend: 0x0, symName: __ZNSt3__125__debug_db_invalidate_allB7v160006INS_6vectorINS_8functionIFNS_12basic_stringIcNS_11char_traitsIcEENS_9allocatorIcEEEEvEEENS6_ISA_EEEEEEvPT_, symObjAddr: 0x6B62C, symBinAddr: 0x1000733E0, symSize: 0x10 }
  - { offsetInCU: 0x7EFFC, offset: 0x9490A, size: 0x8, addend: 0x0, symName: __ZNSt3__122__make_exception_guardB7v160006INS_29_AllocatorDestroyRangeReverseINS_9allocatorINS_8functionIFNS_12basic_stringIcNS_11char_traitsIcEENS2_IcEEEEvEEEEENS_16reverse_iteratorIPSA_EEEEEENS_28__exception_guard_exceptionsIT_EESH_, symObjAddr: 0x6B63C, symBinAddr: 0x1000733F0, symSize: 0x4C }
  - { offsetInCU: 0x7F032, offset: 0x94940, size: 0x8, addend: 0x0, symName: __ZNSt3__1neB7v160006IPNS_8functionIFNS_12basic_stringIcNS_11char_traitsIcEENS_9allocatorIcEEEEvEEESA_EEbRKNS_16reverse_iteratorIT_EERKNSB_IT0_EE, symObjAddr: 0x6B6CC, symBinAddr: 0x100073480, symSize: 0x48 }
  - { offsetInCU: 0x7F07E, offset: 0x9498C, size: 0x8, addend: 0x0, symName: __ZNSt3__112__to_addressB7v160006INS_16reverse_iteratorIPNS_8functionIFNS_12basic_stringIcNS_11char_traitsIcEENS_9allocatorIcEEEEvEEEEEvEENS_5decayIDTclsr19__to_address_helperIT_EE6__callclsr3stdE7declvalIRKSE_EEEEE4typeESG_, symObjAddr: 0x6B744, symBinAddr: 0x1000734F8, symSize: 0x24 }
  - { offsetInCU: 0x7F0B4, offset: 0x949C2, size: 0x8, addend: 0x0, symName: __ZNSt3__112construct_atB7v160006INS_8functionIFNS_12basic_stringIcNS_11char_traitsIcEENS_9allocatorIcEEEEvEEEJS9_EPS9_EEPT_SC_DpOT0_, symObjAddr: 0x6B894, symBinAddr: 0x100073648, symSize: 0x3C }
  - { offsetInCU: 0x7F155, offset: 0x94A63, size: 0x8, addend: 0x0, symName: __ZNSt3__14prevB7v160006IPNS_8functionIFNS_12basic_stringIcNS_11char_traitsIcEENS_9allocatorIcEEEEvEEEEENS_9enable_ifIXsr25__is_cpp17_input_iteratorIT_EE5valueESC_E4typeESC_NS_15iterator_traitsISC_E15difference_typeE, symObjAddr: 0x6BAB4, symBinAddr: 0x100073868, symSize: 0x50 }
  - { offsetInCU: 0x7F19F, offset: 0x94AAD, size: 0x8, addend: 0x0, symName: __ZNSt3__19__advanceB7v160006IPNS_8functionIFNS_12basic_stringIcNS_11char_traitsIcEENS_9allocatorIcEEEEvEEEEEvRT_NS_15iterator_traitsISB_E15difference_typeENS_26random_access_iterator_tagE, symObjAddr: 0x6BB54, symBinAddr: 0x100073908, symSize: 0x28 }
  - { offsetInCU: 0x7F1E7, offset: 0x94AF5, size: 0x8, addend: 0x0, symName: __ZNSt3__119__allocator_destroyB7v160006INS_9allocatorINS_8functionIFNS_12basic_stringIcNS_11char_traitsIcEENS1_IcEEEEvEEEEENS_16reverse_iteratorINSB_IPS9_EEEESE_EEvRT_T0_T1_, symObjAddr: 0x6BC80, symBinAddr: 0x100073A34, symSize: 0x70 }
  - { offsetInCU: 0x7F24C, offset: 0x94B5A, size: 0x8, addend: 0x0, symName: __ZNSt3__1neB7v160006INS_16reverse_iteratorIPNS_8functionIFNS_12basic_stringIcNS_11char_traitsIcEENS_9allocatorIcEEEEvEEEEESC_EEbRKNS1_IT_EERKNS1_IT0_EE, symObjAddr: 0x6BD2C, symBinAddr: 0x100073AE0, symSize: 0x60 }
  - { offsetInCU: 0x7F298, offset: 0x94BA6, size: 0x8, addend: 0x0, symName: __ZNSt3__112__to_addressB7v160006INS_16reverse_iteratorINS1_IPNS_8functionIFNS_12basic_stringIcNS_11char_traitsIcEENS_9allocatorIcEEEEvEEEEEEEvEENS_5decayIDTclsr19__to_address_helperIT_EE6__callclsr3stdE7declvalIRKSF_EEEEE4typeESH_, symObjAddr: 0x6BD8C, symBinAddr: 0x100073B40, symSize: 0x24 }
  - { offsetInCU: 0x7F2F7, offset: 0x94C05, size: 0x8, addend: 0x0, symName: __ZNSt3__14prevB7v160006INS_16reverse_iteratorIPNS_8functionIFNS_12basic_stringIcNS_11char_traitsIcEENS_9allocatorIcEEEEvEEEEEEENS_9enable_ifIXsr25__is_cpp17_input_iteratorIT_EE5valueESE_E4typeESE_NS_15iterator_traitsISE_E15difference_typeE, symObjAddr: 0x6BE88, symBinAddr: 0x100073C3C, symSize: 0x60 }
  - { offsetInCU: 0x7F340, offset: 0x94C4E, size: 0x8, addend: 0x0, symName: __ZNSt3__19__advanceB7v160006INS_16reverse_iteratorIPNS_8functionIFNS_12basic_stringIcNS_11char_traitsIcEENS_9allocatorIcEEEEvEEEEEEEvRT_NS_15iterator_traitsISD_E15difference_typeENS_26random_access_iterator_tagE, symObjAddr: 0x6BF38, symBinAddr: 0x100073CEC, symSize: 0x2C }
  - { offsetInCU: 0x7F3B2, offset: 0x94CC0, size: 0x8, addend: 0x0, symName: __ZNSt3__112construct_atB7v160006IPN4crow6detail10task_timerEJEPS4_EEPT_S7_DpOT0_, symObjAddr: 0x6C910, symBinAddr: 0x1000746C4, symSize: 0x20 }
  - { offsetInCU: 0x7F414, offset: 0x94D22, size: 0x8, addend: 0x0, symName: __ZNSt3__119__allocate_at_leastB7v160006INS_9allocatorIPN4crow6detail10task_timerEEEEENS_19__allocation_resultINS_16allocator_traitsIT_E7pointerEEERS9_m, symObjAddr: 0x6CB64, symBinAddr: 0x100074918, symSize: 0x40 }
  - { offsetInCU: 0x7F45D, offset: 0x94D6B, size: 0x8, addend: 0x0, symName: __ZNSt3__142__uninitialized_allocator_move_if_noexceptB7v160006INS_9allocatorIPN4crow6detail10task_timerEEENS_16reverse_iteratorIPS5_EES9_S5_vEET1_RT_T0_SD_SA_, symObjAddr: 0x6CDE4, symBinAddr: 0x100074B98, symSize: 0x78 }
  - { offsetInCU: 0x7F4DB, offset: 0x94DE9, size: 0x8, addend: 0x0, symName: __ZNSt3__14swapB7v160006IPPN4crow6detail10task_timerEEENS_9enable_ifIXaasr21is_move_constructibleIT_EE5valuesr18is_move_assignableIS7_EE5valueEvE4typeERS7_SA_, symObjAddr: 0x6CEA8, symBinAddr: 0x100074C5C, symSize: 0x3C }
  - { offsetInCU: 0x7F535, offset: 0x94E43, size: 0x8, addend: 0x0, symName: __ZNSt3__125__debug_db_invalidate_allB7v160006INS_6vectorIPN4crow6detail10task_timerENS_9allocatorIS5_EEEEEEvPT_, symObjAddr: 0x6CF90, symBinAddr: 0x100074D44, symSize: 0x10 }
  - { offsetInCU: 0x7F569, offset: 0x94E77, size: 0x8, addend: 0x0, symName: __ZNSt3__14moveB7v160006INS_16reverse_iteratorIPPN4crow6detail10task_timerEEES7_EET0_T_S9_S8_, symObjAddr: 0x6CFA0, symBinAddr: 0x100074D54, symSize: 0x78 }
  - { offsetInCU: 0x7F5CB, offset: 0x94ED9, size: 0x8, addend: 0x0, symName: __ZNSt3__16__moveB7v160006INS_17_ClassicAlgPolicyENS_16reverse_iteratorIPPN4crow6detail10task_timerEEES8_S8_EENS_4pairIT0_T2_EESA_T1_SB_, symObjAddr: 0x6D018, symBinAddr: 0x100074DCC, symSize: 0x64 }
  - { offsetInCU: 0x7F63F, offset: 0x94F4D, size: 0x8, addend: 0x0, symName: __ZNSt3__123__dispatch_copy_or_moveB7v160006INS_17_ClassicAlgPolicyENS_11__move_loopIS1_EENS_14__move_trivialENS_16reverse_iteratorIPPN4crow6detail10task_timerEEESB_SB_EENS_4pairIT2_T4_EESD_T3_SE_, symObjAddr: 0x6D07C, symBinAddr: 0x100074E30, symSize: 0x64 }
  - { offsetInCU: 0x7F6C5, offset: 0x94FD3, size: 0x8, addend: 0x0, symName: __ZNSt3__121__unwrap_and_dispatchB7v160006INS_10__overloadINS_11__move_loopINS_17_ClassicAlgPolicyEEENS_14__move_trivialEEENS_16reverse_iteratorIPPN4crow6detail10task_timerEEESD_SD_Li0EEENS_4pairIT0_T2_EESF_T1_SG_, symObjAddr: 0x6D0E0, symBinAddr: 0x100074E94, symSize: 0x12C }
  - { offsetInCU: 0x7F761, offset: 0x9506F, size: 0x8, addend: 0x0, symName: __ZNSt3__114__unwrap_rangeB7v160006INS_16reverse_iteratorIPPN4crow6detail10task_timerEEES7_EEDaT_T0_, symObjAddr: 0x6D20C, symBinAddr: 0x100074FC0, symSize: 0x4C }
  - { offsetInCU: 0x7F887, offset: 0x95195, size: 0x8, addend: 0x0, symName: __ZNSt3__113__unwrap_iterB7v160006INS_16reverse_iteratorIPPN4crow6detail10task_timerEEENS_18__unwrap_iter_implIS7_Lb0EEELi0EEEDTclsrT0_8__unwrapclsr3stdE7declvalIT_EEEESB_, symObjAddr: 0x6D2F8, symBinAddr: 0x1000750AC, symSize: 0x44 }
  - { offsetInCU: 0x7F8CF, offset: 0x951DD, size: 0x8, addend: 0x0, symName: __ZNSt3__19make_pairB7v160006INS_16reverse_iteratorIPPN4crow6detail10task_timerEEES7_EENS_4pairINS_18__unwrap_ref_decayIT_E4typeENS9_IT0_E4typeEEEOSA_OSD_, symObjAddr: 0x6D33C, symBinAddr: 0x1000750F0, symSize: 0x38 }
  - { offsetInCU: 0x7F91E, offset: 0x9522C, size: 0x8, addend: 0x0, symName: __ZNSt3__114__rewrap_rangeB7v160006INS_16reverse_iteratorIPPN4crow6detail10task_timerEEES7_S7_EET0_S8_T1_, symObjAddr: 0x6D374, symBinAddr: 0x100075128, symSize: 0x5C }
  - { offsetInCU: 0x7F979, offset: 0x95287, size: 0x8, addend: 0x0, symName: __ZNSt3__113__rewrap_iterB7v160006INS_16reverse_iteratorIPPN4crow6detail10task_timerEEES7_NS_18__unwrap_iter_implIS7_Lb0EEEEET_SA_T0_, symObjAddr: 0x6D3D0, symBinAddr: 0x100075184, symSize: 0x74 }
  - { offsetInCU: 0x7FA2A, offset: 0x95338, size: 0x8, addend: 0x0, symName: __ZNSt3__1neB7v160006IPPN4crow6detail10task_timerES5_EEbRKNS_16reverse_iteratorIT_EERKNS6_IT0_EE, symObjAddr: 0x6D538, symBinAddr: 0x1000752EC, symSize: 0x48 }
  - { offsetInCU: 0x7FAE9, offset: 0x953F7, size: 0x8, addend: 0x0, symName: __ZNSt3__119__debug_db_insert_cB7v160006INS_6vectorINS_6futureIvEENS_9allocatorIS3_EEEEEEvPT_, symObjAddr: 0x6DA10, symBinAddr: 0x1000757C4, symSize: 0x10 }
  - { offsetInCU: 0x7FB1D, offset: 0x9542B, size: 0x8, addend: 0x0, symName: __ZNSt3__112__to_addressB7v160006INS_6futureIvEEEEPT_S4_, symObjAddr: 0x6DE68, symBinAddr: 0x100075C1C, symSize: 0x14 }
  - { offsetInCU: 0x7FB7B, offset: 0x95489, size: 0x8, addend: 0x0, symName: __ZNSt3__112construct_atB7v160006INS_6futureIvEEJS2_EPS2_EEPT_S5_DpOT0_, symObjAddr: 0x6DEEC, symBinAddr: 0x100075CA0, symSize: 0x3C }
  - { offsetInCU: 0x7FBF3, offset: 0x95501, size: 0x8, addend: 0x0, symName: __ZNSt3__119__allocate_at_leastB7v160006INS_9allocatorINS_6futureIvEEEEEENS_19__allocation_resultINS_16allocator_traitsIT_E7pointerEEERS7_m, symObjAddr: 0x6E4F8, symBinAddr: 0x1000762AC, symSize: 0x40 }
  - { offsetInCU: 0x7FC3C, offset: 0x9554A, size: 0x8, addend: 0x0, symName: __ZNSt3__142__uninitialized_allocator_move_if_noexceptB7v160006INS_9allocatorINS_6futureIvEEEENS_16reverse_iteratorIPS3_EES7_S7_EET2_RT_T0_T1_S8_, symObjAddr: 0x6E764, symBinAddr: 0x100076518, symSize: 0x12C }
  - { offsetInCU: 0x7FCDC, offset: 0x955EA, size: 0x8, addend: 0x0, symName: __ZNSt3__14swapB7v160006IPNS_6futureIvEEEENS_9enable_ifIXaasr21is_move_constructibleIT_EE5valuesr18is_move_assignableIS5_EE5valueEvE4typeERS5_S8_, symObjAddr: 0x6E8DC, symBinAddr: 0x100076690, symSize: 0x3C }
  - { offsetInCU: 0x7FD36, offset: 0x95644, size: 0x8, addend: 0x0, symName: __ZNSt3__125__debug_db_invalidate_allB7v160006INS_6vectorINS_6futureIvEENS_9allocatorIS3_EEEEEEvPT_, symObjAddr: 0x6E9C4, symBinAddr: 0x100076778, symSize: 0x10 }
  - { offsetInCU: 0x7FD6A, offset: 0x95678, size: 0x8, addend: 0x0, symName: __ZNSt3__122__make_exception_guardB7v160006INS_29_AllocatorDestroyRangeReverseINS_9allocatorINS_6futureIvEEEENS_16reverse_iteratorIPS4_EEEEEENS_28__exception_guard_exceptionsIT_EESB_, symObjAddr: 0x6EA1C, symBinAddr: 0x1000767D0, symSize: 0x4C }
  - { offsetInCU: 0x7FDA0, offset: 0x956AE, size: 0x8, addend: 0x0, symName: __ZNSt3__1neB7v160006IPNS_6futureIvEES3_EEbRKNS_16reverse_iteratorIT_EERKNS4_IT0_EE, symObjAddr: 0x6EAAC, symBinAddr: 0x100076860, symSize: 0x48 }
  - { offsetInCU: 0x7FDEC, offset: 0x956FA, size: 0x8, addend: 0x0, symName: __ZNSt3__112__to_addressB7v160006INS_16reverse_iteratorIPNS_6futureIvEEEEvEENS_5decayIDTclsr19__to_address_helperIT_EE6__callclsr3stdE7declvalIRKS7_EEEEE4typeES9_, symObjAddr: 0x6EAF4, symBinAddr: 0x1000768A8, symSize: 0x24 }
  - { offsetInCU: 0x7FE4B, offset: 0x95759, size: 0x8, addend: 0x0, symName: __ZNSt3__14prevB7v160006IPNS_6futureIvEEEENS_9enable_ifIXsr25__is_cpp17_input_iteratorIT_EE5valueES5_E4typeES5_NS_15iterator_traitsIS5_E15difference_typeE, symObjAddr: 0x6ECA8, symBinAddr: 0x100076A5C, symSize: 0x50 }
  - { offsetInCU: 0x7FE95, offset: 0x957A3, size: 0x8, addend: 0x0, symName: __ZNSt3__19__advanceB7v160006IPNS_6futureIvEEEEvRT_NS_15iterator_traitsIS4_E15difference_typeENS_26random_access_iterator_tagE, symObjAddr: 0x6ED48, symBinAddr: 0x100076AFC, symSize: 0x28 }
  - { offsetInCU: 0x7FEDD, offset: 0x957EB, size: 0x8, addend: 0x0, symName: __ZNSt3__119__allocator_destroyB7v160006INS_9allocatorINS_6futureIvEEEENS_16reverse_iteratorINS5_IPS3_EEEES8_EEvRT_T0_T1_, symObjAddr: 0x6EE74, symBinAddr: 0x100076C28, symSize: 0x70 }
  - { offsetInCU: 0x7FF42, offset: 0x95850, size: 0x8, addend: 0x0, symName: __ZNSt3__1neB7v160006INS_16reverse_iteratorIPNS_6futureIvEEEES5_EEbRKNS1_IT_EERKNS1_IT0_EE, symObjAddr: 0x6EF20, symBinAddr: 0x100076CD4, symSize: 0x60 }
  - { offsetInCU: 0x7FF8E, offset: 0x9589C, size: 0x8, addend: 0x0, symName: __ZNSt3__112__to_addressB7v160006INS_16reverse_iteratorINS1_IPNS_6futureIvEEEEEEvEENS_5decayIDTclsr19__to_address_helperIT_EE6__callclsr3stdE7declvalIRKS8_EEEEE4typeESA_, symObjAddr: 0x6EFA8, symBinAddr: 0x100076D5C, symSize: 0x24 }
  - { offsetInCU: 0x7FFC5, offset: 0x958D3, size: 0x8, addend: 0x0, symName: __ZNSt3__110destroy_atB7v160006INS_6futureIvEELi0EEEvPT_, symObjAddr: 0x6F020, symBinAddr: 0x100076DD4, symSize: 0x24 }
  - { offsetInCU: 0x80000, offset: 0x9590E, size: 0x8, addend: 0x0, symName: __ZNSt3__112__destroy_atB7v160006INS_6futureIvEELi0EEEvPT_, symObjAddr: 0x6F044, symBinAddr: 0x100076DF8, symSize: 0x24 }
  - { offsetInCU: 0x80063, offset: 0x95971, size: 0x8, addend: 0x0, symName: __ZNSt3__14prevB7v160006INS_16reverse_iteratorIPNS_6futureIvEEEEEENS_9enable_ifIXsr25__is_cpp17_input_iteratorIT_EE5valueES7_E4typeES7_NS_15iterator_traitsIS7_E15difference_typeE, symObjAddr: 0x6F0EC, symBinAddr: 0x100076EA0, symSize: 0x60 }
  - { offsetInCU: 0x800AC, offset: 0x959BA, size: 0x8, addend: 0x0, symName: __ZNSt3__19__advanceB7v160006INS_16reverse_iteratorIPNS_6futureIvEEEEEEvRT_NS_15iterator_traitsIS6_E15difference_typeENS_26random_access_iterator_tagE, symObjAddr: 0x6F19C, symBinAddr: 0x100076F50, symSize: 0x2C }
  - { offsetInCU: 0x800F5, offset: 0x95A03, size: 0x8, addend: 0x0, symName: __ZNSt3__121__does_policy_containB7v160006ENS_6launchES0_, symObjAddr: 0x6F4CC, symBinAddr: 0x100077280, symSize: 0x28 }
  - { offsetInCU: 0x80132, offset: 0x95A40, size: 0x8, addend: 0x0, symName: __ZNSt3__124__make_async_assoc_stateB7v160006IvNS_12__async_funcIZN4crow6ServerINS2_4CrowIJEEENS2_13SocketAdaptorEJEE3runEvEUlvE_JEEEEENS_6futureIT_EEOT0_, symObjAddr: 0x6F4F4, symBinAddr: 0x1000772A8, symSize: 0x110 }
  - { offsetInCU: 0x8017E, offset: 0x95A8C, size: 0x8, addend: 0x0, symName: __ZNSt3__127__make_deferred_assoc_stateB7v160006IvNS_12__async_funcIZN4crow6ServerINS2_4CrowIJEEENS2_13SocketAdaptorEJEE3runEvEUlvE_JEEEEENS_6futureIT_EEOT0_, symObjAddr: 0x6F638, symBinAddr: 0x1000773EC, symSize: 0xA8 }
  - { offsetInCU: 0x804F3, offset: 0x95E01, size: 0x8, addend: 0x0, symName: __ZNSt3__18__invokeB7v160006IZN4crow6ServerINS1_4CrowIJEEENS1_13SocketAdaptorEJEE3runEvEUlvE_JEEEDTclclsr3stdE7declvalIT_EEspclsr3stdE7declvalIT0_EEEEOS8_DpOS9_, symObjAddr: 0x6FBA0, symBinAddr: 0x100077954, symSize: 0x24 }
  - { offsetInCU: 0x8052E, offset: 0x95E3C, size: 0x8, addend: 0x0, symName: __ZNSt3__13getB7v160006ILm0EJZN4crow6ServerINS1_4CrowIJEEENS1_13SocketAdaptorEJEE3runEvEUlvE_EEERNS_13tuple_elementIXT_ENS_5tupleIJDpT0_EEEE4typeERSC_, symObjAddr: 0x6FBC4, symBinAddr: 0x100077978, symSize: 0x24 }
  - { offsetInCU: 0x80B10, offset: 0x9641E, size: 0x8, addend: 0x0, symName: __ZNSt3__116forward_as_tupleB7v160006IJZZN4crow6ServerINS1_4CrowIJEEENS1_13SocketAdaptorEJEE3runEvENKUlvE_clEvEUlvE0_EEENS_5tupleIJDpOT_EEESC_, symObjAddr: 0x70D24, symBinAddr: 0x100078AD8, symSize: 0x2C }
  - { offsetInCU: 0x80B49, offset: 0x96457, size: 0x8, addend: 0x0, symName: __ZNSt3__116forward_as_tupleB7v160006IJNS_9allocatorIZZN4crow6ServerINS2_4CrowIJEEENS2_13SocketAdaptorEJEE3runEvENKUlvE_clEvEUlvE0_EEEEENS_5tupleIJDpOT_EEESE_, symObjAddr: 0x70D50, symBinAddr: 0x100078B04, symSize: 0x2C }
  - { offsetInCU: 0x80BB0, offset: 0x964BE, size: 0x8, addend: 0x0, symName: __ZNSt3__13getB7v160006ILm0EJOZZN4crow6ServerINS1_4CrowIJEEENS1_13SocketAdaptorEJEE3runEvENKUlvE_clEvEUlvE0_EEERNS_13tuple_elementIXT_ENS_5tupleIJDpT0_EEEE4typeERSE_, symObjAddr: 0x71070, symBinAddr: 0x100078E24, symSize: 0x24 }
  - { offsetInCU: 0x80BF4, offset: 0x96502, size: 0x8, addend: 0x0, symName: __ZNSt3__13getB7v160006ILm0EJONS_9allocatorIZZN4crow6ServerINS2_4CrowIJEEENS2_13SocketAdaptorEJEE3runEvENKUlvE_clEvEUlvE0_EEEEERNS_13tuple_elementIXT_ENS_5tupleIJDpT0_EEEE4typeERSG_, symObjAddr: 0x710AC, symBinAddr: 0x100078E60, symSize: 0x24 }
  - { offsetInCU: 0x80DC4, offset: 0x966D2, size: 0x8, addend: 0x0, symName: __ZNSt3__116forward_as_tupleB7v160006IJRKZZN4crow6ServerINS1_4CrowIJEEENS1_13SocketAdaptorEJEE3runEvENKUlvE_clEvEUlvE0_EEENS_5tupleIJDpOT_EEESE_, symObjAddr: 0x714A8, symBinAddr: 0x10007925C, symSize: 0x2C }
  - { offsetInCU: 0x80E14, offset: 0x96722, size: 0x8, addend: 0x0, symName: __ZNSt3__13getB7v160006ILm0EJRKZZN4crow6ServerINS1_4CrowIJEEENS1_13SocketAdaptorEJEE3runEvENKUlvE_clEvEUlvE0_EEERNS_13tuple_elementIXT_ENS_5tupleIJDpT0_EEEE4typeERSF_, symObjAddr: 0x716A0, symBinAddr: 0x100079454, symSize: 0x24 }
  - { offsetInCU: 0x80E58, offset: 0x96766, size: 0x8, addend: 0x0, symName: __ZNSt3__116forward_as_tupleB7v160006IJRKNS_9allocatorIZZN4crow6ServerINS2_4CrowIJEEENS2_13SocketAdaptorEJEE3runEvENKUlvE_clEvEUlvE0_EEEEENS_5tupleIJDpOT_EEESG_, symObjAddr: 0x719FC, symBinAddr: 0x1000797B0, symSize: 0x2C }
  - { offsetInCU: 0x80EA8, offset: 0x967B6, size: 0x8, addend: 0x0, symName: __ZNSt3__13getB7v160006ILm0EJRKNS_9allocatorIZZN4crow6ServerINS2_4CrowIJEEENS2_13SocketAdaptorEJEE3runEvENKUlvE_clEvEUlvE0_EEEEERNS_13tuple_elementIXT_ENS_5tupleIJDpT0_EEEE4typeERSH_, symObjAddr: 0x71BE0, symBinAddr: 0x100079994, symSize: 0x24 }
  - { offsetInCU: 0x80EED, offset: 0x967FB, size: 0x8, addend: 0x0, symName: __ZNSt3__18__invokeB7v160006IRZZN4crow6ServerINS1_4CrowIJEEENS1_13SocketAdaptorEJEE3runEvENKUlvE_clEvEUlvE0_JEEEDTclclsr3stdE7declvalIT_EEspclsr3stdE7declvalIT0_EEEEOSA_DpOSB_, symObjAddr: 0x71CB0, symBinAddr: 0x100079A64, symSize: 0x2C }
  - { offsetInCU: 0x80F2C, offset: 0x9683A, size: 0x8, addend: 0x0, symName: __ZNSt3__14swapB7v160006IPNS_10__function6__baseIFNS_12basic_stringIcNS_11char_traitsIcEENS_9allocatorIcEEEEvEEEEENS_9enable_ifIXaasr21is_move_constructibleIT_EE5valuesr18is_move_assignableISD_EE5valueEvE4typeERSD_SG_, symObjAddr: 0x721CC, symBinAddr: 0x100079F80, symSize: 0x3C }
  - { offsetInCU: 0x80F85, offset: 0x96893, size: 0x8, addend: 0x0, symName: __ZNSt3__14bindB7v160006IMN4crow6detail10task_timerEFvRKNS_10error_codeEEJPS3_RKNS_12placeholders4__phILi1EEEEEENS_6__bindIT_JDpT0_EEEOSG_DpOSH_, symObjAddr: 0x723D4, symBinAddr: 0x10007A188, symSize: 0x40 }
  - { offsetInCU: 0x81053, offset: 0x96961, size: 0x8, addend: 0x0, symName: __ZNSt3__115__apply_functorB7v160006IMN4crow6detail10task_timerEFvRKNS_10error_codeEENS_5tupleIJPS3_NS_12placeholders4__phILi1EEEEEEJLm0ELm1EENS9_IJS6_EEEEENS_13__bind_returnIT_T0_T2_Xsr22__is_valid_bind_returnISH_SI_SJ_EE5valueEE4typeERSH_RSI_NS_15__tuple_indicesIJXspT1_EEEEOSJ_, symObjAddr: 0x73944, symBinAddr: 0x10007B6F8, symSize: 0x60 }
  - { offsetInCU: 0x810D9, offset: 0x969E7, size: 0x8, addend: 0x0, symName: __ZNSt3__18__invokeB7v160006IRMN4crow6detail10task_timerEFvRKNS_10error_codeEERPS3_JS6_EvEEDTcldsdeclsr3stdE7declvalIT0_EEclsr3stdE7declvalIT_EEspclsr3stdE7declvalIT1_EEEEOSD_OSC_DpOSE_, symObjAddr: 0x739D8, symBinAddr: 0x10007B78C, symSize: 0x88 }
  - { offsetInCU: 0x81146, offset: 0x96A54, size: 0x8, addend: 0x0, symName: __ZNSt3__14__muB7v160006IPN4crow6detail10task_timerENS_5tupleIJRKNS_10error_codeEEEEEENS_9enable_ifIXaaaantsr18is_bind_expressionIT_EE5valueeqsr14is_placeholderISB_EE5valueLi0Entsr22__is_reference_wrapperISB_EE5valueERSB_E4typeESC_RT0_, symObjAddr: 0x73A60, symBinAddr: 0x10007B814, symSize: 0x18 }
  - { offsetInCU: 0x8118E, offset: 0x96A9C, size: 0x8, addend: 0x0, symName: __ZNSt3__13getB7v160006ILm0EJPN4crow6detail10task_timerENS_12placeholders4__phILi1EEEEEERNS_13tuple_elementIXT_ENS_5tupleIJDpT0_EEEE4typeERSC_, symObjAddr: 0x73A78, symBinAddr: 0x10007B82C, symSize: 0x24 }
  - { offsetInCU: 0x811D6, offset: 0x96AE4, size: 0x8, addend: 0x0, symName: __ZNSt3__14__muB7v160006INS_12placeholders4__phILi1EEENS_5tupleIJRKNS_10error_codeEEEEEENS_9enable_ifIXltLi0Esr14is_placeholderIT_EE5valueENS_12__mu_return2IXltLi0Esr14is_placeholderISA_EE5valueESA_T0_E4typeEE4typeERSA_RSC_, symObjAddr: 0x73A9C, symBinAddr: 0x10007B850, symSize: 0x2C }
  - { offsetInCU: 0x8122C, offset: 0x96B3A, size: 0x8, addend: 0x0, symName: __ZNSt3__13getB7v160006ILm1EJPN4crow6detail10task_timerENS_12placeholders4__phILi1EEEEEERNS_13tuple_elementIXT_ENS_5tupleIJDpT0_EEEE4typeERSC_, symObjAddr: 0x73AC8, symBinAddr: 0x10007B87C, symSize: 0x24 }
  - { offsetInCU: 0x81274, offset: 0x96B82, size: 0x8, addend: 0x0, symName: __ZNSt3__13getB7v160006ILm0EJRKNS_10error_codeEEEERNS_13tuple_elementIXT_ENS_5tupleIJDpT0_EEEE4typeERS8_, symObjAddr: 0x73B00, symBinAddr: 0x10007B8B4, symSize: 0x24 }
  - { offsetInCU: 0x8131B, offset: 0x96C29, size: 0x8, addend: 0x0, symName: __ZNSt3__112construct_atB7v160006IN4asio6detail11timer_queueINS2_18chrono_time_traitsINS_6chrono12steady_clockENS1_11wait_traitsIS6_EEEEE10heap_entryEJRKSB_EPSB_EEPT_SG_DpOT0_, symObjAddr: 0x75C74, symBinAddr: 0x10007DA28, symSize: 0x2C }
  - { offsetInCU: 0x81393, offset: 0x96CA1, size: 0x8, addend: 0x0, symName: __ZNSt3__119__allocate_at_leastB7v160006INS_9allocatorIN4asio6detail11timer_queueINS3_18chrono_time_traitsINS_6chrono12steady_clockENS2_11wait_traitsIS7_EEEEE10heap_entryEEEEENS_19__allocation_resultINS_16allocator_traitsIT_E7pointerEEERSG_m, symObjAddr: 0x76110, symBinAddr: 0x10007DEC4, symSize: 0x40 }
  - { offsetInCU: 0x813DC, offset: 0x96CEA, size: 0x8, addend: 0x0, symName: __ZNSt3__142__uninitialized_allocator_move_if_noexceptB7v160006INS_9allocatorIN4asio6detail11timer_queueINS3_18chrono_time_traitsINS_6chrono12steady_clockENS2_11wait_traitsIS7_EEEEE10heap_entryEEENS_16reverse_iteratorIPSC_EESG_SC_vEET1_RT_T0_SK_SH_, symObjAddr: 0x762C4, symBinAddr: 0x10007E078, symSize: 0x78 }
  - { offsetInCU: 0x8145A, offset: 0x96D68, size: 0x8, addend: 0x0, symName: __ZNSt3__14swapB7v160006IPN4asio6detail11timer_queueINS2_18chrono_time_traitsINS_6chrono12steady_clockENS1_11wait_traitsIS6_EEEEE10heap_entryEEENS_9enable_ifIXaasr21is_move_constructibleIT_EE5valuesr18is_move_assignableISE_EE5valueEvE4typeERSE_SH_, symObjAddr: 0x76388, symBinAddr: 0x10007E13C, symSize: 0x3C }
  - { offsetInCU: 0x814B3, offset: 0x96DC1, size: 0x8, addend: 0x0, symName: __ZNSt3__14moveB7v160006INS_16reverse_iteratorIPN4asio6detail11timer_queueINS3_18chrono_time_traitsINS_6chrono12steady_clockENS2_11wait_traitsIS7_EEEEE10heap_entryEEESE_EET0_T_SG_SF_, symObjAddr: 0x76470, symBinAddr: 0x10007E224, symSize: 0x78 }
  - { offsetInCU: 0x81515, offset: 0x96E23, size: 0x8, addend: 0x0, symName: __ZNSt3__16__moveB7v160006INS_17_ClassicAlgPolicyENS_16reverse_iteratorIPN4asio6detail11timer_queueINS4_18chrono_time_traitsINS_6chrono12steady_clockENS3_11wait_traitsIS8_EEEEE10heap_entryEEESF_SF_EENS_4pairIT0_T2_EESH_T1_SI_, symObjAddr: 0x764E8, symBinAddr: 0x10007E29C, symSize: 0x64 }
  - { offsetInCU: 0x81589, offset: 0x96E97, size: 0x8, addend: 0x0, symName: __ZNSt3__123__dispatch_copy_or_moveB7v160006INS_17_ClassicAlgPolicyENS_11__move_loopIS1_EENS_14__move_trivialENS_16reverse_iteratorIPN4asio6detail11timer_queueINS7_18chrono_time_traitsINS_6chrono12steady_clockENS6_11wait_traitsISB_EEEEE10heap_entryEEESI_SI_EENS_4pairIT2_T4_EESK_T3_SL_, symObjAddr: 0x7654C, symBinAddr: 0x10007E300, symSize: 0x64 }
  - { offsetInCU: 0x8160F, offset: 0x96F1D, size: 0x8, addend: 0x0, symName: __ZNSt3__121__unwrap_and_dispatchB7v160006INS_10__overloadINS_11__move_loopINS_17_ClassicAlgPolicyEEENS_14__move_trivialEEENS_16reverse_iteratorIPN4asio6detail11timer_queueINS9_18chrono_time_traitsINS_6chrono12steady_clockENS8_11wait_traitsISD_EEEEE10heap_entryEEESK_SK_Li0EEENS_4pairIT0_T2_EESM_T1_SN_, symObjAddr: 0x765B0, symBinAddr: 0x10007E364, symSize: 0x12C }
  - { offsetInCU: 0x816AB, offset: 0x96FB9, size: 0x8, addend: 0x0, symName: __ZNSt3__114__unwrap_rangeB7v160006INS_16reverse_iteratorIPN4asio6detail11timer_queueINS3_18chrono_time_traitsINS_6chrono12steady_clockENS2_11wait_traitsIS7_EEEEE10heap_entryEEESE_EEDaT_T0_, symObjAddr: 0x766DC, symBinAddr: 0x10007E490, symSize: 0x4C }
  - { offsetInCU: 0x817D1, offset: 0x970DF, size: 0x8, addend: 0x0, symName: __ZNSt3__113__unwrap_iterB7v160006INS_16reverse_iteratorIPN4asio6detail11timer_queueINS3_18chrono_time_traitsINS_6chrono12steady_clockENS2_11wait_traitsIS7_EEEEE10heap_entryEEENS_18__unwrap_iter_implISE_Lb0EEELi0EEEDTclsrT0_8__unwrapclsr3stdE7declvalIT_EEEESI_, symObjAddr: 0x767C8, symBinAddr: 0x10007E57C, symSize: 0x44 }
  - { offsetInCU: 0x81819, offset: 0x97127, size: 0x8, addend: 0x0, symName: __ZNSt3__19make_pairB7v160006INS_16reverse_iteratorIPN4asio6detail11timer_queueINS3_18chrono_time_traitsINS_6chrono12steady_clockENS2_11wait_traitsIS7_EEEEE10heap_entryEEESE_EENS_4pairINS_18__unwrap_ref_decayIT_E4typeENSG_IT0_E4typeEEEOSH_OSK_, symObjAddr: 0x7680C, symBinAddr: 0x10007E5C0, symSize: 0x38 }
  - { offsetInCU: 0x81868, offset: 0x97176, size: 0x8, addend: 0x0, symName: __ZNSt3__114__rewrap_rangeB7v160006INS_16reverse_iteratorIPN4asio6detail11timer_queueINS3_18chrono_time_traitsINS_6chrono12steady_clockENS2_11wait_traitsIS7_EEEEE10heap_entryEEESE_SE_EET0_SF_T1_, symObjAddr: 0x76844, symBinAddr: 0x10007E5F8, symSize: 0x5C }
  - { offsetInCU: 0x818C3, offset: 0x971D1, size: 0x8, addend: 0x0, symName: __ZNSt3__113__rewrap_iterB7v160006INS_16reverse_iteratorIPN4asio6detail11timer_queueINS3_18chrono_time_traitsINS_6chrono12steady_clockENS2_11wait_traitsIS7_EEEEE10heap_entryEEESE_NS_18__unwrap_iter_implISE_Lb0EEEEET_SH_T0_, symObjAddr: 0x768A0, symBinAddr: 0x10007E654, symSize: 0x74 }
  - { offsetInCU: 0x81974, offset: 0x97282, size: 0x8, addend: 0x0, symName: __ZNSt3__1neB7v160006IPN4asio6detail11timer_queueINS2_18chrono_time_traitsINS_6chrono12steady_clockENS1_11wait_traitsIS6_EEEEE10heap_entryESC_EEbRKNS_16reverse_iteratorIT_EERKNSD_IT0_EE, symObjAddr: 0x76A08, symBinAddr: 0x10007E7BC, symSize: 0x48 }
  - { offsetInCU: 0x81A4E, offset: 0x9735C, size: 0x8, addend: 0x0, symName: __ZNSt3__1neB7v160006ERKNS_14__map_iteratorINS_15__tree_iteratorINS_12__value_typeImNS_4pairINS_6chrono10time_pointINS4_12steady_clockENS4_8durationIxNS_5ratioILl1ELl1000000000EEEEEEENS_8functionIFvvEEEEEEEPNS_11__tree_nodeISG_PvEElEEEESO_, symObjAddr: 0x772A4, symBinAddr: 0x10007F058, symSize: 0x30 }
  - { offsetInCU: 0x81A8B, offset: 0x97399, size: 0x8, addend: 0x0, symName: __ZNSt3__1neB7v160006IPmEEbRKNS_11__wrap_iterIT_EES6_, symObjAddr: 0x77570, symBinAddr: 0x10007F324, symSize: 0x34 }
  - { offsetInCU: 0x81ACF, offset: 0x973DD, size: 0x8, addend: 0x0, symName: __ZNSt3__119__debug_db_insert_cB7v160006INS_6vectorImNS_9allocatorImEEEEEEvPT_, symObjAddr: 0x776FC, symBinAddr: 0x10007F4B0, symSize: 0x10 }
  - { offsetInCU: 0x81B03, offset: 0x97411, size: 0x8, addend: 0x0, symName: __ZNSt3__1neB7v160006ERKNS_15__tree_iteratorINS_12__value_typeImNS_4pairINS_6chrono10time_pointINS3_12steady_clockENS3_8durationIxNS_5ratioILl1ELl1000000000EEEEEEENS_8functionIFvvEEEEEEEPNS_11__tree_nodeISF_PvEElEESM_, symObjAddr: 0x778E4, symBinAddr: 0x10007F698, symSize: 0x34 }
  - { offsetInCU: 0x81B40, offset: 0x9744E, size: 0x8, addend: 0x0, symName: __ZNSt3__1eqB7v160006ERKNS_15__tree_iteratorINS_12__value_typeImNS_4pairINS_6chrono10time_pointINS3_12steady_clockENS3_8durationIxNS_5ratioILl1ELl1000000000EEEEEEENS_8functionIFvvEEEEEEEPNS_11__tree_nodeISF_PvEElEESM_, symObjAddr: 0x77918, symBinAddr: 0x10007F6CC, symSize: 0x30 }
  - { offsetInCU: 0x81BB0, offset: 0x974BE, size: 0x8, addend: 0x0, symName: __ZNSt3__17launderB7v160006INS_4pairIKmNS1_INS_6chrono10time_pointINS3_12steady_clockENS3_8durationIxNS_5ratioILl1ELl1000000000EEEEEEENS_8functionIFvvEEEEEEEEEPT_SH_, symObjAddr: 0x779C4, symBinAddr: 0x10007F778, symSize: 0x24 }
  - { offsetInCU: 0x81BE7, offset: 0x974F5, size: 0x8, addend: 0x0, symName: __ZNSt3__19__launderB7v160006INS_4pairIKmNS1_INS_6chrono10time_pointINS3_12steady_clockENS3_8durationIxNS_5ratioILl1ELl1000000000EEEEEEENS_8functionIFvvEEEEEEEEEPT_SH_, symObjAddr: 0x779E8, symBinAddr: 0x10007F79C, symSize: 0x14 }
  - { offsetInCU: 0x81C1E, offset: 0x9752C, size: 0x8, addend: 0x0, symName: __ZNSt3__112__to_addressB7v160006ImEEPT_S2_, symObjAddr: 0x77C58, symBinAddr: 0x10007FA0C, symSize: 0x14 }
  - { offsetInCU: 0x81C7C, offset: 0x9758A, size: 0x8, addend: 0x0, symName: __ZNSt3__112construct_atB7v160006ImJRKmEPmEEPT_S5_DpOT0_, symObjAddr: 0x77CDC, symBinAddr: 0x10007FA90, symSize: 0x2C }
  - { offsetInCU: 0x81CF4, offset: 0x97602, size: 0x8, addend: 0x0, symName: __ZNSt3__119__allocate_at_leastB7v160006INS_9allocatorImEEEENS_19__allocation_resultINS_16allocator_traitsIT_E7pointerEEERS5_m, symObjAddr: 0x78278, symBinAddr: 0x10008002C, symSize: 0x40 }
  - { offsetInCU: 0x81D3D, offset: 0x9764B, size: 0x8, addend: 0x0, symName: __ZNSt3__142__uninitialized_allocator_move_if_noexceptB7v160006INS_9allocatorImEENS_16reverse_iteratorIPmEES5_mvEET1_RT_T0_S9_S6_, symObjAddr: 0x784E4, symBinAddr: 0x100080298, symSize: 0x78 }
  - { offsetInCU: 0x81DBB, offset: 0x976C9, size: 0x8, addend: 0x0, symName: __ZNSt3__14swapB7v160006IPmEENS_9enable_ifIXaasr21is_move_constructibleIT_EE5valuesr18is_move_assignableIS3_EE5valueEvE4typeERS3_S6_, symObjAddr: 0x785A8, symBinAddr: 0x10008035C, symSize: 0x3C }
  - { offsetInCU: 0x81E15, offset: 0x97723, size: 0x8, addend: 0x0, symName: __ZNSt3__125__debug_db_invalidate_allB7v160006INS_6vectorImNS_9allocatorImEEEEEEvPT_, symObjAddr: 0x78690, symBinAddr: 0x100080444, symSize: 0x10 }
  - { offsetInCU: 0x81E49, offset: 0x97757, size: 0x8, addend: 0x0, symName: __ZNSt3__14moveB7v160006INS_16reverse_iteratorIPmEES3_EET0_T_S5_S4_, symObjAddr: 0x786E8, symBinAddr: 0x10008049C, symSize: 0x78 }
  - { offsetInCU: 0x81EAB, offset: 0x977B9, size: 0x8, addend: 0x0, symName: __ZNSt3__16__moveB7v160006INS_17_ClassicAlgPolicyENS_16reverse_iteratorIPmEES4_S4_EENS_4pairIT0_T2_EES6_T1_S7_, symObjAddr: 0x78760, symBinAddr: 0x100080514, symSize: 0x64 }
  - { offsetInCU: 0x81F1F, offset: 0x9782D, size: 0x8, addend: 0x0, symName: __ZNSt3__123__dispatch_copy_or_moveB7v160006INS_17_ClassicAlgPolicyENS_11__move_loopIS1_EENS_14__move_trivialENS_16reverse_iteratorIPmEES7_S7_EENS_4pairIT2_T4_EES9_T3_SA_, symObjAddr: 0x787C4, symBinAddr: 0x100080578, symSize: 0x64 }
  - { offsetInCU: 0x81FA5, offset: 0x978B3, size: 0x8, addend: 0x0, symName: __ZNSt3__121__unwrap_and_dispatchB7v160006INS_10__overloadINS_11__move_loopINS_17_ClassicAlgPolicyEEENS_14__move_trivialEEENS_16reverse_iteratorIPmEES9_S9_Li0EEENS_4pairIT0_T2_EESB_T1_SC_, symObjAddr: 0x78828, symBinAddr: 0x1000805DC, symSize: 0x12C }
  - { offsetInCU: 0x82041, offset: 0x9794F, size: 0x8, addend: 0x0, symName: __ZNSt3__114__unwrap_rangeB7v160006INS_16reverse_iteratorIPmEES3_EEDaT_T0_, symObjAddr: 0x78954, symBinAddr: 0x100080708, symSize: 0x4C }
  - { offsetInCU: 0x82167, offset: 0x97A75, size: 0x8, addend: 0x0, symName: __ZNSt3__113__unwrap_iterB7v160006INS_16reverse_iteratorIPmEENS_18__unwrap_iter_implIS3_Lb0EEELi0EEEDTclsrT0_8__unwrapclsr3stdE7declvalIT_EEEES7_, symObjAddr: 0x78A40, symBinAddr: 0x1000807F4, symSize: 0x44 }
  - { offsetInCU: 0x821AF, offset: 0x97ABD, size: 0x8, addend: 0x0, symName: __ZNSt3__19make_pairB7v160006INS_16reverse_iteratorIPmEES3_EENS_4pairINS_18__unwrap_ref_decayIT_E4typeENS5_IT0_E4typeEEEOS6_OS9_, symObjAddr: 0x78A84, symBinAddr: 0x100080838, symSize: 0x38 }
  - { offsetInCU: 0x821FE, offset: 0x97B0C, size: 0x8, addend: 0x0, symName: __ZNSt3__114__rewrap_rangeB7v160006INS_16reverse_iteratorIPmEES3_S3_EET0_S4_T1_, symObjAddr: 0x78ABC, symBinAddr: 0x100080870, symSize: 0x5C }
  - { offsetInCU: 0x82259, offset: 0x97B67, size: 0x8, addend: 0x0, symName: __ZNSt3__113__rewrap_iterB7v160006INS_16reverse_iteratorIPmEES3_NS_18__unwrap_iter_implIS3_Lb0EEEEET_S6_T0_, symObjAddr: 0x78B18, symBinAddr: 0x1000808CC, symSize: 0x74 }
  - { offsetInCU: 0x8230A, offset: 0x97C18, size: 0x8, addend: 0x0, symName: __ZNSt3__1neB7v160006IPmS1_EEbRKNS_16reverse_iteratorIT_EERKNS2_IT0_EE, symObjAddr: 0x78C80, symBinAddr: 0x100080A34, symSize: 0x48 }
  - { offsetInCU: 0x823C9, offset: 0x97CD7, size: 0x8, addend: 0x0, symName: __ZNSt3__110destroy_atB7v160006ImLi0EEEvPT_, symObjAddr: 0x7900C, symBinAddr: 0x100080DC0, symSize: 0x24 }
  - { offsetInCU: 0x82404, offset: 0x97D12, size: 0x8, addend: 0x0, symName: __ZNSt3__112__destroy_atB7v160006ImLi0EEEvPT_, symObjAddr: 0x79030, symBinAddr: 0x100080DE4, symSize: 0x10 }
  - { offsetInCU: 0x8243E, offset: 0x97D4C, size: 0x8, addend: 0x0, symName: __ZNSt3__1lsB7v160006INS_11char_traitsIcEEEERNS_13basic_ostreamIcT_EES6_c, symObjAddr: 0x790CC, symBinAddr: 0x100080E80, symSize: 0x34 }
  - { offsetInCU: 0x82484, offset: 0x97D92, size: 0x8, addend: 0x0, symName: __ZNSt3__116__tree_next_iterB7v160006IPNS_15__tree_end_nodeIPNS_16__tree_node_baseIPvEEEES5_EET_T0_, symObjAddr: 0x79138, symBinAddr: 0x100080EEC, symSize: 0x90 }
  - { offsetInCU: 0x824C2, offset: 0x97DD0, size: 0x8, addend: 0x0, symName: __ZNSt3__110__tree_minB7v160006IPNS_16__tree_node_baseIPvEEEET_S5_, symObjAddr: 0x791C8, symBinAddr: 0x100080F7C, symSize: 0x40 }
  - { offsetInCU: 0x824F7, offset: 0x97E05, size: 0x8, addend: 0x0, symName: __ZNSt3__120__tree_is_left_childB7v160006IPNS_16__tree_node_baseIPvEEEEbT_, symObjAddr: 0x79208, symBinAddr: 0x100080FBC, symSize: 0x2C }
  - { offsetInCU: 0x8252C, offset: 0x97E3A, size: 0x8, addend: 0x0, symName: __ZNSt3__1eqB7v160006IPmEEbRKNS_11__wrap_iterIT_EES6_, symObjAddr: 0x792E0, symBinAddr: 0x100081094, symSize: 0x48 }
  - { offsetInCU: 0x8256F, offset: 0x97E7D, size: 0x8, addend: 0x0, symName: __ZNSt3__17launderB7v160006IKNS_4pairIKmNS1_INS_6chrono10time_pointINS3_12steady_clockENS3_8durationIxNS_5ratioILl1ELl1000000000EEEEEEENS_8functionIFvvEEEEEEEEEPT_SI_, symObjAddr: 0x797B0, symBinAddr: 0x100081564, symSize: 0x24 }
  - { offsetInCU: 0x825A6, offset: 0x97EB4, size: 0x8, addend: 0x0, symName: __ZNSt3__19__launderB7v160006IKNS_4pairIKmNS1_INS_6chrono10time_pointINS3_12steady_clockENS3_8durationIxNS_5ratioILl1ELl1000000000EEEEEEENS_8functionIFvvEEEEEEEEEPT_SI_, symObjAddr: 0x797D4, symBinAddr: 0x100081588, symSize: 0x14 }
  - { offsetInCU: 0x825DD, offset: 0x97EEB, size: 0x8, addend: 0x0, symName: __ZNSt3__113__tree_removeB7v160006IPNS_16__tree_node_baseIPvEEEEvT_S5_, symObjAddr: 0x79A74, symBinAddr: 0x100081828, symSize: 0x6EC }
  - { offsetInCU: 0x8265B, offset: 0x97F69, size: 0x8, addend: 0x0, symName: __ZNSt3__111__tree_nextB7v160006IPNS_16__tree_node_baseIPvEEEET_S5_, symObjAddr: 0x7A1A4, symBinAddr: 0x100081F58, symSize: 0x80 }
  - { offsetInCU: 0x82690, offset: 0x97F9E, size: 0x8, addend: 0x0, symName: __ZNSt3__118__tree_left_rotateB7v160006IPNS_16__tree_node_baseIPvEEEEvT_, symObjAddr: 0x7A244, symBinAddr: 0x100081FF8, symSize: 0xCC }
  - { offsetInCU: 0x826D2, offset: 0x97FE0, size: 0x8, addend: 0x0, symName: __ZNSt3__119__tree_right_rotateB7v160006IPNS_16__tree_node_baseIPvEEEEvT_, symObjAddr: 0x7A310, symBinAddr: 0x1000820C4, symSize: 0xCC }
  - { offsetInCU: 0x82715, offset: 0x98023, size: 0x8, addend: 0x0, symName: __ZNSt3__110destroy_atB7v160006INS_4pairIKmNS1_INS_6chrono10time_pointINS3_12steady_clockENS3_8durationIxNS_5ratioILl1ELl1000000000EEEEEEENS_8functionIFvvEEEEEEELi0EEEvPT_, symObjAddr: 0x7A414, symBinAddr: 0x1000821C8, symSize: 0x24 }
  - { offsetInCU: 0x82750, offset: 0x9805E, size: 0x8, addend: 0x0, symName: __ZNSt3__112__destroy_atB7v160006INS_4pairIKmNS1_INS_6chrono10time_pointINS3_12steady_clockENS3_8durationIxNS_5ratioILl1ELl1000000000EEEEEEENS_8functionIFvvEEEEEEELi0EEEvPT_, symObjAddr: 0x7A438, symBinAddr: 0x1000821EC, symSize: 0x24 }
  - { offsetInCU: 0x8278B, offset: 0x98099, size: 0x8, addend: 0x0, symName: __ZNSt3__118__debug_db_erase_cB7v160006INS_6vectorImNS_9allocatorImEEEEEEvPT_, symObjAddr: 0x7A6F8, symBinAddr: 0x1000824AC, symSize: 0x10 }
  - { offsetInCU: 0x827C0, offset: 0x980CE, size: 0x8, addend: 0x0, symName: __ZNSt3__118__cxx_atomic_storeB7v160006IjEEvPNS_22__cxx_atomic_base_implIT_EES2_NS_12memory_orderE, symObjAddr: 0x7A924, symBinAddr: 0x1000826D8, symSize: 0x84 }
  - { offsetInCU: 0x82811, offset: 0x9811F, size: 0x8, addend: 0x0, symName: __ZNSt3__122__cxx_atomic_fetch_addB7v160006IiEET_PNS_22__cxx_atomic_base_implIS1_EES1_NS_12memory_orderE, symObjAddr: 0x7A9DC, symBinAddr: 0x100082790, symSize: 0xC4 }
  - { offsetInCU: 0x82C63, offset: 0x98571, size: 0x8, addend: 0x0, symName: __ZNSt3__122__libcpp_thread_createB7v160006EPP17_opaque_pthread_tPFPvS3_ES3_, symObjAddr: 0x7AEA4, symBinAddr: 0x100082C58, symSize: 0x38 }
  - { offsetInCU: 0x82CAF, offset: 0x985BD, size: 0x8, addend: 0x0, symName: __ZNSt3__114__thread_proxyB7v160006INS_5tupleIJNS_10unique_ptrINS_15__thread_structENS_14default_deleteIS3_EEEEMNS_19__async_assoc_stateIvNS_12__async_funcIZN4crow6ServerINS9_4CrowIJEEENS9_13SocketAdaptorEJEE3runEvEUlvE_JEEEEEFvvEPSH_EEEEEPvSM_, symObjAddr: 0x7AEDC, symBinAddr: 0x100082C90, symSize: 0x90 }
  - { offsetInCU: 0x82DFD, offset: 0x9870B, size: 0x8, addend: 0x0, symName: __ZNSt3__13getB7v160006ILm0EJNS_10unique_ptrINS_15__thread_structENS_14default_deleteIS2_EEEEMNS_19__async_assoc_stateIvNS_12__async_funcIZN4crow6ServerINS8_4CrowIJEEENS8_13SocketAdaptorEJEE3runEvEUlvE_JEEEEEFvvEPSG_EEERNS_13tuple_elementIXT_ENS_5tupleIJDpT0_EEEE4typeERSO_, symObjAddr: 0x7B5E0, symBinAddr: 0x100083394, symSize: 0x24 }
  - { offsetInCU: 0x82E4A, offset: 0x98758, size: 0x8, addend: 0x0, symName: __ZNSt3__116__thread_executeB7v160006INS_10unique_ptrINS_15__thread_structENS_14default_deleteIS2_EEEEMNS_19__async_assoc_stateIvNS_12__async_funcIZN4crow6ServerINS8_4CrowIJEEENS8_13SocketAdaptorEJEE3runEvEUlvE_JEEEEEFvvEJPSG_EJLm2EEEEvRNS_5tupleIJT_T0_DpT1_EEENS_15__tuple_indicesIJXspT2_EEEE, symObjAddr: 0x7B604, symBinAddr: 0x1000833B8, symSize: 0x3C }
  - { offsetInCU: 0x82EA9, offset: 0x987B7, size: 0x8, addend: 0x0, symName: __ZNSt3__116__libcpp_tls_setB7v160006EmPv, symObjAddr: 0x7B640, symBinAddr: 0x1000833F4, symSize: 0x2C }
  - { offsetInCU: 0x82EE7, offset: 0x987F5, size: 0x8, addend: 0x0, symName: __ZNSt3__18__invokeB7v160006IMNS_19__async_assoc_stateIvNS_12__async_funcIZN4crow6ServerINS3_4CrowIJEEENS3_13SocketAdaptorEJEE3runEvEUlvE_JEEEEEFvvEPSB_JEvEEDTcldsdeclsr3stdE7declvalIT0_EEclsr3stdE7declvalIT_EEspclsr3stdE7declvalIT1_EEEEOSG_OSF_DpOSH_, symObjAddr: 0x7B680, symBinAddr: 0x100083434, symSize: 0x80 }
  - { offsetInCU: 0x82F3D, offset: 0x9884B, size: 0x8, addend: 0x0, symName: __ZNSt3__13getB7v160006ILm1EJNS_10unique_ptrINS_15__thread_structENS_14default_deleteIS2_EEEEMNS_19__async_assoc_stateIvNS_12__async_funcIZN4crow6ServerINS8_4CrowIJEEENS8_13SocketAdaptorEJEE3runEvEUlvE_JEEEEEFvvEPSG_EEERNS_13tuple_elementIXT_ENS_5tupleIJDpT0_EEEE4typeERSO_, symObjAddr: 0x7B700, symBinAddr: 0x1000834B4, symSize: 0x28 }
  - { offsetInCU: 0x82F8A, offset: 0x98898, size: 0x8, addend: 0x0, symName: __ZNSt3__13getB7v160006ILm2EJNS_10unique_ptrINS_15__thread_structENS_14default_deleteIS2_EEEEMNS_19__async_assoc_stateIvNS_12__async_funcIZN4crow6ServerINS8_4CrowIJEEENS8_13SocketAdaptorEJEE3runEvEUlvE_JEEEEEFvvEPSG_EEERNS_13tuple_elementIXT_ENS_5tupleIJDpT0_EEEE4typeERSO_, symObjAddr: 0x7B728, symBinAddr: 0x1000834DC, symSize: 0x28 }
  - { offsetInCU: 0x8338B, offset: 0x98C99, size: 0x8, addend: 0x0, symName: __ZNSt3__1neB7v160006IPNS_10unique_ptrIN4asio10io_contextENS_14default_deleteIS3_EEEEEEbRKNS_11__wrap_iterIT_EESC_, symObjAddr: 0x7FF64, symBinAddr: 0x100087D18, symSize: 0x34 }
  - { offsetInCU: 0x833CE, offset: 0x98CDC, size: 0x8, addend: 0x0, symName: __ZNSt3__1eqB7v160006IN4asio10io_contextENS_14default_deleteIS2_EEEEbRKNS_10unique_ptrIT_T0_EEDn, symObjAddr: 0x7FFB0, symBinAddr: 0x100087D64, symSize: 0x30 }
  - { offsetInCU: 0x8341A, offset: 0x98D28, size: 0x8, addend: 0x0, symName: __ZNSt3__1eqB7v160006IPNS_10unique_ptrIN4asio10io_contextENS_14default_deleteIS3_EEEEEEbRKNS_11__wrap_iterIT_EESC_, symObjAddr: 0x801D8, symBinAddr: 0x100087F8C, symSize: 0x48 }
  - { offsetInCU: 0x8345E, offset: 0x98D6C, size: 0x8, addend: 0x0, symName: __ZNSt3__121__libcpp_thread_yieldB7v160006Ev, symObjAddr: 0x81184, symBinAddr: 0x100088F38, symSize: 0x14 }
  - { offsetInCU: 0x83478, offset: 0x98D86, size: 0x8, addend: 0x0, symName: __ZNSt3__111make_sharedB7v160006IN4crow10ConnectionINS1_13SocketAdaptorENS1_4CrowIJEEEJEEEJRN4asio10io_contextERPS5_RNS_12basic_stringIcNS_11char_traitsIcEENS_9allocatorIcEEEERPNS_5tupleIJEEERNS_8functionIFSH_vEEERNS1_6detail10task_timerERPvRNS_6atomicIjEEEvEENS_10shared_ptrIT_EEDpOT0_, symObjAddr: 0x813E8, symBinAddr: 0x10008919C, symSize: 0x80 }
  - { offsetInCU: 0x83547, offset: 0x98E55, size: 0x8, addend: 0x0, symName: __ZNSt3__122__cxx_atomic_fetch_addB7v160006IjEET_PNS_22__cxx_atomic_base_implIS1_EES1_NS_12memory_orderE, symObjAddr: 0x81694, symBinAddr: 0x100089448, symSize: 0xC4 }
  - { offsetInCU: 0x8359C, offset: 0x98EAA, size: 0x8, addend: 0x0, symName: __ZNSt3__115allocate_sharedB7v160006IN4crow10ConnectionINS1_13SocketAdaptorENS1_4CrowIJEEEJEEENS_9allocatorIS6_EEJRN4asio10io_contextERPS5_RNS_12basic_stringIcNS_11char_traitsIcEENS7_IcEEEERPNS_5tupleIJEEERNS_8functionIFSI_vEEERNS1_6detail10task_timerERPvRNS_6atomicIjEEEvEENS_10shared_ptrIT_EERKT0_DpOT1_, symObjAddr: 0x8176C, symBinAddr: 0x100089520, symSize: 0xE0 }
  - { offsetInCU: 0x839C9, offset: 0x992D7, size: 0x8, addend: 0x0, symName: __ZNSt3__112construct_atB7v160006IN4crow10ConnectionINS1_13SocketAdaptorENS1_4CrowIJEEEJEEEJRN4asio10io_contextERPS5_RNS_12basic_stringIcNS_11char_traitsIcEENS_9allocatorIcEEEERPNS_5tupleIJEEERNS_8functionIFSH_vEEERNS1_6detail10task_timerERPvRNS_6atomicIjEEEPS6_EEPT_S11_DpOT0_, symObjAddr: 0x81FA4, symBinAddr: 0x100089D58, symSize: 0x8C }
  - { offsetInCU: 0x83AD5, offset: 0x993E3, size: 0x8, addend: 0x0, symName: __ZNSt3__119__debug_db_insert_cB7v160006INS_6vectorIPcNS_9allocatorIS2_EEEEEEvPT_, symObjAddr: 0x829B8, symBinAddr: 0x10008A76C, symSize: 0x10 }
  - { offsetInCU: 0x83B0A, offset: 0x99418, size: 0x8, addend: 0x0, symName: __ZNSt3__118__debug_db_erase_cB7v160006INS_6vectorIPcNS_9allocatorIS2_EEEEEEvPT_, symObjAddr: 0x82D78, symBinAddr: 0x10008AB2C, symSize: 0x10 }
  - { offsetInCU: 0x83B3E, offset: 0x9944C, size: 0x8, addend: 0x0, symName: __ZNSt3__112__to_addressB7v160006IPcEEPT_S3_, symObjAddr: 0x82EBC, symBinAddr: 0x10008AC70, symSize: 0x14 }
  - { offsetInCU: 0x83B74, offset: 0x99482, size: 0x8, addend: 0x0, symName: __ZNSt3__110destroy_atB7v160006IPcLi0EEEvPT_, symObjAddr: 0x82F84, symBinAddr: 0x10008AD38, symSize: 0x24 }
  - { offsetInCU: 0x83BAF, offset: 0x994BD, size: 0x8, addend: 0x0, symName: __ZNSt3__112__destroy_atB7v160006IPcLi0EEEvPT_, symObjAddr: 0x82FA8, symBinAddr: 0x10008AD5C, symSize: 0x10 }
  - { offsetInCU: 0x83BEA, offset: 0x994F8, size: 0x8, addend: 0x0, symName: __ZNSt3__119__debug_db_insert_cB7v160006INS_6vectorIN4asio12const_bufferENS_9allocatorIS3_EEEEEEvPT_, symObjAddr: 0x832C8, symBinAddr: 0x10008B07C, symSize: 0x10 }
  - { offsetInCU: 0x83C1F, offset: 0x9952D, size: 0x8, addend: 0x0, symName: __ZNSt3__118__debug_db_erase_cB7v160006INS_6vectorIN4asio12const_bufferENS_9allocatorIS3_EEEEEEvPT_, symObjAddr: 0x8358C, symBinAddr: 0x10008B340, symSize: 0x10 }
  - { offsetInCU: 0x83C53, offset: 0x99561, size: 0x8, addend: 0x0, symName: __ZNSt3__112__to_addressB7v160006IN4asio12const_bufferEEEPT_S4_, symObjAddr: 0x836D0, symBinAddr: 0x10008B484, symSize: 0x14 }
  - { offsetInCU: 0x83C89, offset: 0x99597, size: 0x8, addend: 0x0, symName: __ZNSt3__110destroy_atB7v160006IN4asio12const_bufferELi0EEEvPT_, symObjAddr: 0x83798, symBinAddr: 0x10008B54C, symSize: 0x24 }
  - { offsetInCU: 0x83CC4, offset: 0x995D2, size: 0x8, addend: 0x0, symName: __ZNSt3__112__destroy_atB7v160006IN4asio12const_bufferELi0EEEvPT_, symObjAddr: 0x837BC, symBinAddr: 0x10008B570, symSize: 0x10 }
  - { offsetInCU: 0x83CFF, offset: 0x9960D, size: 0x8, addend: 0x0, symName: __ZNSt3__118__debug_db_erase_cB7v160006INS_6vectorIdNS_9allocatorIdEEEEEEvPT_, symObjAddr: 0x83D88, symBinAddr: 0x10008BB3C, symSize: 0x10 }
  - { offsetInCU: 0x83D33, offset: 0x99641, size: 0x8, addend: 0x0, symName: __ZNSt3__112__to_addressB7v160006IdEEPT_S2_, symObjAddr: 0x83ECC, symBinAddr: 0x10008BC80, symSize: 0x14 }
  - { offsetInCU: 0x83D69, offset: 0x99677, size: 0x8, addend: 0x0, symName: __ZNSt3__110destroy_atB7v160006IdLi0EEEvPT_, symObjAddr: 0x83F94, symBinAddr: 0x10008BD48, symSize: 0x24 }
  - { offsetInCU: 0x83DA4, offset: 0x996B2, size: 0x8, addend: 0x0, symName: __ZNSt3__112__destroy_atB7v160006IdLi0EEEvPT_, symObjAddr: 0x83FB8, symBinAddr: 0x10008BD6C, symSize: 0x10 }
  - { offsetInCU: 0x83DDF, offset: 0x996ED, size: 0x8, addend: 0x0, symName: __ZNSt3__118__debug_db_erase_cB7v160006INS_6vectorIyNS_9allocatorIyEEEEEEvPT_, symObjAddr: 0x8428C, symBinAddr: 0x10008C040, symSize: 0x10 }
  - { offsetInCU: 0x83E13, offset: 0x99721, size: 0x8, addend: 0x0, symName: __ZNSt3__112__to_addressB7v160006IyEEPT_S2_, symObjAddr: 0x843D0, symBinAddr: 0x10008C184, symSize: 0x14 }
  - { offsetInCU: 0x83E49, offset: 0x99757, size: 0x8, addend: 0x0, symName: __ZNSt3__110destroy_atB7v160006IyLi0EEEvPT_, symObjAddr: 0x84498, symBinAddr: 0x10008C24C, symSize: 0x24 }
  - { offsetInCU: 0x83E84, offset: 0x99792, size: 0x8, addend: 0x0, symName: __ZNSt3__112__destroy_atB7v160006IyLi0EEEvPT_, symObjAddr: 0x844BC, symBinAddr: 0x10008C270, symSize: 0x10 }
  - { offsetInCU: 0x83EBF, offset: 0x997CD, size: 0x8, addend: 0x0, symName: __ZNSt3__118__debug_db_erase_cB7v160006INS_6vectorIxNS_9allocatorIxEEEEEEvPT_, symObjAddr: 0x84790, symBinAddr: 0x10008C544, symSize: 0x10 }
  - { offsetInCU: 0x83EF3, offset: 0x99801, size: 0x8, addend: 0x0, symName: __ZNSt3__112__to_addressB7v160006IxEEPT_S2_, symObjAddr: 0x848D4, symBinAddr: 0x10008C688, symSize: 0x14 }
  - { offsetInCU: 0x83F29, offset: 0x99837, size: 0x8, addend: 0x0, symName: __ZNSt3__110destroy_atB7v160006IxLi0EEEvPT_, symObjAddr: 0x8499C, symBinAddr: 0x10008C750, symSize: 0x24 }
  - { offsetInCU: 0x83F64, offset: 0x99872, size: 0x8, addend: 0x0, symName: __ZNSt3__112__destroy_atB7v160006IxLi0EEEvPT_, symObjAddr: 0x849C0, symBinAddr: 0x10008C774, symSize: 0x10 }
  - { offsetInCU: 0x83F9F, offset: 0x998AD, size: 0x8, addend: 0x0, symName: __ZNSt3__118__debug_db_erase_cB7v160006INS_6vectorItNS_9allocatorItEEEEEEvPT_, symObjAddr: 0x84C94, symBinAddr: 0x10008CA48, symSize: 0x10 }
  - { offsetInCU: 0x83FD3, offset: 0x998E1, size: 0x8, addend: 0x0, symName: __ZNSt3__112__to_addressB7v160006ItEEPT_S2_, symObjAddr: 0x84DD8, symBinAddr: 0x10008CB8C, symSize: 0x14 }
  - { offsetInCU: 0x84009, offset: 0x99917, size: 0x8, addend: 0x0, symName: __ZNSt3__110destroy_atB7v160006ItLi0EEEvPT_, symObjAddr: 0x84EA0, symBinAddr: 0x10008CC54, symSize: 0x24 }
  - { offsetInCU: 0x84044, offset: 0x99952, size: 0x8, addend: 0x0, symName: __ZNSt3__112__destroy_atB7v160006ItLi0EEEvPT_, symObjAddr: 0x84EC4, symBinAddr: 0x10008CC78, symSize: 0x10 }
  - { offsetInCU: 0x8407F, offset: 0x9998D, size: 0x8, addend: 0x0, symName: __ZNSt3__110destroy_atB7v160006IN4crow10ConnectionINS1_13SocketAdaptorENS1_4CrowIJEEEJEEELi0EEEvPT_, symObjAddr: 0x851C8, symBinAddr: 0x10008CF7C, symSize: 0x24 }
  - { offsetInCU: 0x840BA, offset: 0x999C8, size: 0x8, addend: 0x0, symName: __ZNSt3__112__destroy_atB7v160006IN4crow10ConnectionINS1_13SocketAdaptorENS1_4CrowIJEEEJEEELi0EEEvPT_, symObjAddr: 0x851EC, symBinAddr: 0x10008CFA0, symSize: 0x24 }
  - { offsetInCU: 0x8414B, offset: 0x99A59, size: 0x8, addend: 0x0, symName: __ZNSt3__121__libcpp_relaxed_loadB7v160006IlEET_PKS1_, symObjAddr: 0x85588, symBinAddr: 0x10008D33C, symSize: 0x20 }
  - { offsetInCU: 0x84180, offset: 0x99A8E, size: 0x8, addend: 0x0, symName: __ZNSt3__134__libcpp_atomic_refcount_incrementB7v160006IlEET_RS1_, symObjAddr: 0x85664, symBinAddr: 0x10008D418, symSize: 0x30 }
  - { offsetInCU: 0x841D9, offset: 0x99AE7, size: 0x8, addend: 0x0, symName: __ZNSt3__14swapB7v160006IPN4crow10ConnectionINS1_13SocketAdaptorENS1_4CrowIJEEEJEEEEENS_9enable_ifIXaasr21is_move_constructibleIT_EE5valuesr18is_move_assignableIS9_EE5valueEvE4typeERS9_SC_, symObjAddr: 0x857B0, symBinAddr: 0x10008D564, symSize: 0x3C }
  - { offsetInCU: 0x84232, offset: 0x99B40, size: 0x8, addend: 0x0, symName: __ZNSt3__14swapB7v160006IPNS_19__shared_weak_countEEENS_9enable_ifIXaasr21is_move_constructibleIT_EE5valuesr18is_move_assignableIS4_EE5valueEvE4typeERS4_S7_, symObjAddr: 0x857EC, symBinAddr: 0x10008D5A0, symSize: 0x3C }
  - { offsetInCU: 0x8428C, offset: 0x99B9A, size: 0x8, addend: 0x0, symName: __ZNSt3__120__throw_bad_weak_ptrB7v160006Ev, symObjAddr: 0x879B4, symBinAddr: 0x10008F768, symSize: 0x38 }
  - { offsetInCU: 0x84379, offset: 0x99C87, size: 0x8, addend: 0x0, symName: __ZNSt3__112construct_atB7v160006INS_4pairIKmNS1_INS_6chrono10time_pointINS3_12steady_clockENS3_8durationIxNS_5ratioILl1ELl1000000000EEEEEEENS_8functionIFvvEEEEEEEJSF_EPSF_EEPT_SI_DpOT0_, symObjAddr: 0x88ECC, symBinAddr: 0x100090C80, symSize: 0x3C }
  - { offsetInCU: 0x843F1, offset: 0x99CFF, size: 0x8, addend: 0x0, symName: __ZNSt3__127__tree_balance_after_insertB7v160006IPNS_16__tree_node_baseIPvEEEEvT_S5_, symObjAddr: 0x891D4, symBinAddr: 0x100090F88, symSize: 0x27C }
  - { offsetInCU: 0x8451D, offset: 0x99E2B, size: 0x8, addend: 0x0, symName: __ZNSt3__116forward_as_tupleB7v160006IJZN4crow10ConnectionINS1_13SocketAdaptorENS1_4CrowIJEEEJEE14start_deadlineEvEUlvE_EEENS_5tupleIJDpOT_EEESB_, symObjAddr: 0x89EB4, symBinAddr: 0x100091C68, symSize: 0x2C }
  - { offsetInCU: 0x84556, offset: 0x99E64, size: 0x8, addend: 0x0, symName: __ZNSt3__116forward_as_tupleB7v160006IJNS_9allocatorIZN4crow10ConnectionINS2_13SocketAdaptorENS2_4CrowIJEEEJEE14start_deadlineEvEUlvE_EEEEENS_5tupleIJDpOT_EEESD_, symObjAddr: 0x89EE0, symBinAddr: 0x100091C94, symSize: 0x2C }
  - { offsetInCU: 0x845BD, offset: 0x99ECB, size: 0x8, addend: 0x0, symName: __ZNSt3__13getB7v160006ILm0EJOZN4crow10ConnectionINS1_13SocketAdaptorENS1_4CrowIJEEEJEE14start_deadlineEvEUlvE_EEERNS_13tuple_elementIXT_ENS_5tupleIJDpT0_EEEE4typeERSD_, symObjAddr: 0x8A24C, symBinAddr: 0x100092000, symSize: 0x24 }
  - { offsetInCU: 0x84601, offset: 0x99F0F, size: 0x8, addend: 0x0, symName: __ZNSt3__13getB7v160006ILm0EJONS_9allocatorIZN4crow10ConnectionINS2_13SocketAdaptorENS2_4CrowIJEEEJEE14start_deadlineEvEUlvE_EEEEERNS_13tuple_elementIXT_ENS_5tupleIJDpT0_EEEE4typeERSF_, symObjAddr: 0x8A364, symBinAddr: 0x100092118, symSize: 0x24 }
  - { offsetInCU: 0x84B34, offset: 0x9A442, size: 0x8, addend: 0x0, symName: __ZNSt3__116forward_as_tupleB7v160006IJRKZN4crow10ConnectionINS1_13SocketAdaptorENS1_4CrowIJEEEJEE14start_deadlineEvEUlvE_EEENS_5tupleIJDpOT_EEESD_, symObjAddr: 0x8A9B8, symBinAddr: 0x10009276C, symSize: 0x2C }
  - { offsetInCU: 0x84B84, offset: 0x9A492, size: 0x8, addend: 0x0, symName: __ZNSt3__13getB7v160006ILm0EJRKZN4crow10ConnectionINS1_13SocketAdaptorENS1_4CrowIJEEEJEE14start_deadlineEvEUlvE_EEERNS_13tuple_elementIXT_ENS_5tupleIJDpT0_EEEE4typeERSE_, symObjAddr: 0x8ABA8, symBinAddr: 0x10009295C, symSize: 0x24 }
  - { offsetInCU: 0x84BC8, offset: 0x9A4D6, size: 0x8, addend: 0x0, symName: __ZNSt3__116forward_as_tupleB7v160006IJRKNS_9allocatorIZN4crow10ConnectionINS2_13SocketAdaptorENS2_4CrowIJEEEJEE14start_deadlineEvEUlvE_EEEEENS_5tupleIJDpOT_EEESF_, symObjAddr: 0x8AF70, symBinAddr: 0x100092D24, symSize: 0x2C }
  - { offsetInCU: 0x84C18, offset: 0x9A526, size: 0x8, addend: 0x0, symName: __ZNSt3__13getB7v160006ILm0EJRKNS_9allocatorIZN4crow10ConnectionINS2_13SocketAdaptorENS2_4CrowIJEEEJEE14start_deadlineEvEUlvE_EEEEERNS_13tuple_elementIXT_ENS_5tupleIJDpT0_EEEE4typeERSG_, symObjAddr: 0x8B17C, symBinAddr: 0x100092F30, symSize: 0x24 }
  - { offsetInCU: 0x84C5D, offset: 0x9A56B, size: 0x8, addend: 0x0, symName: __ZNSt3__18__invokeB7v160006IRZN4crow10ConnectionINS1_13SocketAdaptorENS1_4CrowIJEEEJEE14start_deadlineEvEUlvE_JEEEDTclclsr3stdE7declvalIT_EEspclsr3stdE7declvalIT0_EEEEOS9_DpOSA_, symObjAddr: 0x8B24C, symBinAddr: 0x100093000, symSize: 0x24 }
  - { offsetInCU: 0x84C98, offset: 0x9A5A6, size: 0x8, addend: 0x0, symName: __ZNSt3__1neB7v160006IPPcEEbRKNS_11__wrap_iterIT_EES7_, symObjAddr: 0x8B87C, symBinAddr: 0x100093630, symSize: 0x34 }
  - { offsetInCU: 0x84CDC, offset: 0x9A5EA, size: 0x8, addend: 0x0, symName: __ZNSt3__115__debug_db_swapB7v160006INS_6vectorIPcNS_9allocatorIS2_EEEEEEvPT_S7_, symObjAddr: 0x8BA74, symBinAddr: 0x100093828, symSize: 0x14 }
  - { offsetInCU: 0x84D21, offset: 0x9A62F, size: 0x8, addend: 0x0, symName: __ZNSt3__125__debug_db_invalidate_allB7v160006INS_6vectorIPcNS_9allocatorIS2_EEEEEEvPT_, symObjAddr: 0x8BB90, symBinAddr: 0x100093944, symSize: 0x10 }
  - { offsetInCU: 0x84D55, offset: 0x9A663, size: 0x8, addend: 0x0, symName: __ZNSt3__1eqB7v160006IPPcEEbRKNS_11__wrap_iterIT_EES7_, symObjAddr: 0x8BCA4, symBinAddr: 0x100093A58, symSize: 0x48 }
  - { offsetInCU: 0x84DBC, offset: 0x9A6CA, size: 0x8, addend: 0x0, symName: __ZNSt3__1miB7v160006IPKcPcEEDTmicldtfp_4baseEcldtfp0_4baseEERKNS_11__wrap_iterIT_EERKNS5_IT0_EE, symObjAddr: 0x93008, symBinAddr: 0x10009ADBC, symSize: 0x40 }
  - { offsetInCU: 0x84E08, offset: 0x9A716, size: 0x8, addend: 0x0, symName: __ZNSt3__18distanceB7v160006IPKcEENS_15iterator_traitsIT_E15difference_typeES4_S4_, symObjAddr: 0x93048, symBinAddr: 0x10009ADFC, symSize: 0x2C }
  - { offsetInCU: 0x84E51, offset: 0x9A75F, size: 0x8, addend: 0x0, symName: __ZNSt3__110__distanceB7v160006IPKcEENS_15iterator_traitsIT_E15difference_typeES4_S4_NS_26random_access_iterator_tagE, symObjAddr: 0x9351C, symBinAddr: 0x10009B2D0, symSize: 0x20 }
  - { offsetInCU: 0x84EA7, offset: 0x9A7B5, size: 0x8, addend: 0x0, symName: __ZNSt3__1L18__char_traits_moveB7v160006IcEEPT_S2_PKS1_m, symObjAddr: 0x935EC, symBinAddr: 0x10009B3A0, symSize: 0x3C }
  - { offsetInCU: 0x84F21, offset: 0x9A82F, size: 0x8, addend: 0x0, symName: __ZNSt3__112construct_atB7v160006IPcJEPS1_EEPT_S4_DpOT0_, symObjAddr: 0x94224, symBinAddr: 0x10009BFD8, symSize: 0x20 }
  - { offsetInCU: 0x84F83, offset: 0x9A891, size: 0x8, addend: 0x0, symName: __ZNSt3__119__allocate_at_leastB7v160006INS_9allocatorIPcEEEENS_19__allocation_resultINS_16allocator_traitsIT_E7pointerEEERS6_m, symObjAddr: 0x94478, symBinAddr: 0x10009C22C, symSize: 0x40 }
  - { offsetInCU: 0x84FCC, offset: 0x9A8DA, size: 0x8, addend: 0x0, symName: __ZNSt3__142__uninitialized_allocator_move_if_noexceptB7v160006INS_9allocatorIPcEENS_16reverse_iteratorIPS2_EES6_S2_vEET1_RT_T0_SA_S7_, symObjAddr: 0x946F8, symBinAddr: 0x10009C4AC, symSize: 0x78 }
  - { offsetInCU: 0x8504A, offset: 0x9A958, size: 0x8, addend: 0x0, symName: __ZNSt3__14swapB7v160006IPPcEENS_9enable_ifIXaasr21is_move_constructibleIT_EE5valuesr18is_move_assignableIS4_EE5valueEvE4typeERS4_S7_, symObjAddr: 0x947BC, symBinAddr: 0x10009C570, symSize: 0x3C }
  - { offsetInCU: 0x850A3, offset: 0x9A9B1, size: 0x8, addend: 0x0, symName: __ZNSt3__14moveB7v160006INS_16reverse_iteratorIPPcEES4_EET0_T_S6_S5_, symObjAddr: 0x948A4, symBinAddr: 0x10009C658, symSize: 0x78 }
  - { offsetInCU: 0x85105, offset: 0x9AA13, size: 0x8, addend: 0x0, symName: __ZNSt3__16__moveB7v160006INS_17_ClassicAlgPolicyENS_16reverse_iteratorIPPcEES5_S5_EENS_4pairIT0_T2_EES7_T1_S8_, symObjAddr: 0x9491C, symBinAddr: 0x10009C6D0, symSize: 0x64 }
  - { offsetInCU: 0x85179, offset: 0x9AA87, size: 0x8, addend: 0x0, symName: __ZNSt3__123__dispatch_copy_or_moveB7v160006INS_17_ClassicAlgPolicyENS_11__move_loopIS1_EENS_14__move_trivialENS_16reverse_iteratorIPPcEES8_S8_EENS_4pairIT2_T4_EESA_T3_SB_, symObjAddr: 0x94980, symBinAddr: 0x10009C734, symSize: 0x64 }
  - { offsetInCU: 0x851FF, offset: 0x9AB0D, size: 0x8, addend: 0x0, symName: __ZNSt3__121__unwrap_and_dispatchB7v160006INS_10__overloadINS_11__move_loopINS_17_ClassicAlgPolicyEEENS_14__move_trivialEEENS_16reverse_iteratorIPPcEESA_SA_Li0EEENS_4pairIT0_T2_EESC_T1_SD_, symObjAddr: 0x949E4, symBinAddr: 0x10009C798, symSize: 0x12C }
  - { offsetInCU: 0x8529B, offset: 0x9ABA9, size: 0x8, addend: 0x0, symName: __ZNSt3__114__unwrap_rangeB7v160006INS_16reverse_iteratorIPPcEES4_EEDaT_T0_, symObjAddr: 0x94B10, symBinAddr: 0x10009C8C4, symSize: 0x4C }
  - { offsetInCU: 0x853C1, offset: 0x9ACCF, size: 0x8, addend: 0x0, symName: __ZNSt3__113__unwrap_iterB7v160006INS_16reverse_iteratorIPPcEENS_18__unwrap_iter_implIS4_Lb0EEELi0EEEDTclsrT0_8__unwrapclsr3stdE7declvalIT_EEEES8_, symObjAddr: 0x94BFC, symBinAddr: 0x10009C9B0, symSize: 0x44 }
  - { offsetInCU: 0x85409, offset: 0x9AD17, size: 0x8, addend: 0x0, symName: __ZNSt3__19make_pairB7v160006INS_16reverse_iteratorIPPcEES4_EENS_4pairINS_18__unwrap_ref_decayIT_E4typeENS6_IT0_E4typeEEEOS7_OSA_, symObjAddr: 0x94C40, symBinAddr: 0x10009C9F4, symSize: 0x38 }
  - { offsetInCU: 0x85458, offset: 0x9AD66, size: 0x8, addend: 0x0, symName: __ZNSt3__114__rewrap_rangeB7v160006INS_16reverse_iteratorIPPcEES4_S4_EET0_S5_T1_, symObjAddr: 0x94C78, symBinAddr: 0x10009CA2C, symSize: 0x5C }
  - { offsetInCU: 0x854B3, offset: 0x9ADC1, size: 0x8, addend: 0x0, symName: __ZNSt3__113__rewrap_iterB7v160006INS_16reverse_iteratorIPPcEES4_NS_18__unwrap_iter_implIS4_Lb0EEEEET_S7_T0_, symObjAddr: 0x94CD4, symBinAddr: 0x10009CA88, symSize: 0x74 }
  - { offsetInCU: 0x85564, offset: 0x9AE72, size: 0x8, addend: 0x0, symName: __ZNSt3__1neB7v160006IPPcS2_EEbRKNS_16reverse_iteratorIT_EERKNS3_IT0_EE, symObjAddr: 0x94E3C, symBinAddr: 0x10009CBF0, symSize: 0x48 }
  - { offsetInCU: 0x85623, offset: 0x9AF31, size: 0x8, addend: 0x0, symName: __ZNSt3__119__debug_db_insert_cB7v160006INS_6vectorItNS_9allocatorItEEEEEEvPT_, symObjAddr: 0x97020, symBinAddr: 0x10009EDD4, symSize: 0x10 }
  - { offsetInCU: 0x85658, offset: 0x9AF66, size: 0x8, addend: 0x0, symName: __ZNSt3__119__debug_db_insert_cB7v160006INS_6vectorIxNS_9allocatorIxEEEEEEvPT_, symObjAddr: 0x97260, symBinAddr: 0x10009F014, symSize: 0x10 }
  - { offsetInCU: 0x8568D, offset: 0x9AF9B, size: 0x8, addend: 0x0, symName: __ZNSt3__119__debug_db_insert_cB7v160006INS_6vectorIyNS_9allocatorIyEEEEEEvPT_, symObjAddr: 0x973CC, symBinAddr: 0x10009F180, symSize: 0x10 }
  - { offsetInCU: 0x856C2, offset: 0x9AFD0, size: 0x8, addend: 0x0, symName: __ZNSt3__119__debug_db_insert_cB7v160006INS_6vectorIdNS_9allocatorIdEEEEEEvPT_, symObjAddr: 0x97538, symBinAddr: 0x10009F2EC, symSize: 0x10 }
  - { offsetInCU: 0x856F6, offset: 0x9B004, size: 0x8, addend: 0x0, symName: __ZNSt3__122__make_exception_guardB7v160006INS_6vectorItNS_9allocatorItEEE16__destroy_vectorEEENS_28__exception_guard_exceptionsIT_EES7_, symObjAddr: 0x97898, symBinAddr: 0x10009F64C, symSize: 0x40 }
  - { offsetInCU: 0x8572B, offset: 0x9B039, size: 0x8, addend: 0x0, symName: __ZNSt3__119__allocate_at_leastB7v160006INS_9allocatorItEEEENS_19__allocation_resultINS_16allocator_traitsIT_E7pointerEEERS5_m, symObjAddr: 0x97BC0, symBinAddr: 0x10009F974, symSize: 0x40 }
  - { offsetInCU: 0x85774, offset: 0x9B082, size: 0x8, addend: 0x0, symName: __ZNSt3__130__uninitialized_allocator_copyB7v160006INS_9allocatorItEEPtS3_S3_EET2_RT_T0_T1_S4_, symObjAddr: 0x97DC8, symBinAddr: 0x10009FB7C, symSize: 0xF4 }
  - { offsetInCU: 0x85812, offset: 0x9B120, size: 0x8, addend: 0x0, symName: __ZNSt3__122__make_exception_guardB7v160006INS_29_AllocatorDestroyRangeReverseINS_9allocatorItEEPtEEEENS_28__exception_guard_exceptionsIT_EES7_, symObjAddr: 0x97F2C, symBinAddr: 0x10009FCE0, symSize: 0x4C }
  - { offsetInCU: 0x85871, offset: 0x9B17F, size: 0x8, addend: 0x0, symName: __ZNSt3__112construct_atB7v160006ItJRtEPtEEPT_S4_DpOT0_, symObjAddr: 0x980D0, symBinAddr: 0x10009FE84, symSize: 0x2C }
  - { offsetInCU: 0x858E9, offset: 0x9B1F7, size: 0x8, addend: 0x0, symName: __ZNSt3__119__allocator_destroyB7v160006INS_9allocatorItEENS_16reverse_iteratorIPtEES5_EEvRT_T0_T1_, symObjAddr: 0x981B4, symBinAddr: 0x10009FF68, symSize: 0x70 }
  - { offsetInCU: 0x8594C, offset: 0x9B25A, size: 0x8, addend: 0x0, symName: __ZNSt3__1neB7v160006IPtS1_EEbRKNS_16reverse_iteratorIT_EERKNS2_IT0_EE, symObjAddr: 0x98258, symBinAddr: 0x1000A000C, symSize: 0x48 }
  - { offsetInCU: 0x85998, offset: 0x9B2A6, size: 0x8, addend: 0x0, symName: __ZNSt3__112__to_addressB7v160006INS_16reverse_iteratorIPtEEvEENS_5decayIDTclsr19__to_address_helperIT_EE6__callclsr3stdE7declvalIRKS5_EEEEE4typeES7_, symObjAddr: 0x982A0, symBinAddr: 0x1000A0054, symSize: 0x24 }
  - { offsetInCU: 0x859F7, offset: 0x9B305, size: 0x8, addend: 0x0, symName: __ZNSt3__14prevB7v160006IPtEENS_9enable_ifIXsr25__is_cpp17_input_iteratorIT_EE5valueES3_E4typeES3_NS_15iterator_traitsIS3_E15difference_typeE, symObjAddr: 0x98360, symBinAddr: 0x1000A0114, symSize: 0x50 }
  - { offsetInCU: 0x85A41, offset: 0x9B34F, size: 0x8, addend: 0x0, symName: __ZNSt3__19__advanceB7v160006IPtEEvRT_NS_15iterator_traitsIS2_E15difference_typeENS_26random_access_iterator_tagE, symObjAddr: 0x98400, symBinAddr: 0x1000A01B4, symSize: 0x28 }
  - { offsetInCU: 0x85A89, offset: 0x9B397, size: 0x8, addend: 0x0, symName: __ZNSt3__122__make_exception_guardB7v160006INS_6vectorIxNS_9allocatorIxEEE16__destroy_vectorEEENS_28__exception_guard_exceptionsIT_EES7_, symObjAddr: 0x987F4, symBinAddr: 0x1000A05A8, symSize: 0x40 }
  - { offsetInCU: 0x85ABE, offset: 0x9B3CC, size: 0x8, addend: 0x0, symName: __ZNSt3__119__allocate_at_leastB7v160006INS_9allocatorIxEEEENS_19__allocation_resultINS_16allocator_traitsIT_E7pointerEEERS5_m, symObjAddr: 0x98B1C, symBinAddr: 0x1000A08D0, symSize: 0x40 }
  - { offsetInCU: 0x85B07, offset: 0x9B415, size: 0x8, addend: 0x0, symName: __ZNSt3__130__uninitialized_allocator_copyB7v160006INS_9allocatorIxEEPxS3_S3_EET2_RT_T0_T1_S4_, symObjAddr: 0x98D24, symBinAddr: 0x1000A0AD8, symSize: 0xF4 }
  - { offsetInCU: 0x85BA5, offset: 0x9B4B3, size: 0x8, addend: 0x0, symName: __ZNSt3__122__make_exception_guardB7v160006INS_29_AllocatorDestroyRangeReverseINS_9allocatorIxEEPxEEEENS_28__exception_guard_exceptionsIT_EES7_, symObjAddr: 0x98E88, symBinAddr: 0x1000A0C3C, symSize: 0x4C }
  - { offsetInCU: 0x85C04, offset: 0x9B512, size: 0x8, addend: 0x0, symName: __ZNSt3__112construct_atB7v160006IxJRxEPxEEPT_S4_DpOT0_, symObjAddr: 0x9902C, symBinAddr: 0x1000A0DE0, symSize: 0x2C }
  - { offsetInCU: 0x85C7C, offset: 0x9B58A, size: 0x8, addend: 0x0, symName: __ZNSt3__119__allocator_destroyB7v160006INS_9allocatorIxEENS_16reverse_iteratorIPxEES5_EEvRT_T0_T1_, symObjAddr: 0x99110, symBinAddr: 0x1000A0EC4, symSize: 0x70 }
  - { offsetInCU: 0x85CDF, offset: 0x9B5ED, size: 0x8, addend: 0x0, symName: __ZNSt3__1neB7v160006IPxS1_EEbRKNS_16reverse_iteratorIT_EERKNS2_IT0_EE, symObjAddr: 0x991B4, symBinAddr: 0x1000A0F68, symSize: 0x48 }
  - { offsetInCU: 0x85D2B, offset: 0x9B639, size: 0x8, addend: 0x0, symName: __ZNSt3__112__to_addressB7v160006INS_16reverse_iteratorIPxEEvEENS_5decayIDTclsr19__to_address_helperIT_EE6__callclsr3stdE7declvalIRKS5_EEEEE4typeES7_, symObjAddr: 0x991FC, symBinAddr: 0x1000A0FB0, symSize: 0x24 }
  - { offsetInCU: 0x85D8A, offset: 0x9B698, size: 0x8, addend: 0x0, symName: __ZNSt3__14prevB7v160006IPxEENS_9enable_ifIXsr25__is_cpp17_input_iteratorIT_EE5valueES3_E4typeES3_NS_15iterator_traitsIS3_E15difference_typeE, symObjAddr: 0x992BC, symBinAddr: 0x1000A1070, symSize: 0x50 }
  - { offsetInCU: 0x85DD4, offset: 0x9B6E2, size: 0x8, addend: 0x0, symName: __ZNSt3__19__advanceB7v160006IPxEEvRT_NS_15iterator_traitsIS2_E15difference_typeENS_26random_access_iterator_tagE, symObjAddr: 0x9935C, symBinAddr: 0x1000A1110, symSize: 0x28 }
  - { offsetInCU: 0x85E1C, offset: 0x9B72A, size: 0x8, addend: 0x0, symName: __ZNSt3__122__make_exception_guardB7v160006INS_6vectorIyNS_9allocatorIyEEE16__destroy_vectorEEENS_28__exception_guard_exceptionsIT_EES7_, symObjAddr: 0x995A0, symBinAddr: 0x1000A1354, symSize: 0x40 }
  - { offsetInCU: 0x85E51, offset: 0x9B75F, size: 0x8, addend: 0x0, symName: __ZNSt3__119__allocate_at_leastB7v160006INS_9allocatorIyEEEENS_19__allocation_resultINS_16allocator_traitsIT_E7pointerEEERS5_m, symObjAddr: 0x998C8, symBinAddr: 0x1000A167C, symSize: 0x40 }
  - { offsetInCU: 0x85E9A, offset: 0x9B7A8, size: 0x8, addend: 0x0, symName: __ZNSt3__130__uninitialized_allocator_copyB7v160006INS_9allocatorIyEEPyS3_S3_EET2_RT_T0_T1_S4_, symObjAddr: 0x99AD0, symBinAddr: 0x1000A1884, symSize: 0xF4 }
  - { offsetInCU: 0x85F38, offset: 0x9B846, size: 0x8, addend: 0x0, symName: __ZNSt3__122__make_exception_guardB7v160006INS_29_AllocatorDestroyRangeReverseINS_9allocatorIyEEPyEEEENS_28__exception_guard_exceptionsIT_EES7_, symObjAddr: 0x99C34, symBinAddr: 0x1000A19E8, symSize: 0x4C }
  - { offsetInCU: 0x85F97, offset: 0x9B8A5, size: 0x8, addend: 0x0, symName: __ZNSt3__112construct_atB7v160006IyJRyEPyEEPT_S4_DpOT0_, symObjAddr: 0x99DD8, symBinAddr: 0x1000A1B8C, symSize: 0x2C }
  - { offsetInCU: 0x8600F, offset: 0x9B91D, size: 0x8, addend: 0x0, symName: __ZNSt3__119__allocator_destroyB7v160006INS_9allocatorIyEENS_16reverse_iteratorIPyEES5_EEvRT_T0_T1_, symObjAddr: 0x99EBC, symBinAddr: 0x1000A1C70, symSize: 0x70 }
  - { offsetInCU: 0x86072, offset: 0x9B980, size: 0x8, addend: 0x0, symName: __ZNSt3__1neB7v160006IPyS1_EEbRKNS_16reverse_iteratorIT_EERKNS2_IT0_EE, symObjAddr: 0x99F60, symBinAddr: 0x1000A1D14, symSize: 0x48 }
  - { offsetInCU: 0x860BE, offset: 0x9B9CC, size: 0x8, addend: 0x0, symName: __ZNSt3__112__to_addressB7v160006INS_16reverse_iteratorIPyEEvEENS_5decayIDTclsr19__to_address_helperIT_EE6__callclsr3stdE7declvalIRKS5_EEEEE4typeES7_, symObjAddr: 0x99FA8, symBinAddr: 0x1000A1D5C, symSize: 0x24 }
  - { offsetInCU: 0x8611D, offset: 0x9BA2B, size: 0x8, addend: 0x0, symName: __ZNSt3__14prevB7v160006IPyEENS_9enable_ifIXsr25__is_cpp17_input_iteratorIT_EE5valueES3_E4typeES3_NS_15iterator_traitsIS3_E15difference_typeE, symObjAddr: 0x9A068, symBinAddr: 0x1000A1E1C, symSize: 0x50 }
  - { offsetInCU: 0x86167, offset: 0x9BA75, size: 0x8, addend: 0x0, symName: __ZNSt3__19__advanceB7v160006IPyEEvRT_NS_15iterator_traitsIS2_E15difference_typeENS_26random_access_iterator_tagE, symObjAddr: 0x9A108, symBinAddr: 0x1000A1EBC, symSize: 0x28 }
  - { offsetInCU: 0x861AF, offset: 0x9BABD, size: 0x8, addend: 0x0, symName: __ZNSt3__122__make_exception_guardB7v160006INS_6vectorIdNS_9allocatorIdEEE16__destroy_vectorEEENS_28__exception_guard_exceptionsIT_EES7_, symObjAddr: 0x9A34C, symBinAddr: 0x1000A2100, symSize: 0x40 }
  - { offsetInCU: 0x861E4, offset: 0x9BAF2, size: 0x8, addend: 0x0, symName: __ZNSt3__119__allocate_at_leastB7v160006INS_9allocatorIdEEEENS_19__allocation_resultINS_16allocator_traitsIT_E7pointerEEERS5_m, symObjAddr: 0x9A674, symBinAddr: 0x1000A2428, symSize: 0x40 }
  - { offsetInCU: 0x8622D, offset: 0x9BB3B, size: 0x8, addend: 0x0, symName: __ZNSt3__130__uninitialized_allocator_copyB7v160006INS_9allocatorIdEEPdS3_S3_EET2_RT_T0_T1_S4_, symObjAddr: 0x9A87C, symBinAddr: 0x1000A2630, symSize: 0xF4 }
  - { offsetInCU: 0x862CB, offset: 0x9BBD9, size: 0x8, addend: 0x0, symName: __ZNSt3__122__make_exception_guardB7v160006INS_29_AllocatorDestroyRangeReverseINS_9allocatorIdEEPdEEEENS_28__exception_guard_exceptionsIT_EES7_, symObjAddr: 0x9A9E0, symBinAddr: 0x1000A2794, symSize: 0x4C }
  - { offsetInCU: 0x8632A, offset: 0x9BC38, size: 0x8, addend: 0x0, symName: __ZNSt3__112construct_atB7v160006IdJRdEPdEEPT_S4_DpOT0_, symObjAddr: 0x9AB84, symBinAddr: 0x1000A2938, symSize: 0x2C }
  - { offsetInCU: 0x863A2, offset: 0x9BCB0, size: 0x8, addend: 0x0, symName: __ZNSt3__119__allocator_destroyB7v160006INS_9allocatorIdEENS_16reverse_iteratorIPdEES5_EEvRT_T0_T1_, symObjAddr: 0x9AC68, symBinAddr: 0x1000A2A1C, symSize: 0x70 }
  - { offsetInCU: 0x86405, offset: 0x9BD13, size: 0x8, addend: 0x0, symName: __ZNSt3__1neB7v160006IPdS1_EEbRKNS_16reverse_iteratorIT_EERKNS2_IT0_EE, symObjAddr: 0x9AD0C, symBinAddr: 0x1000A2AC0, symSize: 0x48 }
  - { offsetInCU: 0x86451, offset: 0x9BD5F, size: 0x8, addend: 0x0, symName: __ZNSt3__112__to_addressB7v160006INS_16reverse_iteratorIPdEEvEENS_5decayIDTclsr19__to_address_helperIT_EE6__callclsr3stdE7declvalIRKS5_EEEEE4typeES7_, symObjAddr: 0x9AD54, symBinAddr: 0x1000A2B08, symSize: 0x24 }
  - { offsetInCU: 0x864B0, offset: 0x9BDBE, size: 0x8, addend: 0x0, symName: __ZNSt3__14prevB7v160006IPdEENS_9enable_ifIXsr25__is_cpp17_input_iteratorIT_EE5valueES3_E4typeES3_NS_15iterator_traitsIS3_E15difference_typeE, symObjAddr: 0x9AE14, symBinAddr: 0x1000A2BC8, symSize: 0x50 }
  - { offsetInCU: 0x864FA, offset: 0x9BE08, size: 0x8, addend: 0x0, symName: __ZNSt3__19__advanceB7v160006IPdEEvRT_NS_15iterator_traitsIS2_E15difference_typeENS_26random_access_iterator_tagE, symObjAddr: 0x9AEB4, symBinAddr: 0x1000A2C68, symSize: 0x28 }
  - { offsetInCU: 0x86542, offset: 0x9BE50, size: 0x8, addend: 0x0, symName: __ZNSt3__122__make_exception_guardB7v160006INS_6vectorINS_12basic_stringIcNS_11char_traitsIcEENS_9allocatorIcEEEENS5_IS7_EEE16__destroy_vectorEEENS_28__exception_guard_exceptionsIT_EESC_, symObjAddr: 0x9B0D0, symBinAddr: 0x1000A2E84, symSize: 0x40 }
  - { offsetInCU: 0x86577, offset: 0x9BE85, size: 0x8, addend: 0x0, symName: __ZNSt3__130__uninitialized_allocator_copyB7v160006INS_9allocatorINS_12basic_stringIcNS_11char_traitsIcEENS1_IcEEEEEEPS6_S8_S8_EET2_RT_T0_T1_S9_, symObjAddr: 0x9B34C, symBinAddr: 0x1000A3100, symSize: 0xF4 }
  - { offsetInCU: 0x86615, offset: 0x9BF23, size: 0x8, addend: 0x0, symName: __ZNSt3__122__make_exception_guardB7v160006INS_29_AllocatorDestroyRangeReverseINS_9allocatorINS_12basic_stringIcNS_11char_traitsIcEENS2_IcEEEEEEPS7_EEEENS_28__exception_guard_exceptionsIT_EESC_, symObjAddr: 0x9B440, symBinAddr: 0x1000A31F4, symSize: 0x4C }
  - { offsetInCU: 0x8664B, offset: 0x9BF59, size: 0x8, addend: 0x0, symName: __ZNSt3__112construct_atB7v160006INS_12basic_stringIcNS_11char_traitsIcEENS_9allocatorIcEEEEJRS6_EPS6_EEPT_SA_DpOT0_, symObjAddr: 0x9B5E4, symBinAddr: 0x1000A3398, symSize: 0x3C }
  - { offsetInCU: 0x866C3, offset: 0x9BFD1, size: 0x8, addend: 0x0, symName: __ZNSt3__119__allocator_destroyB7v160006INS_9allocatorINS_12basic_stringIcNS_11char_traitsIcEENS1_IcEEEEEENS_16reverse_iteratorIPS6_EESA_EEvRT_T0_T1_, symObjAddr: 0x9B6D8, symBinAddr: 0x1000A348C, symSize: 0x70 }
  - { offsetInCU: 0x86727, offset: 0x9C035, size: 0x8, addend: 0x0, symName: __ZNSt3__115__debug_db_swapB7v160006INS_6vectorItNS_9allocatorItEEEEEEvPT_S6_, symObjAddr: 0x9CC08, symBinAddr: 0x1000A49BC, symSize: 0x14 }
  - { offsetInCU: 0x8676C, offset: 0x9C07A, size: 0x8, addend: 0x0, symName: __ZNSt3__125__debug_db_invalidate_allB7v160006INS_6vectorItNS_9allocatorItEEEEEEvPT_, symObjAddr: 0x9CD24, symBinAddr: 0x1000A4AD8, symSize: 0x10 }
  - { offsetInCU: 0x867A0, offset: 0x9C0AE, size: 0x8, addend: 0x0, symName: __ZNSt3__112construct_atB7v160006IxJRKxEPxEEPT_S5_DpOT0_, symObjAddr: 0x9CF94, symBinAddr: 0x1000A4D48, symSize: 0x2C }
  - { offsetInCU: 0x86818, offset: 0x9C126, size: 0x8, addend: 0x0, symName: __ZNSt3__142__uninitialized_allocator_move_if_noexceptB7v160006INS_9allocatorIxEENS_16reverse_iteratorIPxEES5_xvEET1_RT_T0_S9_S6_, symObjAddr: 0x9D428, symBinAddr: 0x1000A51DC, symSize: 0x78 }
  - { offsetInCU: 0x86896, offset: 0x9C1A4, size: 0x8, addend: 0x0, symName: __ZNSt3__14swapB7v160006IPxEENS_9enable_ifIXaasr21is_move_constructibleIT_EE5valuesr18is_move_assignableIS3_EE5valueEvE4typeERS3_S6_, symObjAddr: 0x9D4A0, symBinAddr: 0x1000A5254, symSize: 0x3C }
  - { offsetInCU: 0x868F0, offset: 0x9C1FE, size: 0x8, addend: 0x0, symName: __ZNSt3__125__debug_db_invalidate_allB7v160006INS_6vectorIxNS_9allocatorIxEEEEEEvPT_, symObjAddr: 0x9D4DC, symBinAddr: 0x1000A5290, symSize: 0x10 }
  - { offsetInCU: 0x86924, offset: 0x9C232, size: 0x8, addend: 0x0, symName: __ZNSt3__14moveB7v160006INS_16reverse_iteratorIPxEES3_EET0_T_S5_S4_, symObjAddr: 0x9D4EC, symBinAddr: 0x1000A52A0, symSize: 0x78 }
  - { offsetInCU: 0x86986, offset: 0x9C294, size: 0x8, addend: 0x0, symName: __ZNSt3__16__moveB7v160006INS_17_ClassicAlgPolicyENS_16reverse_iteratorIPxEES4_S4_EENS_4pairIT0_T2_EES6_T1_S7_, symObjAddr: 0x9D564, symBinAddr: 0x1000A5318, symSize: 0x64 }
  - { offsetInCU: 0x869FA, offset: 0x9C308, size: 0x8, addend: 0x0, symName: __ZNSt3__123__dispatch_copy_or_moveB7v160006INS_17_ClassicAlgPolicyENS_11__move_loopIS1_EENS_14__move_trivialENS_16reverse_iteratorIPxEES7_S7_EENS_4pairIT2_T4_EES9_T3_SA_, symObjAddr: 0x9D5C8, symBinAddr: 0x1000A537C, symSize: 0x64 }
  - { offsetInCU: 0x86A80, offset: 0x9C38E, size: 0x8, addend: 0x0, symName: __ZNSt3__121__unwrap_and_dispatchB7v160006INS_10__overloadINS_11__move_loopINS_17_ClassicAlgPolicyEEENS_14__move_trivialEEENS_16reverse_iteratorIPxEES9_S9_Li0EEENS_4pairIT0_T2_EESB_T1_SC_, symObjAddr: 0x9D62C, symBinAddr: 0x1000A53E0, symSize: 0x12C }
  - { offsetInCU: 0x86B1C, offset: 0x9C42A, size: 0x8, addend: 0x0, symName: __ZNSt3__114__unwrap_rangeB7v160006INS_16reverse_iteratorIPxEES3_EEDaT_T0_, symObjAddr: 0x9D758, symBinAddr: 0x1000A550C, symSize: 0x4C }
  - { offsetInCU: 0x86C42, offset: 0x9C550, size: 0x8, addend: 0x0, symName: __ZNSt3__113__unwrap_iterB7v160006INS_16reverse_iteratorIPxEENS_18__unwrap_iter_implIS3_Lb0EEELi0EEEDTclsrT0_8__unwrapclsr3stdE7declvalIT_EEEES7_, symObjAddr: 0x9D844, symBinAddr: 0x1000A55F8, symSize: 0x44 }
  - { offsetInCU: 0x86C8A, offset: 0x9C598, size: 0x8, addend: 0x0, symName: __ZNSt3__19make_pairB7v160006INS_16reverse_iteratorIPxEES3_EENS_4pairINS_18__unwrap_ref_decayIT_E4typeENS5_IT0_E4typeEEEOS6_OS9_, symObjAddr: 0x9D888, symBinAddr: 0x1000A563C, symSize: 0x38 }
  - { offsetInCU: 0x86CD9, offset: 0x9C5E7, size: 0x8, addend: 0x0, symName: __ZNSt3__114__rewrap_rangeB7v160006INS_16reverse_iteratorIPxEES3_S3_EET0_S4_T1_, symObjAddr: 0x9D8C0, symBinAddr: 0x1000A5674, symSize: 0x5C }
  - { offsetInCU: 0x86D34, offset: 0x9C642, size: 0x8, addend: 0x0, symName: __ZNSt3__113__rewrap_iterB7v160006INS_16reverse_iteratorIPxEES3_NS_18__unwrap_iter_implIS3_Lb0EEEEET_S6_T0_, symObjAddr: 0x9D91C, symBinAddr: 0x1000A56D0, symSize: 0x74 }
  - { offsetInCU: 0x86E57, offset: 0x9C765, size: 0x8, addend: 0x0, symName: __ZNSt3__112construct_atB7v160006ItJRKtEPtEEPT_S5_DpOT0_, symObjAddr: 0x9DF08, symBinAddr: 0x1000A5CBC, symSize: 0x2C }
  - { offsetInCU: 0x86ECF, offset: 0x9C7DD, size: 0x8, addend: 0x0, symName: __ZNSt3__142__uninitialized_allocator_move_if_noexceptB7v160006INS_9allocatorItEENS_16reverse_iteratorIPtEES5_tvEET1_RT_T0_S9_S6_, symObjAddr: 0x9E39C, symBinAddr: 0x1000A6150, symSize: 0x78 }
  - { offsetInCU: 0x86F4D, offset: 0x9C85B, size: 0x8, addend: 0x0, symName: __ZNSt3__14swapB7v160006IPtEENS_9enable_ifIXaasr21is_move_constructibleIT_EE5valuesr18is_move_assignableIS3_EE5valueEvE4typeERS3_S6_, symObjAddr: 0x9E414, symBinAddr: 0x1000A61C8, symSize: 0x3C }
  - { offsetInCU: 0x86FA6, offset: 0x9C8B4, size: 0x8, addend: 0x0, symName: __ZNSt3__14moveB7v160006INS_16reverse_iteratorIPtEES3_EET0_T_S5_S4_, symObjAddr: 0x9E450, symBinAddr: 0x1000A6204, symSize: 0x78 }
  - { offsetInCU: 0x87008, offset: 0x9C916, size: 0x8, addend: 0x0, symName: __ZNSt3__16__moveB7v160006INS_17_ClassicAlgPolicyENS_16reverse_iteratorIPtEES4_S4_EENS_4pairIT0_T2_EES6_T1_S7_, symObjAddr: 0x9E4C8, symBinAddr: 0x1000A627C, symSize: 0x64 }
  - { offsetInCU: 0x8707C, offset: 0x9C98A, size: 0x8, addend: 0x0, symName: __ZNSt3__123__dispatch_copy_or_moveB7v160006INS_17_ClassicAlgPolicyENS_11__move_loopIS1_EENS_14__move_trivialENS_16reverse_iteratorIPtEES7_S7_EENS_4pairIT2_T4_EES9_T3_SA_, symObjAddr: 0x9E52C, symBinAddr: 0x1000A62E0, symSize: 0x64 }
  - { offsetInCU: 0x87102, offset: 0x9CA10, size: 0x8, addend: 0x0, symName: __ZNSt3__121__unwrap_and_dispatchB7v160006INS_10__overloadINS_11__move_loopINS_17_ClassicAlgPolicyEEENS_14__move_trivialEEENS_16reverse_iteratorIPtEES9_S9_Li0EEENS_4pairIT0_T2_EESB_T1_SC_, symObjAddr: 0x9E590, symBinAddr: 0x1000A6344, symSize: 0x12C }
  - { offsetInCU: 0x8719E, offset: 0x9CAAC, size: 0x8, addend: 0x0, symName: __ZNSt3__114__unwrap_rangeB7v160006INS_16reverse_iteratorIPtEES3_EEDaT_T0_, symObjAddr: 0x9E6BC, symBinAddr: 0x1000A6470, symSize: 0x4C }
  - { offsetInCU: 0x872C4, offset: 0x9CBD2, size: 0x8, addend: 0x0, symName: __ZNSt3__113__unwrap_iterB7v160006INS_16reverse_iteratorIPtEENS_18__unwrap_iter_implIS3_Lb0EEELi0EEEDTclsrT0_8__unwrapclsr3stdE7declvalIT_EEEES7_, symObjAddr: 0x9E7A8, symBinAddr: 0x1000A655C, symSize: 0x44 }
  - { offsetInCU: 0x8730C, offset: 0x9CC1A, size: 0x8, addend: 0x0, symName: __ZNSt3__19make_pairB7v160006INS_16reverse_iteratorIPtEES3_EENS_4pairINS_18__unwrap_ref_decayIT_E4typeENS5_IT0_E4typeEEEOS6_OS9_, symObjAddr: 0x9E7EC, symBinAddr: 0x1000A65A0, symSize: 0x38 }
  - { offsetInCU: 0x8735B, offset: 0x9CC69, size: 0x8, addend: 0x0, symName: __ZNSt3__114__rewrap_rangeB7v160006INS_16reverse_iteratorIPtEES3_S3_EET0_S4_T1_, symObjAddr: 0x9E824, symBinAddr: 0x1000A65D8, symSize: 0x5C }
  - { offsetInCU: 0x873B6, offset: 0x9CCC4, size: 0x8, addend: 0x0, symName: __ZNSt3__113__rewrap_iterB7v160006INS_16reverse_iteratorIPtEES3_NS_18__unwrap_iter_implIS3_Lb0EEEEET_S6_T0_, symObjAddr: 0x9E880, symBinAddr: 0x1000A6634, symSize: 0x74 }
  - { offsetInCU: 0x874DA, offset: 0x9CDE8, size: 0x8, addend: 0x0, symName: __ZNSt3__115__debug_db_swapB7v160006INS_6vectorIxNS_9allocatorIxEEEEEEvPT_S6_, symObjAddr: 0x9EF78, symBinAddr: 0x1000A6D2C, symSize: 0x14 }
  - { offsetInCU: 0x8751F, offset: 0x9CE2D, size: 0x8, addend: 0x0, symName: __ZNSt3__115__debug_db_swapB7v160006INS_6vectorIyNS_9allocatorIyEEEEEEvPT_S6_, symObjAddr: 0x9F228, symBinAddr: 0x1000A6FDC, symSize: 0x14 }
  - { offsetInCU: 0x87564, offset: 0x9CE72, size: 0x8, addend: 0x0, symName: __ZNSt3__125__debug_db_invalidate_allB7v160006INS_6vectorIyNS_9allocatorIyEEEEEEvPT_, symObjAddr: 0x9F344, symBinAddr: 0x1000A70F8, symSize: 0x10 }
  - { offsetInCU: 0x87599, offset: 0x9CEA7, size: 0x8, addend: 0x0, symName: __ZNSt3__115__debug_db_swapB7v160006INS_6vectorIdNS_9allocatorIdEEEEEEvPT_S6_, symObjAddr: 0x9F4F0, symBinAddr: 0x1000A72A4, symSize: 0x14 }
  - { offsetInCU: 0x875DE, offset: 0x9CEEC, size: 0x8, addend: 0x0, symName: __ZNSt3__125__debug_db_invalidate_allB7v160006INS_6vectorIdNS_9allocatorIdEEEEEEvPT_, symObjAddr: 0x9F60C, symBinAddr: 0x1000A73C0, symSize: 0x10 }
  - { offsetInCU: 0x87613, offset: 0x9CF21, size: 0x8, addend: 0x0, symName: __ZNSt3__115__debug_db_swapB7v160006INS_6vectorINS_12basic_stringIcNS_11char_traitsIcEENS_9allocatorIcEEEENS5_IS7_EEEEEEvPT_SB_, symObjAddr: 0x9F7B8, symBinAddr: 0x1000A756C, symSize: 0x14 }
  - { offsetInCU: 0x87657, offset: 0x9CF65, size: 0x8, addend: 0x0, symName: __ZNSt3__112construct_atB7v160006IyJRKyEPyEEPT_S5_DpOT0_, symObjAddr: 0x9FBA0, symBinAddr: 0x1000A7954, symSize: 0x2C }
  - { offsetInCU: 0x876CF, offset: 0x9CFDD, size: 0x8, addend: 0x0, symName: __ZNSt3__142__uninitialized_allocator_move_if_noexceptB7v160006INS_9allocatorIyEENS_16reverse_iteratorIPyEES5_yvEET1_RT_T0_S9_S6_, symObjAddr: 0xA0034, symBinAddr: 0x1000A7DE8, symSize: 0x78 }
  - { offsetInCU: 0x8774D, offset: 0x9D05B, size: 0x8, addend: 0x0, symName: __ZNSt3__14swapB7v160006IPyEENS_9enable_ifIXaasr21is_move_constructibleIT_EE5valuesr18is_move_assignableIS3_EE5valueEvE4typeERS3_S6_, symObjAddr: 0xA00AC, symBinAddr: 0x1000A7E60, symSize: 0x3C }
  - { offsetInCU: 0x877A6, offset: 0x9D0B4, size: 0x8, addend: 0x0, symName: __ZNSt3__14moveB7v160006INS_16reverse_iteratorIPyEES3_EET0_T_S5_S4_, symObjAddr: 0xA00E8, symBinAddr: 0x1000A7E9C, symSize: 0x78 }
  - { offsetInCU: 0x87808, offset: 0x9D116, size: 0x8, addend: 0x0, symName: __ZNSt3__16__moveB7v160006INS_17_ClassicAlgPolicyENS_16reverse_iteratorIPyEES4_S4_EENS_4pairIT0_T2_EES6_T1_S7_, symObjAddr: 0xA0160, symBinAddr: 0x1000A7F14, symSize: 0x64 }
  - { offsetInCU: 0x8787C, offset: 0x9D18A, size: 0x8, addend: 0x0, symName: __ZNSt3__123__dispatch_copy_or_moveB7v160006INS_17_ClassicAlgPolicyENS_11__move_loopIS1_EENS_14__move_trivialENS_16reverse_iteratorIPyEES7_S7_EENS_4pairIT2_T4_EES9_T3_SA_, symObjAddr: 0xA01C4, symBinAddr: 0x1000A7F78, symSize: 0x64 }
  - { offsetInCU: 0x87902, offset: 0x9D210, size: 0x8, addend: 0x0, symName: __ZNSt3__121__unwrap_and_dispatchB7v160006INS_10__overloadINS_11__move_loopINS_17_ClassicAlgPolicyEEENS_14__move_trivialEEENS_16reverse_iteratorIPyEES9_S9_Li0EEENS_4pairIT0_T2_EESB_T1_SC_, symObjAddr: 0xA0228, symBinAddr: 0x1000A7FDC, symSize: 0x12C }
  - { offsetInCU: 0x8799E, offset: 0x9D2AC, size: 0x8, addend: 0x0, symName: __ZNSt3__114__unwrap_rangeB7v160006INS_16reverse_iteratorIPyEES3_EEDaT_T0_, symObjAddr: 0xA0354, symBinAddr: 0x1000A8108, symSize: 0x4C }
  - { offsetInCU: 0x87AC4, offset: 0x9D3D2, size: 0x8, addend: 0x0, symName: __ZNSt3__113__unwrap_iterB7v160006INS_16reverse_iteratorIPyEENS_18__unwrap_iter_implIS3_Lb0EEELi0EEEDTclsrT0_8__unwrapclsr3stdE7declvalIT_EEEES7_, symObjAddr: 0xA0440, symBinAddr: 0x1000A81F4, symSize: 0x44 }
  - { offsetInCU: 0x87B0C, offset: 0x9D41A, size: 0x8, addend: 0x0, symName: __ZNSt3__19make_pairB7v160006INS_16reverse_iteratorIPyEES3_EENS_4pairINS_18__unwrap_ref_decayIT_E4typeENS5_IT0_E4typeEEEOS6_OS9_, symObjAddr: 0xA0484, symBinAddr: 0x1000A8238, symSize: 0x38 }
  - { offsetInCU: 0x87B5B, offset: 0x9D469, size: 0x8, addend: 0x0, symName: __ZNSt3__114__rewrap_rangeB7v160006INS_16reverse_iteratorIPyEES3_S3_EET0_S4_T1_, symObjAddr: 0xA04BC, symBinAddr: 0x1000A8270, symSize: 0x5C }
  - { offsetInCU: 0x87BB6, offset: 0x9D4C4, size: 0x8, addend: 0x0, symName: __ZNSt3__113__rewrap_iterB7v160006INS_16reverse_iteratorIPyEES3_NS_18__unwrap_iter_implIS3_Lb0EEEEET_S6_T0_, symObjAddr: 0xA0518, symBinAddr: 0x1000A82CC, symSize: 0x74 }
  - { offsetInCU: 0x87CD9, offset: 0x9D5E7, size: 0x8, addend: 0x0, symName: __ZNSt3__112construct_atB7v160006IdJRKdEPdEEPT_S5_DpOT0_, symObjAddr: 0xA0B78, symBinAddr: 0x1000A892C, symSize: 0x2C }
  - { offsetInCU: 0x87D51, offset: 0x9D65F, size: 0x8, addend: 0x0, symName: __ZNSt3__142__uninitialized_allocator_move_if_noexceptB7v160006INS_9allocatorIdEENS_16reverse_iteratorIPdEES5_dvEET1_RT_T0_S9_S6_, symObjAddr: 0xA100C, symBinAddr: 0x1000A8DC0, symSize: 0x78 }
  - { offsetInCU: 0x87DCF, offset: 0x9D6DD, size: 0x8, addend: 0x0, symName: __ZNSt3__14swapB7v160006IPdEENS_9enable_ifIXaasr21is_move_constructibleIT_EE5valuesr18is_move_assignableIS3_EE5valueEvE4typeERS3_S6_, symObjAddr: 0xA1084, symBinAddr: 0x1000A8E38, symSize: 0x3C }
  - { offsetInCU: 0x87E28, offset: 0x9D736, size: 0x8, addend: 0x0, symName: __ZNSt3__14moveB7v160006INS_16reverse_iteratorIPdEES3_EET0_T_S5_S4_, symObjAddr: 0xA10C0, symBinAddr: 0x1000A8E74, symSize: 0x78 }
  - { offsetInCU: 0x87E8A, offset: 0x9D798, size: 0x8, addend: 0x0, symName: __ZNSt3__16__moveB7v160006INS_17_ClassicAlgPolicyENS_16reverse_iteratorIPdEES4_S4_EENS_4pairIT0_T2_EES6_T1_S7_, symObjAddr: 0xA1138, symBinAddr: 0x1000A8EEC, symSize: 0x64 }
  - { offsetInCU: 0x87EFE, offset: 0x9D80C, size: 0x8, addend: 0x0, symName: __ZNSt3__123__dispatch_copy_or_moveB7v160006INS_17_ClassicAlgPolicyENS_11__move_loopIS1_EENS_14__move_trivialENS_16reverse_iteratorIPdEES7_S7_EENS_4pairIT2_T4_EES9_T3_SA_, symObjAddr: 0xA119C, symBinAddr: 0x1000A8F50, symSize: 0x64 }
  - { offsetInCU: 0x87F84, offset: 0x9D892, size: 0x8, addend: 0x0, symName: __ZNSt3__121__unwrap_and_dispatchB7v160006INS_10__overloadINS_11__move_loopINS_17_ClassicAlgPolicyEEENS_14__move_trivialEEENS_16reverse_iteratorIPdEES9_S9_Li0EEENS_4pairIT0_T2_EESB_T1_SC_, symObjAddr: 0xA1200, symBinAddr: 0x1000A8FB4, symSize: 0x12C }
  - { offsetInCU: 0x88020, offset: 0x9D92E, size: 0x8, addend: 0x0, symName: __ZNSt3__114__unwrap_rangeB7v160006INS_16reverse_iteratorIPdEES3_EEDaT_T0_, symObjAddr: 0xA132C, symBinAddr: 0x1000A90E0, symSize: 0x4C }
  - { offsetInCU: 0x88146, offset: 0x9DA54, size: 0x8, addend: 0x0, symName: __ZNSt3__113__unwrap_iterB7v160006INS_16reverse_iteratorIPdEENS_18__unwrap_iter_implIS3_Lb0EEELi0EEEDTclsrT0_8__unwrapclsr3stdE7declvalIT_EEEES7_, symObjAddr: 0xA1418, symBinAddr: 0x1000A91CC, symSize: 0x44 }
  - { offsetInCU: 0x8818E, offset: 0x9DA9C, size: 0x8, addend: 0x0, symName: __ZNSt3__19make_pairB7v160006INS_16reverse_iteratorIPdEES3_EENS_4pairINS_18__unwrap_ref_decayIT_E4typeENS5_IT0_E4typeEEEOS6_OS9_, symObjAddr: 0xA145C, symBinAddr: 0x1000A9210, symSize: 0x38 }
  - { offsetInCU: 0x881DD, offset: 0x9DAEB, size: 0x8, addend: 0x0, symName: __ZNSt3__114__rewrap_rangeB7v160006INS_16reverse_iteratorIPdEES3_S3_EET0_S4_T1_, symObjAddr: 0xA1494, symBinAddr: 0x1000A9248, symSize: 0x5C }
  - { offsetInCU: 0x88238, offset: 0x9DB46, size: 0x8, addend: 0x0, symName: __ZNSt3__113__rewrap_iterB7v160006INS_16reverse_iteratorIPdEES3_NS_18__unwrap_iter_implIS3_Lb0EEEEET_S6_T0_, symObjAddr: 0xA14F0, symBinAddr: 0x1000A92A4, symSize: 0x74 }
  - { offsetInCU: 0x8835B, offset: 0x9DC69, size: 0x8, addend: 0x0, symName: __ZNSt3__1plB7v160006IcNS_11char_traitsIcEENS_9allocatorIcEEEENS_12basic_stringIT_T0_T1_EEOS9_S6_, symObjAddr: 0xA2290, symBinAddr: 0x1000AA044, symSize: 0x40 }
  - { offsetInCU: 0x883B3, offset: 0x9DCC1, size: 0x8, addend: 0x0, symName: __ZNSt3__112construct_atB7v160006IPN4crow9BlueprintEJRKS3_EPS3_EEPT_S8_DpOT0_, symObjAddr: 0xA2594, symBinAddr: 0x1000AA348, symSize: 0x2C }
  - { offsetInCU: 0x8842B, offset: 0x9DD39, size: 0x8, addend: 0x0, symName: __ZNSt3__142__uninitialized_allocator_move_if_noexceptB7v160006INS_9allocatorIPN4crow9BlueprintEEENS_16reverse_iteratorIPS4_EES8_S4_vEET1_RT_T0_SC_S9_, symObjAddr: 0xA2A28, symBinAddr: 0x1000AA7DC, symSize: 0x78 }
  - { offsetInCU: 0x884A9, offset: 0x9DDB7, size: 0x8, addend: 0x0, symName: __ZNSt3__14swapB7v160006IPPN4crow9BlueprintEEENS_9enable_ifIXaasr21is_move_constructibleIT_EE5valuesr18is_move_assignableIS6_EE5valueEvE4typeERS6_S9_, symObjAddr: 0xA2AA0, symBinAddr: 0x1000AA854, symSize: 0x3C }
  - { offsetInCU: 0x88503, offset: 0x9DE11, size: 0x8, addend: 0x0, symName: __ZNSt3__125__debug_db_invalidate_allB7v160006INS_6vectorIPN4crow9BlueprintENS_9allocatorIS4_EEEEEEvPT_, symObjAddr: 0xA2ADC, symBinAddr: 0x1000AA890, symSize: 0x10 }
  - { offsetInCU: 0x88537, offset: 0x9DE45, size: 0x8, addend: 0x0, symName: __ZNSt3__14moveB7v160006INS_16reverse_iteratorIPPN4crow9BlueprintEEES6_EET0_T_S8_S7_, symObjAddr: 0xA2AEC, symBinAddr: 0x1000AA8A0, symSize: 0x78 }
  - { offsetInCU: 0x88599, offset: 0x9DEA7, size: 0x8, addend: 0x0, symName: __ZNSt3__16__moveB7v160006INS_17_ClassicAlgPolicyENS_16reverse_iteratorIPPN4crow9BlueprintEEES7_S7_EENS_4pairIT0_T2_EES9_T1_SA_, symObjAddr: 0xA2B64, symBinAddr: 0x1000AA918, symSize: 0x64 }
  - { offsetInCU: 0x8860D, offset: 0x9DF1B, size: 0x8, addend: 0x0, symName: __ZNSt3__123__dispatch_copy_or_moveB7v160006INS_17_ClassicAlgPolicyENS_11__move_loopIS1_EENS_14__move_trivialENS_16reverse_iteratorIPPN4crow9BlueprintEEESA_SA_EENS_4pairIT2_T4_EESC_T3_SD_, symObjAddr: 0xA2BC8, symBinAddr: 0x1000AA97C, symSize: 0x64 }
  - { offsetInCU: 0x88693, offset: 0x9DFA1, size: 0x8, addend: 0x0, symName: __ZNSt3__121__unwrap_and_dispatchB7v160006INS_10__overloadINS_11__move_loopINS_17_ClassicAlgPolicyEEENS_14__move_trivialEEENS_16reverse_iteratorIPPN4crow9BlueprintEEESC_SC_Li0EEENS_4pairIT0_T2_EESE_T1_SF_, symObjAddr: 0xA2C2C, symBinAddr: 0x1000AA9E0, symSize: 0x12C }
  - { offsetInCU: 0x8872F, offset: 0x9E03D, size: 0x8, addend: 0x0, symName: __ZNSt3__114__unwrap_rangeB7v160006INS_16reverse_iteratorIPPN4crow9BlueprintEEES6_EEDaT_T0_, symObjAddr: 0xA2D58, symBinAddr: 0x1000AAB0C, symSize: 0x4C }
  - { offsetInCU: 0x88855, offset: 0x9E163, size: 0x8, addend: 0x0, symName: __ZNSt3__113__unwrap_iterB7v160006INS_16reverse_iteratorIPPN4crow9BlueprintEEENS_18__unwrap_iter_implIS6_Lb0EEELi0EEEDTclsrT0_8__unwrapclsr3stdE7declvalIT_EEEESA_, symObjAddr: 0xA2E44, symBinAddr: 0x1000AABF8, symSize: 0x44 }
  - { offsetInCU: 0x8889D, offset: 0x9E1AB, size: 0x8, addend: 0x0, symName: __ZNSt3__19make_pairB7v160006INS_16reverse_iteratorIPPN4crow9BlueprintEEES6_EENS_4pairINS_18__unwrap_ref_decayIT_E4typeENS8_IT0_E4typeEEEOS9_OSC_, symObjAddr: 0xA2E88, symBinAddr: 0x1000AAC3C, symSize: 0x38 }
  - { offsetInCU: 0x888EC, offset: 0x9E1FA, size: 0x8, addend: 0x0, symName: __ZNSt3__114__rewrap_rangeB7v160006INS_16reverse_iteratorIPPN4crow9BlueprintEEES6_S6_EET0_S7_T1_, symObjAddr: 0xA2EC0, symBinAddr: 0x1000AAC74, symSize: 0x5C }
  - { offsetInCU: 0x88947, offset: 0x9E255, size: 0x8, addend: 0x0, symName: __ZNSt3__113__rewrap_iterB7v160006INS_16reverse_iteratorIPPN4crow9BlueprintEEES6_NS_18__unwrap_iter_implIS6_Lb0EEEEET_S9_T0_, symObjAddr: 0xA2F1C, symBinAddr: 0x1000AACD0, symSize: 0x74 }
  - { offsetInCU: 0x88A6A, offset: 0x9E378, size: 0x8, addend: 0x0, symName: __ZNSt3__1neB7v160006IvJRKN4crow7requestERNS1_8responseEEEEbRKNS_8functionIFT_DpT0_EEEDn, symObjAddr: 0xA3498, symBinAddr: 0x1000AB24C, symSize: 0x2C }
  - { offsetInCU: 0x88ABA, offset: 0x9E3C8, size: 0x8, addend: 0x0, symName: __ZNSt3__1neB7v160006ERKNS_19__hash_map_iteratorINS_15__hash_iteratorIPNS_11__hash_nodeINS_17__hash_value_typeINS_12basic_stringIcNS_11char_traitsIcEENS_9allocatorIcEEEES9_EEPvEEEEEESH_, symObjAddr: 0xA634C, symBinAddr: 0x1000AE100, symSize: 0x30 }
  - { offsetInCU: 0x88AF8, offset: 0x9E406, size: 0x8, addend: 0x0, symName: __ZNSt3__119__debug_db_insert_cB7v160006INS_13unordered_mapIiNS_12basic_stringIcNS_11char_traitsIcEENS_9allocatorIcEEEENS_4hashIiEENS_8equal_toIiEENS5_INS_4pairIKiS7_EEEEEEEEvPT_, symObjAddr: 0xA6B50, symBinAddr: 0x1000AE904, symSize: 0x10 }
  - { offsetInCU: 0x88B2C, offset: 0x9E43A, size: 0x8, addend: 0x0, symName: __ZNSt3__17launderB7v160006IKNS_4pairIKiNS_12basic_stringIcNS_11char_traitsIcEENS_9allocatorIcEEEEEEEEPT_SC_, symObjAddr: 0xA7D48, symBinAddr: 0x1000AFAFC, symSize: 0x24 }
  - { offsetInCU: 0x88B63, offset: 0x9E471, size: 0x8, addend: 0x0, symName: __ZNSt3__19__launderB7v160006IKNS_4pairIKiNS_12basic_stringIcNS_11char_traitsIcEENS_9allocatorIcEEEEEEEEPT_SC_, symObjAddr: 0xA7D6C, symBinAddr: 0x1000AFB20, symSize: 0x14 }
  - { offsetInCU: 0x88C14, offset: 0x9E522, size: 0x8, addend: 0x0, symName: __ZNSt3__112construct_atB7v160006INS_4pairIKiNS_12basic_stringIcNS_11char_traitsIcEENS_9allocatorIcEEEEEEJRKS9_EPS9_EEPT_SE_DpOT0_, symObjAddr: 0xA80EC, symBinAddr: 0x1000AFEA0, symSize: 0x3C }
  - { offsetInCU: 0x88C8C, offset: 0x9E59A, size: 0x8, addend: 0x0, symName: __ZNSt3__17launderB7v160006INS_4pairIKiNS_12basic_stringIcNS_11char_traitsIcEENS_9allocatorIcEEEEEEEEPT_SB_, symObjAddr: 0xA81C8, symBinAddr: 0x1000AFF7C, symSize: 0x24 }
  - { offsetInCU: 0x88CC3, offset: 0x9E5D1, size: 0x8, addend: 0x0, symName: __ZNSt3__19__launderB7v160006INS_4pairIKiNS_12basic_stringIcNS_11char_traitsIcEENS_9allocatorIcEEEEEEEEPT_SB_, symObjAddr: 0xA81EC, symBinAddr: 0x1000AFFA0, symSize: 0x14 }
  - { offsetInCU: 0x88CFB, offset: 0x9E609, size: 0x8, addend: 0x0, symName: __ZNSt3__125__debug_db_invalidate_allB7v160006INS_12__hash_tableINS_17__hash_value_typeIiNS_12basic_stringIcNS_11char_traitsIcEENS_9allocatorIcEEEEEENS_22__unordered_map_hasherIiS9_NS_4hashIiEENS_8equal_toIiEELb1EEENS_21__unordered_map_equalIiS9_SE_SC_Lb1EEENS6_IS9_EEEEEEvPT_, symObjAddr: 0xA86BC, symBinAddr: 0x1000B0470, symSize: 0x10 }
  - { offsetInCU: 0x88D30, offset: 0x9E63E, size: 0x8, addend: 0x0, symName: __ZNSt3__110destroy_atB7v160006INS_4pairIKiNS_12basic_stringIcNS_11char_traitsIcEENS_9allocatorIcEEEEEELi0EEEvPT_, symObjAddr: 0xA8C18, symBinAddr: 0x1000B09CC, symSize: 0x24 }
  - { offsetInCU: 0x88D6B, offset: 0x9E679, size: 0x8, addend: 0x0, symName: __ZNSt3__112__destroy_atB7v160006INS_4pairIKiNS_12basic_stringIcNS_11char_traitsIcEENS_9allocatorIcEEEEEELi0EEEvPT_, symObjAddr: 0xA8C3C, symBinAddr: 0x1000B09F0, symSize: 0x24 }
  - { offsetInCU: 0x88DA6, offset: 0x9E6B4, size: 0x8, addend: 0x0, symName: __ZNSt3__118__debug_db_erase_cB7v160006INS_12__hash_tableINS_17__hash_value_typeIiNS_12basic_stringIcNS_11char_traitsIcEENS_9allocatorIcEEEEEENS_22__unordered_map_hasherIiS9_NS_4hashIiEENS_8equal_toIiEELb1EEENS_21__unordered_map_equalIiS9_SE_SC_Lb1EEENS6_IS9_EEEEEEvPT_, symObjAddr: 0xA8E00, symBinAddr: 0x1000B0BB4, symSize: 0x10 }
  - { offsetInCU: 0x88DDB, offset: 0x9E6E9, size: 0x8, addend: 0x0, symName: __ZNSt3__125__debug_db_invalidate_allB7v160006INS_6vectorIN4asio12const_bufferENS_9allocatorIS3_EEEEEEvPT_, symObjAddr: 0xA8FB8, symBinAddr: 0x1000B0D6C, symSize: 0x10 }
  - { offsetInCU: 0x88E0F, offset: 0x9E71D, size: 0x8, addend: 0x0, symName: __ZNSt3__119__allocate_at_leastB7v160006INS_9allocatorIN4asio12const_bufferEEEEENS_19__allocation_resultINS_16allocator_traitsIT_E7pointerEEERS7_m, symObjAddr: 0xA9364, symBinAddr: 0x1000B1118, symSize: 0x40 }
  - { offsetInCU: 0x88E58, offset: 0x9E766, size: 0x8, addend: 0x0, symName: __ZNSt3__142__uninitialized_allocator_move_if_noexceptB7v160006INS_9allocatorIN4asio12const_bufferEEENS_16reverse_iteratorIPS3_EES7_S3_vEET1_RT_T0_SB_S8_, symObjAddr: 0xA952C, symBinAddr: 0x1000B12E0, symSize: 0x78 }
  - { offsetInCU: 0x88ED6, offset: 0x9E7E4, size: 0x8, addend: 0x0, symName: __ZNSt3__14swapB7v160006IPN4asio12const_bufferEEENS_9enable_ifIXaasr21is_move_constructibleIT_EE5valuesr18is_move_assignableIS5_EE5valueEvE4typeERS5_S8_, symObjAddr: 0xA95F0, symBinAddr: 0x1000B13A4, symSize: 0x3C }
  - { offsetInCU: 0x88F2F, offset: 0x9E83D, size: 0x8, addend: 0x0, symName: __ZNSt3__14moveB7v160006INS_16reverse_iteratorIPN4asio12const_bufferEEES5_EET0_T_S7_S6_, symObjAddr: 0xA9700, symBinAddr: 0x1000B14B4, symSize: 0x78 }
  - { offsetInCU: 0x88F91, offset: 0x9E89F, size: 0x8, addend: 0x0, symName: __ZNSt3__16__moveB7v160006INS_17_ClassicAlgPolicyENS_16reverse_iteratorIPN4asio12const_bufferEEES6_S6_EENS_4pairIT0_T2_EES8_T1_S9_, symObjAddr: 0xA9778, symBinAddr: 0x1000B152C, symSize: 0x64 }
  - { offsetInCU: 0x89005, offset: 0x9E913, size: 0x8, addend: 0x0, symName: __ZNSt3__123__dispatch_copy_or_moveB7v160006INS_17_ClassicAlgPolicyENS_11__move_loopIS1_EENS_14__move_trivialENS_16reverse_iteratorIPN4asio12const_bufferEEES9_S9_EENS_4pairIT2_T4_EESB_T3_SC_, symObjAddr: 0xA97DC, symBinAddr: 0x1000B1590, symSize: 0x64 }
  - { offsetInCU: 0x8908B, offset: 0x9E999, size: 0x8, addend: 0x0, symName: __ZNSt3__121__unwrap_and_dispatchB7v160006INS_10__overloadINS_11__move_loopINS_17_ClassicAlgPolicyEEENS_14__move_trivialEEENS_16reverse_iteratorIPN4asio12const_bufferEEESB_SB_Li0EEENS_4pairIT0_T2_EESD_T1_SE_, symObjAddr: 0xA9840, symBinAddr: 0x1000B15F4, symSize: 0x12C }
  - { offsetInCU: 0x89127, offset: 0x9EA35, size: 0x8, addend: 0x0, symName: __ZNSt3__114__unwrap_rangeB7v160006INS_16reverse_iteratorIPN4asio12const_bufferEEES5_EEDaT_T0_, symObjAddr: 0xA996C, symBinAddr: 0x1000B1720, symSize: 0x4C }
  - { offsetInCU: 0x8924D, offset: 0x9EB5B, size: 0x8, addend: 0x0, symName: __ZNSt3__113__unwrap_iterB7v160006INS_16reverse_iteratorIPN4asio12const_bufferEEENS_18__unwrap_iter_implIS5_Lb0EEELi0EEEDTclsrT0_8__unwrapclsr3stdE7declvalIT_EEEES9_, symObjAddr: 0xA9A58, symBinAddr: 0x1000B180C, symSize: 0x44 }
  - { offsetInCU: 0x89295, offset: 0x9EBA3, size: 0x8, addend: 0x0, symName: __ZNSt3__19make_pairB7v160006INS_16reverse_iteratorIPN4asio12const_bufferEEES5_EENS_4pairINS_18__unwrap_ref_decayIT_E4typeENS7_IT0_E4typeEEEOS8_OSB_, symObjAddr: 0xA9A9C, symBinAddr: 0x1000B1850, symSize: 0x38 }
  - { offsetInCU: 0x892E4, offset: 0x9EBF2, size: 0x8, addend: 0x0, symName: __ZNSt3__114__rewrap_rangeB7v160006INS_16reverse_iteratorIPN4asio12const_bufferEEES5_S5_EET0_S6_T1_, symObjAddr: 0xA9AD4, symBinAddr: 0x1000B1888, symSize: 0x5C }
  - { offsetInCU: 0x8933F, offset: 0x9EC4D, size: 0x8, addend: 0x0, symName: __ZNSt3__113__rewrap_iterB7v160006INS_16reverse_iteratorIPN4asio12const_bufferEEES5_NS_18__unwrap_iter_implIS5_Lb0EEEEET_S8_T0_, symObjAddr: 0xA9B30, symBinAddr: 0x1000B18E4, symSize: 0x74 }
  - { offsetInCU: 0x893F0, offset: 0x9ECFE, size: 0x8, addend: 0x0, symName: __ZNSt3__1neB7v160006IPN4asio12const_bufferES3_EEbRKNS_16reverse_iteratorIT_EERKNS4_IT0_EE, symObjAddr: 0xA9C98, symBinAddr: 0x1000B1A4C, symSize: 0x48 }
  - { offsetInCU: 0x894AE, offset: 0x9EDBC, size: 0x8, addend: 0x0, symName: __ZNSt3__1neB7v160006ERKNS_21__hash_const_iteratorIPNS_11__hash_nodeINS_17__hash_value_typeIiNS_12basic_stringIcNS_11char_traitsIcEENS_9allocatorIcEEEEEEPvEEEESF_, symObjAddr: 0xAA0EC, symBinAddr: 0x1000B1EA0, symSize: 0x34 }
  - { offsetInCU: 0x894EB, offset: 0x9EDF9, size: 0x8, addend: 0x0, symName: __ZNSt3__1eqB7v160006ERKNS_21__hash_const_iteratorIPNS_11__hash_nodeINS_17__hash_value_typeIiNS_12basic_stringIcNS_11char_traitsIcEENS_9allocatorIcEEEEEEPvEEEESF_, symObjAddr: 0xAA30C, symBinAddr: 0x1000B20C0, symSize: 0x30 }
  - { offsetInCU: 0x895B7, offset: 0x9EEC5, size: 0x8, addend: 0x0, symName: __ZNSt3__112construct_atB7v160006IN4asio12const_bufferEJPcmEPS2_EEPT_S6_DpOT0_, symObjAddr: 0xAA964, symBinAddr: 0x1000B2718, symSize: 0x4C }
  - { offsetInCU: 0x89644, offset: 0x9EF52, size: 0x8, addend: 0x0, symName: __ZNSt3__116forward_as_tupleB7v160006IJRKiEEENS_5tupleIJDpOT_EEES6_, symObjAddr: 0xAAF84, symBinAddr: 0x1000B2D38, symSize: 0x2C }
  - { offsetInCU: 0x8967D, offset: 0x9EF8B, size: 0x8, addend: 0x0, symName: __ZNSt3__112construct_atB7v160006INS_4pairIKiNS_12basic_stringIcNS_11char_traitsIcEENS_9allocatorIcEEEEEEJRKNS_21piecewise_construct_tENS_5tupleIJRS2_EEENSD_IJEEEEPS9_EEPT_SJ_DpOT0_, symObjAddr: 0xAB140, symBinAddr: 0x1000B2EF4, symSize: 0x50 }
  - { offsetInCU: 0x8971F, offset: 0x9F02D, size: 0x8, addend: 0x0, symName: __ZNSt3__13getB7v160006ILm0EJRKiEEERNS_13tuple_elementIXT_ENS_5tupleIJDpT0_EEEE4typeERS7_, symObjAddr: 0xAB25C, symBinAddr: 0x1000B3010, symSize: 0x24 }
  - { offsetInCU: 0x897AC, offset: 0x9F0BA, size: 0x8, addend: 0x0, symName: __ZNSt3__112construct_atB7v160006IN4asio12const_bufferEJPKcmEPS2_EEPT_S7_DpOT0_, symObjAddr: 0xAB5BC, symBinAddr: 0x1000B3370, symSize: 0x4C }
  - { offsetInCU: 0x89839, offset: 0x9F147, size: 0x8, addend: 0x0, symName: __ZNSt3__122__make_exception_guardB7v160006INS_6vectorIN4asio12const_bufferENS_9allocatorIS3_EEE16__destroy_vectorEEENS_28__exception_guard_exceptionsIT_EES9_, symObjAddr: 0xAC2C8, symBinAddr: 0x1000B407C, symSize: 0x40 }
  - { offsetInCU: 0x8986E, offset: 0x9F17C, size: 0x8, addend: 0x0, symName: __ZNSt3__130__uninitialized_allocator_copyB7v160006INS_9allocatorIN4asio12const_bufferEEEPS3_S5_S5_EET2_RT_T0_T1_S6_, symObjAddr: 0xAC53C, symBinAddr: 0x1000B42F0, symSize: 0xF4 }
  - { offsetInCU: 0x8990C, offset: 0x9F21A, size: 0x8, addend: 0x0, symName: __ZNSt3__122__make_exception_guardB7v160006INS_29_AllocatorDestroyRangeReverseINS_9allocatorIN4asio12const_bufferEEEPS4_EEEENS_28__exception_guard_exceptionsIT_EES9_, symObjAddr: 0xAC630, symBinAddr: 0x1000B43E4, symSize: 0x4C }
  - { offsetInCU: 0x89942, offset: 0x9F250, size: 0x8, addend: 0x0, symName: __ZNSt3__112construct_atB7v160006IN4asio12const_bufferEJRS2_EPS2_EEPT_S6_DpOT0_, symObjAddr: 0xAC7D4, symBinAddr: 0x1000B4588, symSize: 0x2C }
  - { offsetInCU: 0x899BA, offset: 0x9F2C8, size: 0x8, addend: 0x0, symName: __ZNSt3__119__allocator_destroyB7v160006INS_9allocatorIN4asio12const_bufferEEENS_16reverse_iteratorIPS3_EES7_EEvRT_T0_T1_, symObjAddr: 0xAC8B8, symBinAddr: 0x1000B466C, symSize: 0x70 }
  - { offsetInCU: 0x89A1D, offset: 0x9F32B, size: 0x8, addend: 0x0, symName: __ZNSt3__112__to_addressB7v160006INS_16reverse_iteratorIPN4asio12const_bufferEEEvEENS_5decayIDTclsr19__to_address_helperIT_EE6__callclsr3stdE7declvalIRKS7_EEEEE4typeES9_, symObjAddr: 0xAC928, symBinAddr: 0x1000B46DC, symSize: 0x24 }
  - { offsetInCU: 0x89A7C, offset: 0x9F38A, size: 0x8, addend: 0x0, symName: __ZNSt3__14prevB7v160006IPN4asio12const_bufferEEENS_9enable_ifIXsr25__is_cpp17_input_iteratorIT_EE5valueES5_E4typeES5_NS_15iterator_traitsIS5_E15difference_typeE, symObjAddr: 0xAC9B0, symBinAddr: 0x1000B4764, symSize: 0x50 }
  - { offsetInCU: 0x89AC6, offset: 0x9F3D4, size: 0x8, addend: 0x0, symName: __ZNSt3__19__advanceB7v160006IPN4asio12const_bufferEEEvRT_NS_15iterator_traitsIS4_E15difference_typeENS_26random_access_iterator_tagE, symObjAddr: 0xACA50, symBinAddr: 0x1000B4804, symSize: 0x28 }
  - { offsetInCU: 0x89B0E, offset: 0x9F41C, size: 0x8, addend: 0x0, symName: __ZNSt3__1neB7v160006IPKN4asio12const_bufferEEEbRKNS_11__wrap_iterIT_EES9_, symObjAddr: 0xACB74, symBinAddr: 0x1000B4928, symSize: 0x34 }
  - { offsetInCU: 0x89B51, offset: 0x9F45F, size: 0x8, addend: 0x0, symName: __ZNSt3__1eqB7v160006IPKN4asio12const_bufferEEEbRKNS_11__wrap_iterIT_EES9_, symObjAddr: 0xACBF8, symBinAddr: 0x1000B49AC, symSize: 0x48 }
  - { offsetInCU: 0x89B94, offset: 0x9F4A2, size: 0x8, addend: 0x0, symName: __ZNSt3__19__advanceB7v160006INS_11__wrap_iterIPKN4asio12const_bufferEEEEEvRT_NS_15iterator_traitsIS7_E15difference_typeENS_26random_access_iterator_tagE, symObjAddr: 0xACFFC, symBinAddr: 0x1000B4DB0, symSize: 0x2C }
  - { offsetInCU: 0x89BDD, offset: 0x9F4EB, size: 0x8, addend: 0x0, symName: __ZNSt3__112construct_atB7v160006IN4asio12const_bufferEJEPS2_EEPT_S5_DpOT0_, symObjAddr: 0xADB30, symBinAddr: 0x1000B58E4, symSize: 0x34 }
  - { offsetInCU: 0x89C3F, offset: 0x9F54D, size: 0x8, addend: 0x0, symName: __ZNSt3__1lsB7v160006IcNS_11char_traitsIcEEEERNS_13basic_ostreamIT_T0_EES7_RKNS_10error_codeE, symObjAddr: 0xAE11C, symBinAddr: 0x1000B5ED0, symSize: 0x68 }
  - { offsetInCU: 0x89C8E, offset: 0x9F59C, size: 0x8, addend: 0x0, symName: __ZNSt3__14swapB7v160006INS_12basic_stringIcNS_11char_traitsIcEENS_9allocatorIcEEE5__repEEENS_9enable_ifIXaasr21is_move_constructibleIT_EE5valuesr18is_move_assignableIS9_EE5valueEvE4typeERS9_SC_, symObjAddr: 0xAE43C, symBinAddr: 0x1000B61F0, symSize: 0x54 }
  - { offsetInCU: 0x89CE8, offset: 0x9F5F6, size: 0x8, addend: 0x0, symName: __ZNSt3__116__swap_allocatorB7v160006INS_9allocatorIcEEEEvRT_S4_, symObjAddr: 0xAE490, symBinAddr: 0x1000B6244, symSize: 0x2C }
  - { offsetInCU: 0x89D2D, offset: 0x9F63B, size: 0x8, addend: 0x0, symName: __ZNSt3__116__swap_allocatorB7v160006INS_9allocatorIcEEEEvRT_S4_NS_17integral_constantIbLb0EEE, symObjAddr: 0xAE4BC, symBinAddr: 0x1000B6270, symSize: 0x14 }
  - { offsetInCU: 0x89D76, offset: 0x9F684, size: 0x8, addend: 0x0, symName: __ZNSt3__115__debug_db_swapB7v160006INS_6vectorIN4asio12const_bufferENS_9allocatorIS3_EEEEEEvPT_S8_, symObjAddr: 0xB0ABC, symBinAddr: 0x1000B8870, symSize: 0x14 }
  - { offsetInCU: 0x89DBA, offset: 0x9F6C8, size: 0x8, addend: 0x0, symName: __ZNSt3__112construct_atB7v160006IN4asio12const_bufferEJS2_EPS2_EEPT_S5_DpOT0_, symObjAddr: 0xB16C4, symBinAddr: 0x1000B9478, symSize: 0x2C }
  - { offsetInCU: 0x89EE2, offset: 0x9F7F0, size: 0x8, addend: 0x0, symName: __ZNSt3__116forward_as_tupleB7v160006IJZN4crow10ConnectionINS1_13SocketAdaptorENS1_4CrowIJEEEJEE6handleEvEUlvE_EEENS_5tupleIJDpOT_EEESB_, symObjAddr: 0xB49F4, symBinAddr: 0x1000BC7A8, symSize: 0x2C }
  - { offsetInCU: 0x89F1B, offset: 0x9F829, size: 0x8, addend: 0x0, symName: __ZNSt3__116forward_as_tupleB7v160006IJNS_9allocatorIZN4crow10ConnectionINS2_13SocketAdaptorENS2_4CrowIJEEEJEE6handleEvEUlvE_EEEEENS_5tupleIJDpOT_EEESD_, symObjAddr: 0xB4A20, symBinAddr: 0x1000BC7D4, symSize: 0x2C }
  - { offsetInCU: 0x89F82, offset: 0x9F890, size: 0x8, addend: 0x0, symName: __ZNSt3__13getB7v160006ILm0EJOZN4crow10ConnectionINS1_13SocketAdaptorENS1_4CrowIJEEEJEE6handleEvEUlvE_EEERNS_13tuple_elementIXT_ENS_5tupleIJDpT0_EEEE4typeERSD_, symObjAddr: 0xB4D8C, symBinAddr: 0x1000BCB40, symSize: 0x24 }
  - { offsetInCU: 0x89FC6, offset: 0x9F8D4, size: 0x8, addend: 0x0, symName: __ZNSt3__13getB7v160006ILm0EJONS_9allocatorIZN4crow10ConnectionINS2_13SocketAdaptorENS2_4CrowIJEEEJEE6handleEvEUlvE_EEEEERNS_13tuple_elementIXT_ENS_5tupleIJDpT0_EEEE4typeERSF_, symObjAddr: 0xB4DC8, symBinAddr: 0x1000BCB7C, symSize: 0x24 }
  - { offsetInCU: 0x8A4F9, offset: 0x9FE07, size: 0x8, addend: 0x0, symName: __ZNSt3__116forward_as_tupleB7v160006IJRKZN4crow10ConnectionINS1_13SocketAdaptorENS1_4CrowIJEEEJEE6handleEvEUlvE_EEENS_5tupleIJDpOT_EEESD_, symObjAddr: 0xB541C, symBinAddr: 0x1000BD1D0, symSize: 0x2C }
  - { offsetInCU: 0x8A549, offset: 0x9FE57, size: 0x8, addend: 0x0, symName: __ZNSt3__13getB7v160006ILm0EJRKZN4crow10ConnectionINS1_13SocketAdaptorENS1_4CrowIJEEEJEE6handleEvEUlvE_EEERNS_13tuple_elementIXT_ENS_5tupleIJDpT0_EEEE4typeERSE_, symObjAddr: 0xB560C, symBinAddr: 0x1000BD3C0, symSize: 0x24 }
  - { offsetInCU: 0x8A58D, offset: 0x9FE9B, size: 0x8, addend: 0x0, symName: __ZNSt3__116forward_as_tupleB7v160006IJRKNS_9allocatorIZN4crow10ConnectionINS2_13SocketAdaptorENS2_4CrowIJEEEJEE6handleEvEUlvE_EEEEENS_5tupleIJDpOT_EEESF_, symObjAddr: 0xB59D4, symBinAddr: 0x1000BD788, symSize: 0x2C }
  - { offsetInCU: 0x8A5DD, offset: 0x9FEEB, size: 0x8, addend: 0x0, symName: __ZNSt3__13getB7v160006ILm0EJRKNS_9allocatorIZN4crow10ConnectionINS2_13SocketAdaptorENS2_4CrowIJEEEJEE6handleEvEUlvE_EEEEERNS_13tuple_elementIXT_ENS_5tupleIJDpT0_EEEE4typeERSG_, symObjAddr: 0xB5BE0, symBinAddr: 0x1000BD994, symSize: 0x24 }
  - { offsetInCU: 0x8A661, offset: 0x9FF6F, size: 0x8, addend: 0x0, symName: __ZNSt3__18__invokeB7v160006IRZN4crow10ConnectionINS1_13SocketAdaptorENS1_4CrowIJEEEJEE6handleEvEUlvE_JEEEDTclclsr3stdE7declvalIT_EEspclsr3stdE7declvalIT0_EEEEOS9_DpOSA_, symObjAddr: 0xB5CB8, symBinAddr: 0x1000BDA6C, symSize: 0x28 }
  - { offsetInCU: 0x8A6A0, offset: 0x9FFAE, size: 0x8, addend: 0x0, symName: __ZNSt3__14swapB7v160006IPNS_10__function6__baseIFbvEEEEENS_9enable_ifIXaasr21is_move_constructibleIT_EE5valuesr18is_move_assignableIS7_EE5valueEvE4typeERS7_SA_, symObjAddr: 0xB603C, symBinAddr: 0x1000BDDF0, symSize: 0x3C }
  - { offsetInCU: 0x8A7A9, offset: 0xA00B7, size: 0x8, addend: 0x0, symName: __ZNSt3__116forward_as_tupleB7v160006IJZN4crow10ConnectionINS1_13SocketAdaptorENS1_4CrowIJEEEJEE6handleEvEUlvE0_EEENS_5tupleIJDpOT_EEESB_, symObjAddr: 0xB6988, symBinAddr: 0x1000BE73C, symSize: 0x2C }
  - { offsetInCU: 0x8A7E2, offset: 0xA00F0, size: 0x8, addend: 0x0, symName: __ZNSt3__116forward_as_tupleB7v160006IJNS_9allocatorIZN4crow10ConnectionINS2_13SocketAdaptorENS2_4CrowIJEEEJEE6handleEvEUlvE0_EEEEENS_5tupleIJDpOT_EEESD_, symObjAddr: 0xB69B4, symBinAddr: 0x1000BE768, symSize: 0x2C }
  - { offsetInCU: 0x8A849, offset: 0xA0157, size: 0x8, addend: 0x0, symName: __ZNSt3__13getB7v160006ILm0EJOZN4crow10ConnectionINS1_13SocketAdaptorENS1_4CrowIJEEEJEE6handleEvEUlvE0_EEERNS_13tuple_elementIXT_ENS_5tupleIJDpT0_EEEE4typeERSD_, symObjAddr: 0xB6D20, symBinAddr: 0x1000BEAD4, symSize: 0x24 }
  - { offsetInCU: 0x8A88D, offset: 0xA019B, size: 0x8, addend: 0x0, symName: __ZNSt3__13getB7v160006ILm0EJONS_9allocatorIZN4crow10ConnectionINS2_13SocketAdaptorENS2_4CrowIJEEEJEE6handleEvEUlvE0_EEEEERNS_13tuple_elementIXT_ENS_5tupleIJDpT0_EEEE4typeERSF_, symObjAddr: 0xB6D5C, symBinAddr: 0x1000BEB10, symSize: 0x24 }
  - { offsetInCU: 0x8ADC0, offset: 0xA06CE, size: 0x8, addend: 0x0, symName: __ZNSt3__116forward_as_tupleB7v160006IJRKZN4crow10ConnectionINS1_13SocketAdaptorENS1_4CrowIJEEEJEE6handleEvEUlvE0_EEENS_5tupleIJDpOT_EEESD_, symObjAddr: 0xB73B0, symBinAddr: 0x1000BF164, symSize: 0x2C }
  - { offsetInCU: 0x8AE10, offset: 0xA071E, size: 0x8, addend: 0x0, symName: __ZNSt3__13getB7v160006ILm0EJRKZN4crow10ConnectionINS1_13SocketAdaptorENS1_4CrowIJEEEJEE6handleEvEUlvE0_EEERNS_13tuple_elementIXT_ENS_5tupleIJDpT0_EEEE4typeERSE_, symObjAddr: 0xB75A0, symBinAddr: 0x1000BF354, symSize: 0x24 }
  - { offsetInCU: 0x8AE54, offset: 0xA0762, size: 0x8, addend: 0x0, symName: __ZNSt3__116forward_as_tupleB7v160006IJRKNS_9allocatorIZN4crow10ConnectionINS2_13SocketAdaptorENS2_4CrowIJEEEJEE6handleEvEUlvE0_EEEEENS_5tupleIJDpOT_EEESF_, symObjAddr: 0xB7968, symBinAddr: 0x1000BF71C, symSize: 0x2C }
  - { offsetInCU: 0x8AEA4, offset: 0xA07B2, size: 0x8, addend: 0x0, symName: __ZNSt3__13getB7v160006ILm0EJRKNS_9allocatorIZN4crow10ConnectionINS2_13SocketAdaptorENS2_4CrowIJEEEJEE6handleEvEUlvE0_EEEEERNS_13tuple_elementIXT_ENS_5tupleIJDpT0_EEEE4typeERSG_, symObjAddr: 0xB7B74, symBinAddr: 0x1000BF928, symSize: 0x24 }
  - { offsetInCU: 0x8AEE9, offset: 0xA07F7, size: 0x8, addend: 0x0, symName: __ZNSt3__18__invokeB7v160006IRZN4crow10ConnectionINS1_13SocketAdaptorENS1_4CrowIJEEEJEE6handleEvEUlvE0_JEEEDTclclsr3stdE7declvalIT_EEspclsr3stdE7declvalIT0_EEEEOS9_DpOSA_, symObjAddr: 0xB7C44, symBinAddr: 0x1000BF9F8, symSize: 0x24 }
  - { offsetInCU: 0x8AF24, offset: 0xA0832, size: 0x8, addend: 0x0, symName: __ZNSt3__1lsB7v160006IcNS_11char_traitsIcEEN4crow10ConnectionINS3_13SocketAdaptorENS3_4CrowIJEEEJEEEEERNS_13basic_ostreamIT_T0_EESD_RKNS_10shared_ptrIT1_EE, symObjAddr: 0xB8AD0, symBinAddr: 0x1000C0884, symSize: 0x3C }
  - { offsetInCU: 0x8AF7C, offset: 0xA088A, size: 0x8, addend: 0x0, symName: __ZNSt3__122__cxx_atomic_fetch_subB7v160006IjEET_PNS_22__cxx_atomic_base_implIS1_EES1_NS_12memory_orderE, symObjAddr: 0xB991C, symBinAddr: 0x1000C16D0, symSize: 0xD8 }
  - { offsetInCU: 0x8B3CE, offset: 0xA0CDC, size: 0x8, addend: 0x0, symName: __ZNSt3__114__thread_proxyB7v160006INS_5tupleIJNS_10unique_ptrINS_15__thread_structENS_14default_deleteIS3_EEEEZN4crow6ServerINS7_4CrowIJEEENS7_13SocketAdaptorEJEE3runEvEUlvE0_EEEEEPvSF_, symObjAddr: 0xBB2DC, symBinAddr: 0x1000C3090, symSize: 0x90 }
  - { offsetInCU: 0x8B430, offset: 0xA0D3E, size: 0x8, addend: 0x0, symName: __ZNSt3__13getB7v160006ILm0EJNS_10unique_ptrINS_15__thread_structENS_14default_deleteIS2_EEEEZN4crow6ServerINS6_4CrowIJEEENS6_13SocketAdaptorEJEE3runEvEUlvE0_EEERNS_13tuple_elementIXT_ENS_5tupleIJDpT0_EEEE4typeERSH_, symObjAddr: 0xBB5E0, symBinAddr: 0x1000C3394, symSize: 0x24 }
  - { offsetInCU: 0x8B478, offset: 0xA0D86, size: 0x8, addend: 0x0, symName: __ZNSt3__116__thread_executeB7v160006INS_10unique_ptrINS_15__thread_structENS_14default_deleteIS2_EEEEZN4crow6ServerINS6_4CrowIJEEENS6_13SocketAdaptorEJEE3runEvEUlvE0_JEJEEEvRNS_5tupleIJT_T0_DpT1_EEENS_15__tuple_indicesIJXspT2_EEEE, symObjAddr: 0xBB604, symBinAddr: 0x1000C33B8, symSize: 0x28 }
  - { offsetInCU: 0x8B4CB, offset: 0xA0DD9, size: 0x8, addend: 0x0, symName: __ZNSt3__18__invokeB7v160006IZN4crow6ServerINS1_4CrowIJEEENS1_13SocketAdaptorEJEE3runEvEUlvE0_JEEEDTclclsr3stdE7declvalIT_EEspclsr3stdE7declvalIT0_EEEEOS8_DpOS9_, symObjAddr: 0xBB62C, symBinAddr: 0x1000C33E0, symSize: 0x24 }
  - { offsetInCU: 0x8B506, offset: 0xA0E14, size: 0x8, addend: 0x0, symName: __ZNSt3__13getB7v160006ILm1EJNS_10unique_ptrINS_15__thread_structENS_14default_deleteIS2_EEEEZN4crow6ServerINS6_4CrowIJEEENS6_13SocketAdaptorEJEE3runEvEUlvE0_EEERNS_13tuple_elementIXT_ENS_5tupleIJDpT0_EEEE4typeERSH_, symObjAddr: 0xBB650, symBinAddr: 0x1000C3404, symSize: 0x28 }
  - { offsetInCU: 0x8B54F, offset: 0xA0E5D, size: 0x8, addend: 0x0, symName: __ZNSt3__118__debug_db_erase_cB7v160006INS_6vectorINS_6futureIvEENS_9allocatorIS3_EEEEEEvPT_, symObjAddr: 0xBBB00, symBinAddr: 0x1000C38B4, symSize: 0x10 }
  - { offsetInCU: 0x8DD72, offset: 0xA3680, size: 0x8, addend: 0x0, symName: __ZStneB7v160006RKSt13exception_ptrS1_, symObjAddr: 0x3FE18, symBinAddr: 0x100047F9C, symSize: 0x34 }
  - { offsetInCU: 0x8DDAC, offset: 0xA36BA, size: 0x8, addend: 0x0, symName: __ZSteqB7v160006RKSt13exception_ptrS1_, symObjAddr: 0x3FE80, symBinAddr: 0x100048004, symSize: 0x30 }
  - { offsetInCU: 0x8DE55, offset: 0xA3763, size: 0x8, addend: 0x0, symName: __ZSt18make_exception_ptrB7v160006IN4asio19multiple_exceptionsEESt13exception_ptrT_, symObjAddr: 0x5C820, symBinAddr: 0x1000645D4, symSize: 0x88 }
  - { offsetInCU: 0x8DFDB, offset: 0xA38E9, size: 0x8, addend: 0x0, symName: __ZN4asio5errorL15system_categoryE, symObjAddr: 0x5CB938, symBinAddr: 0x100114890, symSize: 0x0 }
  - { offsetInCU: 0x8DFF6, offset: 0xA3904, size: 0x8, addend: 0x0, symName: __ZN4asio5errorL14netdb_categoryE, symObjAddr: 0x5CB940, symBinAddr: 0x100114898, symSize: 0x0 }
  - { offsetInCU: 0x8E011, offset: 0xA391F, size: 0x8, addend: 0x0, symName: __ZN4asio5errorL17addrinfo_categoryE, symObjAddr: 0x5CB948, symBinAddr: 0x1001148A0, symSize: 0x0 }
  - { offsetInCU: 0x8E02C, offset: 0xA393A, size: 0x8, addend: 0x0, symName: __ZN4asio5errorL13misc_categoryE, symObjAddr: 0x5CB950, symBinAddr: 0x1001148A8, symSize: 0x0 }
  - { offsetInCU: 0x8E039, offset: 0xA3947, size: 0x8, addend: 0x0, symName: __ZN4asio5error18get_netdb_categoryEv, symObjAddr: 0x48, symBinAddr: 0x10000AF94, symSize: 0x84 }
  - { offsetInCU: 0x8E062, offset: 0xA3970, size: 0x8, addend: 0x0, symName: __ZZN4asio5error18get_netdb_categoryEvE8instance, symObjAddr: 0xC5138, symBinAddr: 0x1001140B0, symSize: 0x0 }
  - { offsetInCU: 0x8E1B1, offset: 0xA3ABF, size: 0x8, addend: 0x0, symName: __ZN4asio5error21get_addrinfo_categoryEv, symObjAddr: 0xCC, symBinAddr: 0x10000B018, symSize: 0x84 }
  - { offsetInCU: 0x8E1DA, offset: 0xA3AE8, size: 0x8, addend: 0x0, symName: __ZZN4asio5error21get_addrinfo_categoryEvE8instance, symObjAddr: 0xC5148, symBinAddr: 0x1001140C0, symSize: 0x0 }
  - { offsetInCU: 0x8E1E5, offset: 0xA3AF3, size: 0x8, addend: 0x0, symName: __ZN4asio5error17get_misc_categoryEv, symObjAddr: 0x150, symBinAddr: 0x10000B09C, symSize: 0x84 }
  - { offsetInCU: 0x8E20E, offset: 0xA3B1C, size: 0x8, addend: 0x0, symName: __ZZN4asio5error17get_misc_categoryEvE8instance, symObjAddr: 0xC5158, symBinAddr: 0x1001140D0, symSize: 0x0 }
  - { offsetInCU: 0x8E318, offset: 0xA3C26, size: 0x8, addend: 0x0, symName: __ZN4asio5error19get_system_categoryEv, symObjAddr: 0x34, symBinAddr: 0x10000AF80, symSize: 0x14 }
  - { offsetInCU: 0x8E336, offset: 0xA3C44, size: 0x8, addend: 0x0, symName: __ZN4asio5error15make_error_codeENS0_12basic_errorsE, symObjAddr: 0x722C, symBinAddr: 0x100011488, symSize: 0x40 }
  - { offsetInCU: 0x8E364, offset: 0xA3C72, size: 0x8, addend: 0x0, symName: __ZN4asio5error5clearERNSt3__110error_codeE, symObjAddr: 0x96D0, symBinAddr: 0x100013924, symSize: 0x3C }
  - { offsetInCU: 0x8E38E, offset: 0xA3C9C, size: 0x8, addend: 0x0, symName: __ZN4asio5error15make_error_codeENS0_11misc_errorsE, symObjAddr: 0x63074, symBinAddr: 0x10006AE28, symSize: 0x40 }
  - { offsetInCU: 0x8E3D4, offset: 0xA3CE2, size: 0x8, addend: 0x0, symName: __ZN4asio6detail10call_stackINS0_14thread_contextENS0_16thread_info_baseEE4top_E, symObjAddr: 0xC5088, symBinAddr: 0x100114000, symSize: 0x0 }
  - { offsetInCU: 0x8E828, offset: 0xA4136, size: 0x8, addend: 0x0, symName: __ZN4asio6detail30execution_context_service_baseINS0_9schedulerEE2idE, symObjAddr: 0xC5098, symBinAddr: 0x100114010, symSize: 0x0 }
  - { offsetInCU: 0x8F967, offset: 0xA5275, size: 0x8, addend: 0x0, symName: __ZN4asio6detail30execution_context_service_baseINS0_14kqueue_reactorEE2idE, symObjAddr: 0xC50A8, symBinAddr: 0x100114020, symSize: 0x0 }
  - { offsetInCU: 0x903D3, offset: 0xA5CE1, size: 0x8, addend: 0x0, symName: __ZN4asio6detail10call_stackINS0_14strand_service11strand_implEhE4top_E, symObjAddr: 0xC50B8, symBinAddr: 0x100114030, symSize: 0x0 }
  - { offsetInCU: 0x9086D, offset: 0xA617B, size: 0x8, addend: 0x0, symName: __ZN4asio6detail12service_baseINS0_14strand_serviceEE2idE, symObjAddr: 0xC50C8, symBinAddr: 0x100114040, symSize: 0x0 }
  - { offsetInCU: 0x90880, offset: 0xA618E, size: 0x8, addend: 0x0, symName: __ZN4asio6detail10call_stackINS0_23strand_executor_service11strand_implEhE4top_E, symObjAddr: 0xC50D8, symBinAddr: 0x100114050, symSize: 0x0 }
  - { offsetInCU: 0x90CA5, offset: 0xA65B3, size: 0x8, addend: 0x0, symName: __ZN4asio6detail17posix_global_implINS_14system_contextEE9instance_E, symObjAddr: 0xC50E8, symBinAddr: 0x100114060, symSize: 0x0 }
  - { offsetInCU: 0x90D99, offset: 0xA66A7, size: 0x8, addend: 0x0, symName: __ZN4asio6detail30execution_context_service_baseINS0_23reactive_socket_serviceINS_2ip3tcpEEEE2idE, symObjAddr: 0xC50F8, symBinAddr: 0x100114070, symSize: 0x0 }
  - { offsetInCU: 0x91714, offset: 0xA7022, size: 0x8, addend: 0x0, symName: __ZN4asio6detail10socket_ops5closeEiRhbRNSt3__110error_codeE, symObjAddr: 0x9050, symBinAddr: 0x1000132A4, symSize: 0x1CC }
  - { offsetInCU: 0x917C8, offset: 0xA70D6, size: 0x8, addend: 0x0, symName: __ZN4asio6detail10socket_ops10setsockoptEiRhiiPKvmRNSt3__110error_codeE, symObjAddr: 0x9350, symBinAddr: 0x1000135A4, symSize: 0x250 }
  - { offsetInCU: 0x9185F, offset: 0xA716D, size: 0x8, addend: 0x0, symName: __ZN4asio6detail10socket_ops14get_last_errorERNSt3__110error_codeEb, symObjAddr: 0x95A0, symBinAddr: 0x1000137F4, symSize: 0x70 }
  - { offsetInCU: 0x91895, offset: 0xA71A3, size: 0x8, addend: 0x0, symName: __ZN4asio6detail10socket_ops15call_setsockoptIjEEiM6msghdrT_iiiPKvm, symObjAddr: 0x970C, symBinAddr: 0x100013960, symSize: 0x4C }
  - { offsetInCU: 0x91914, offset: 0xA7222, size: 0x8, addend: 0x0, symName: __ZN4asio6detail10socket_ops9inet_ptonEiPKcPvPmRNSt3__110error_codeE, symObjAddr: 0x59F70, symBinAddr: 0x100061D24, symSize: 0x310 }
  - { offsetInCU: 0x91A2B, offset: 0xA7339, size: 0x8, addend: 0x0, symName: __ZN4asio6detail10socket_ops16clear_last_errorEv, symObjAddr: 0x5A308, symBinAddr: 0x1000620BC, symSize: 0x18 }
  - { offsetInCU: 0x91A44, offset: 0xA7352, size: 0x8, addend: 0x0, symName: __ZN4asio6detail10socket_ops21host_to_network_shortEt, symObjAddr: 0x5A838, symBinAddr: 0x1000625EC, symSize: 0x38 }
  - { offsetInCU: 0x91A72, offset: 0xA7380, size: 0x8, addend: 0x0, symName: __ZN4asio6detail10socket_ops20host_to_network_longEj, symObjAddr: 0x5A870, symBinAddr: 0x100062624, symSize: 0x34 }
  - { offsetInCU: 0x91AA0, offset: 0xA73AE, size: 0x8, addend: 0x0, symName: __ZN4asio6detail10socket_ops20network_to_host_longEj, symObjAddr: 0x5AD38, symBinAddr: 0x100062AEC, symSize: 0x34 }
  - { offsetInCU: 0x91ACE, offset: 0xA73DC, size: 0x8, addend: 0x0, symName: __ZN4asio6detail10socket_ops6socketEiiiRNSt3__110error_codeE, symObjAddr: 0x62E64, symBinAddr: 0x10006AC18, symSize: 0xE8 }
  - { offsetInCU: 0x91B56, offset: 0xA7464, size: 0x8, addend: 0x0, symName: __ZN4asio6detail10socket_ops4bindEiPKvmRNSt3__110error_codeE, symObjAddr: 0x63598, symBinAddr: 0x10006B34C, symSize: 0x94 }
  - { offsetInCU: 0x91BC0, offset: 0xA74CE, size: 0x8, addend: 0x0, symName: __ZN4asio6detail10socket_ops9call_bindIjEEiM6msghdrT_iPKvm, symObjAddr: 0x63674, symBinAddr: 0x10006B428, symSize: 0x3C }
  - { offsetInCU: 0x91C21, offset: 0xA752F, size: 0x8, addend: 0x0, symName: __ZN4asio6detail10socket_ops6listenEiiRNSt3__110error_codeE, symObjAddr: 0x6370C, symBinAddr: 0x10006B4C0, symSize: 0x88 }
  - { offsetInCU: 0x91C7C, offset: 0xA758A, size: 0x8, addend: 0x0, symName: __ZN4asio6detail10socket_ops11getsocknameEiPvPmRNSt3__110error_codeE, symObjAddr: 0x7EC94, symBinAddr: 0x100086A48, symSize: 0x94 }
  - { offsetInCU: 0x91CE6, offset: 0xA75F4, size: 0x8, addend: 0x0, symName: __ZN4asio6detail10socket_ops16call_getsocknameIjEEiM6msghdrT_iPvPm, symObjAddr: 0x7EDC0, symBinAddr: 0x100086B74, symSize: 0x58 }
  - { offsetInCU: 0x91D65, offset: 0xA7673, size: 0x8, addend: 0x0, symName: __ZN4asio6detail10socket_ops21network_to_host_shortEt, symObjAddr: 0x7EF8C, symBinAddr: 0x100086D40, symSize: 0x38 }
  - { offsetInCU: 0x91D93, offset: 0xA76A1, size: 0x8, addend: 0x0, symName: __ZN4asio6detail10socket_ops8shutdownEiiRNSt3__110error_codeE, symObjAddr: 0x8B444, symBinAddr: 0x1000931F8, symSize: 0x88 }
  - { offsetInCU: 0x91DEE, offset: 0xA76FC, size: 0x8, addend: 0x0, symName: __ZN4asio6detail10socket_ops9sync_sendEihPK5iovecmibRNSt3__110error_codeE, symObjAddr: 0xAD14C, symBinAddr: 0x1000B4F00, symSize: 0x1B0 }
  - { offsetInCU: 0x91E93, offset: 0xA77A1, size: 0x8, addend: 0x0, symName: __ZN4asio6detail10socket_ops4sendEiPK5iovecmiRNSt3__110error_codeE, symObjAddr: 0xAD598, symBinAddr: 0x1000B534C, symSize: 0x80 }
  - { offsetInCU: 0x91F1B, offset: 0xA7829, size: 0x8, addend: 0x0, symName: __ZN4asio6detail10socket_ops10poll_writeEihiRNSt3__110error_codeE, symObjAddr: 0xAD618, symBinAddr: 0x1000B53CC, symSize: 0x114 }
  - { offsetInCU: 0x91FA3, offset: 0xA78B1, size: 0x8, addend: 0x0, symName: __ZN4asio6detail10socket_ops17non_blocking_sendEiPK5iovecmiRNSt3__110error_codeERm, symObjAddr: 0xB074C, symBinAddr: 0x1000B8500, symSize: 0x164 }
  - { offsetInCU: 0x92039, offset: 0xA7947, size: 0x8, addend: 0x0, symName: __ZN4asio6detail10socket_ops25set_internal_non_blockingEiRhbRNSt3__110error_codeE, symObjAddr: 0xB0C60, symBinAddr: 0x1000B8A14, symSize: 0x170 }
  - { offsetInCU: 0x920B2, offset: 0xA79C0, size: 0x8, addend: 0x0, symName: __ZN4asio6detail10socket_ops11getpeernameEiPvPmbRNSt3__110error_codeE, symObjAddr: 0xB2BA4, symBinAddr: 0x1000BA958, symSize: 0xA0 }
  - { offsetInCU: 0x9212B, offset: 0xA7A39, size: 0x8, addend: 0x0, symName: __ZN4asio6detail10socket_ops16call_getpeernameIjEEiM6msghdrT_iPvPm, symObjAddr: 0xB2C44, symBinAddr: 0x1000BA9F8, symSize: 0x58 }
  - { offsetInCU: 0x921AA, offset: 0xA7AB8, size: 0x8, addend: 0x0, symName: __ZN4asio6detail10socket_ops9inet_ntopEiPKvPcmmRNSt3__110error_codeE, symObjAddr: 0xB2F58, symBinAddr: 0x1000BAD0C, symSize: 0x240 }
  - { offsetInCU: 0x92285, offset: 0xA7B93, size: 0x8, addend: 0x0, symName: __ZN4asio6detail10socket_ops18non_blocking_recv1EiPvmibRNSt3__110error_codeERm, symObjAddr: 0xB9488, symBinAddr: 0x1000C123C, symSize: 0x1AC }
  - { offsetInCU: 0x9232A, offset: 0xA7C38, size: 0x8, addend: 0x0, symName: __ZN4asio6detail10socket_ops5recv1EiPvmiRNSt3__110error_codeE, symObjAddr: 0xB9658, symBinAddr: 0x1000C140C, symSize: 0x60 }
  - { offsetInCU: 0x923A3, offset: 0xA7CB1, size: 0x8, addend: 0x0, symName: __ZN4asio6detail10socket_ops19non_blocking_acceptEihPvPmRNSt3__110error_codeERi, symObjAddr: 0xBA364, symBinAddr: 0x1000C2118, symSize: 0x200 }
  - { offsetInCU: 0x92415, offset: 0xA7D23, size: 0x8, addend: 0x0, symName: __ZN4asio6detail10socket_ops6acceptEiPvPmRNSt3__110error_codeE, symObjAddr: 0xBA59C, symBinAddr: 0x1000C2350, symSize: 0x120 }
  - { offsetInCU: 0x92495, offset: 0xA7DA3, size: 0x8, addend: 0x0, symName: __ZN4asio6detail10socket_ops11call_acceptIjEEiM6msghdrT_iPvPm, symObjAddr: 0xBA6BC, symBinAddr: 0x1000C2470, symSize: 0xD8 }
  - { offsetInCU: 0x92583, offset: 0xA7E91, size: 0x8, addend: 0x0, symName: __ZN4asio6detail30execution_context_service_baseINS0_22deadline_timer_serviceINS0_18chrono_time_traitsINSt3__16chrono12steady_clockENS_11wait_traitsIS6_EEEEEEE2idE, symObjAddr: 0xC5108, symBinAddr: 0x100114080, symSize: 0x0 }
  - { offsetInCU: 0x92F3F, offset: 0xA884D, size: 0x8, addend: 0x0, symName: __ZN4asio6detail30execution_context_service_baseINS0_18signal_set_serviceEE2idE, symObjAddr: 0xC5118, symBinAddr: 0x100114090, symSize: 0x0 }
  - { offsetInCU: 0x93564, offset: 0xA8E72, size: 0x8, addend: 0x0, symName: __ZN4asio6detail16get_signal_stateEv, symObjAddr: 0x8894, symBinAddr: 0x100012AE8, symSize: 0xC }
  - { offsetInCU: 0x9358D, offset: 0xA8E9B, size: 0x8, addend: 0x0, symName: __ZZN4asio6detail16get_signal_stateEvE5state, symObjAddr: 0xC5168, symBinAddr: 0x1001140E0, symSize: 0x0 }
  - { offsetInCU: 0x936C1, offset: 0xA8FCF, size: 0x8, addend: 0x0, symName: __ZN4asio6detail17posix_global_implINS_14system_contextEE11static_ptr_E, symObjAddr: 0xC5340, symBinAddr: 0x1001142B8, symSize: 0x0 }
  - { offsetInCU: 0x96FB4, offset: 0xAC8C2, size: 0x8, addend: 0x0, symName: __ZN4asio6detail20posix_tss_ptr_createERm, symObjAddr: 0xD068, symBinAddr: 0x1000172BC, symSize: 0x5C }
  - { offsetInCU: 0x96FF9, offset: 0xAC907, size: 0x8, addend: 0x0, symName: __ZN4asio6detail11throw_errorERKNSt3__110error_codeEPKc, symObjAddr: 0xD0C4, symBinAddr: 0x100017318, symSize: 0x40 }
  - { offsetInCU: 0x97035, offset: 0xAC943, size: 0x8, addend: 0x0, symName: __ZN4asio6detail14do_throw_errorERKNSt3__110error_codeEPKc, symObjAddr: 0xD128, symBinAddr: 0x10001737C, symSize: 0x78 }
  - { offsetInCU: 0x97081, offset: 0xAC98F, size: 0x8, addend: 0x0, symName: __ZN4asio6detail15throw_exceptionINSt3__112system_errorEEEvRKT_, symObjAddr: 0xD1A0, symBinAddr: 0x1000173F4, symSize: 0x3C }
  - { offsetInCU: 0x97191, offset: 0xACA9F, size: 0x8, addend: 0x0, symName: __ZN4asio6detail15throw_exceptionINS_21invalid_service_ownerEEEvRKT_, symObjAddr: 0x54CF8, symBinAddr: 0x10005CAAC, symSize: 0x3C }
  - { offsetInCU: 0x971C6, offset: 0xACAD4, size: 0x8, addend: 0x0, symName: __ZN4asio6detail15throw_exceptionINS_22service_already_existsEEEvRKT_, symObjAddr: 0x54EC8, symBinAddr: 0x10005CC7C, symSize: 0x3C }
  - { offsetInCU: 0x971FB, offset: 0xACB09, size: 0x8, addend: 0x0, symName: __ZN4asio6detail11throw_errorERKNSt3__110error_codeE, symObjAddr: 0x55B7C, symBinAddr: 0x10005D930, symSize: 0x38 }
  - { offsetInCU: 0x97227, offset: 0xACB35, size: 0x8, addend: 0x0, symName: __ZN4asio6detail14do_throw_errorERKNSt3__110error_codeE, symObjAddr: 0x56A6C, symBinAddr: 0x10005E820, symSize: 0x70 }
  - { offsetInCU: 0x972D8, offset: 0xACBE6, size: 0x8, addend: 0x0, symName: __ZN4asio6detail9incrementERNSt3__16atomicIlEEl, symObjAddr: 0x591E0, symBinAddr: 0x100060F94, symSize: 0x2C }
  - { offsetInCU: 0x97383, offset: 0xACC91, size: 0x8, addend: 0x0, symName: __ZN4asio6detail15throw_exceptionINS_2ip16bad_address_castEEEvRKT_, symObjAddr: 0x5AB24, symBinAddr: 0x1000628D8, symSize: 0x3C }
  - { offsetInCU: 0x97571, offset: 0xACE7F, size: 0x8, addend: 0x0, symName: __ZN4asio6detail15throw_exceptionINS_9execution12bad_executorEEEvRKT_, symObjAddr: 0x5E878, symBinAddr: 0x10006662C, symSize: 0x3C }
  - { offsetInCU: 0x9770A, offset: 0xAD018, size: 0x8, addend: 0x0, symName: __ZN4asio6detail15throw_exceptionISt11logic_errorEEvRKT_, symObjAddr: 0x643EC, symBinAddr: 0x10006C1A0, symSize: 0x3C }
  - { offsetInCU: 0x97BB4, offset: 0xAD4C2, size: 0x8, addend: 0x0, symName: __ZN4asio6detail19asio_handler_invokeINS0_7binder1INSt3__16__bindIMN4crow6detail10task_timerEFvRKNS3_10error_codeEEJPS7_RKNS3_12placeholders4__phILi1EEEEEES8_EESJ_S8_EEvRT_PNS2_IT0_T1_EE, symObjAddr: 0x74634, symBinAddr: 0x10007C3E8, symSize: 0x2C }
  - { offsetInCU: 0x9825D, offset: 0xADB6B, size: 0x8, addend: 0x0, symName: __ZN4asio6detail19asio_handler_invokeINS0_7binder1IZN4crow6ServerINS3_4CrowIJEEENS3_13SocketAdaptorEJEE7on_tickEvEUlRKNSt3__110error_codeEE_SA_EESD_SA_EEvRT_PNS2_IT0_T1_EE, symObjAddr: 0x7E2D4, symBinAddr: 0x100086088, symSize: 0x2C }
  - { offsetInCU: 0x98373, offset: 0xADC81, size: 0x8, addend: 0x0, symName: __ZN4asio6detail19asio_handler_invokeINS0_7binder1IZN4crow6ServerINS3_4CrowIJEEENS3_13SocketAdaptorEJEE3runEvEUlRKNSt3__110error_codeEE_SA_EESD_SA_EEvRT_PNS2_IT0_T1_EE, symObjAddr: 0x7EA8C, symBinAddr: 0x100086840, symSize: 0x2C }
  - { offsetInCU: 0x986EA, offset: 0xADFF8, size: 0x8, addend: 0x0, symName: __ZN4asio6detail19asio_handler_invokeINS0_7binder2IZN4crow6ServerINS3_4CrowIJEEENS3_13SocketAdaptorEJEE3runEvEUlRKNSt3__110error_codeEiE_SA_iEESD_SA_iEEvRT_PNS2_IT0_T1_T2_EE, symObjAddr: 0x80930, symBinAddr: 0x1000886E4, symSize: 0x2C }
  - { offsetInCU: 0x99039, offset: 0xAE947, size: 0x8, addend: 0x0, symName: __ZN4asio6detail5writeINS_19basic_stream_socketINS_2ip3tcpENS_15any_io_executorEEENSt3__16vectorINS_12const_bufferENS7_9allocatorIS9_EEEENS7_11__wrap_iterIPKS9_EENS0_14transfer_all_tEEEmRT_RKT0_RKT1_T2_RNS7_10error_codeE, symObjAddr: 0xABA90, symBinAddr: 0x1000B3844, symSize: 0x158 }
  - { offsetInCU: 0x990E1, offset: 0xAE9EF, size: 0x8, addend: 0x0, symName: __ZN4asio6detail33adapt_completion_condition_resultEm, symObjAddr: 0xABC74, symBinAddr: 0x1000B3A28, symSize: 0x14 }
  - { offsetInCU: 0x9910D, offset: 0xAEA1B, size: 0x8, addend: 0x0, symName: __ZN4asio6detail11buffer_sizeINSt3__111__wrap_iterIPKNS_12const_bufferEEEEEmNS0_16multiple_buffersET_S9_, symObjAddr: 0xACAC8, symBinAddr: 0x1000B487C, symSize: 0x7C }
  - { offsetInCU: 0x99307, offset: 0xAEC15, size: 0x8, addend: 0x0, symName: __ZN4asio6detail5writeINS_19basic_stream_socketINS_2ip3tcpENS_15any_io_executorEEENSt3__16vectorINS_12const_bufferENS7_9allocatorIS9_EEEENS7_11__wrap_iterIPKS9_EEZN4crow10ConnectionINSH_13SocketAdaptorENSH_4CrowIJEEEJEE13do_write_syncERSC_EUlNS7_10error_codeEmE_EEmRT_RKT0_RKT1_T2_RSO_, symObjAddr: 0xADD64, symBinAddr: 0x1000B5B18, symSize: 0x158 }
  - { offsetInCU: 0x993AF, offset: 0xAECBD, size: 0x8, addend: 0x0, symName: __ZN4asio6detail33adapt_completion_condition_resultEb, symObjAddr: 0xADEBC, symBinAddr: 0x1000B5C70, symSize: 0x38 }
  - { offsetInCU: 0x9952F, offset: 0xAEE3D, size: 0x8, addend: 0x0, symName: __ZN4asio6detail14start_write_opINS_19basic_stream_socketINS_2ip3tcpENS_15any_io_executorEEENSt3__16vectorINS_12const_bufferENS7_9allocatorIS9_EEEENS7_11__wrap_iterIPKS9_EENS0_14transfer_all_tEZN4crow10ConnectionINSI_13SocketAdaptorENSI_4CrowIJEEEJEE8do_writeEvEUlRKNS7_10error_codeEmE_EEvRT_RKT0_RKT1_RT2_RT3_, symObjAddr: 0xAE6F8, symBinAddr: 0x1000B64AC, symSize: 0x98 }
  - { offsetInCU: 0x996DC, offset: 0xAEFEA, size: 0x8, addend: 0x0, symName: __ZN4asio6detail28asio_handler_is_continuationINS_19basic_stream_socketINS_2ip3tcpENS_15any_io_executorEEENSt3__16vectorINS_12const_bufferENS7_9allocatorIS9_EEEENS7_11__wrap_iterIPKS9_EENS0_14transfer_all_tEZN4crow10ConnectionINSI_13SocketAdaptorENSI_4CrowIJEEEJEE8do_writeEvEUlRKNS7_10error_codeEmE_EEbPNS0_8write_opIT_T0_T1_T2_T3_EE, symObjAddr: 0xAF29C, symBinAddr: 0x1000B7050, symSize: 0x5C }
  - { offsetInCU: 0x9988F, offset: 0xAF19D, size: 0x8, addend: 0x0, symName: __ZN4asio6detail21asio_handler_allocateINS_19basic_stream_socketINS_2ip3tcpENS_15any_io_executorEEENSt3__16vectorINS_12const_bufferENS7_9allocatorIS9_EEEENS7_11__wrap_iterIPKS9_EENS0_14transfer_all_tEZN4crow10ConnectionINSI_13SocketAdaptorENSI_4CrowIJEEEJEE8do_writeEvEUlRKNS7_10error_codeEmE_EEPvmPNS0_8write_opIT_T0_T1_T2_T3_EE, symObjAddr: 0xAF52C, symBinAddr: 0x1000B72E0, symSize: 0x34 }
  - { offsetInCU: 0x998F9, offset: 0xAF207, size: 0x8, addend: 0x0, symName: __ZN4asio6detail23asio_handler_deallocateINS_19basic_stream_socketINS_2ip3tcpENS_15any_io_executorEEENSt3__16vectorINS_12const_bufferENS7_9allocatorIS9_EEEENS7_11__wrap_iterIPKS9_EENS0_14transfer_all_tEZN4crow10ConnectionINSI_13SocketAdaptorENSI_4CrowIJEEEJEE8do_writeEvEUlRKNS7_10error_codeEmE_EEvPvmPNS0_8write_opIT_T0_T1_T2_T3_EE, symObjAddr: 0xAFC58, symBinAddr: 0x1000B7A0C, symSize: 0x38 }
  - { offsetInCU: 0x99972, offset: 0xAF280, size: 0x8, addend: 0x0, symName: __ZN4asio6detail19asio_handler_invokeINS0_7binder2INS0_8write_opINS_19basic_stream_socketINS_2ip3tcpENS_15any_io_executorEEENSt3__16vectorINS_12const_bufferENS9_9allocatorISB_EEEENS9_11__wrap_iterIPKSB_EENS0_14transfer_all_tEZN4crow10ConnectionINSK_13SocketAdaptorENSK_4CrowIJEEEJEE8do_writeEvEUlRKNS9_10error_codeEmE_EESQ_mEES8_SE_SI_SJ_ST_EEvRT_PNS3_IT0_T1_T2_T3_T4_EE, symObjAddr: 0xAFD30, symBinAddr: 0x1000B7AE4, symSize: 0x30 }
  - { offsetInCU: 0x99AA1, offset: 0xAF3AF, size: 0x8, addend: 0x0, symName: __ZN4asio6detail19asio_handler_invokeINS0_7binder2INS0_8write_opINS_19basic_stream_socketINS_2ip3tcpENS_15any_io_executorEEENSt3__16vectorINS_12const_bufferENS9_9allocatorISB_EEEENS9_11__wrap_iterIPKSB_EENS0_14transfer_all_tEZN4crow10ConnectionINSK_13SocketAdaptorENSK_4CrowIJEEEJEE8do_writeEvEUlRKNS9_10error_codeEmE_EESQ_mEESU_SQ_mEEvRT_PNS2_IT0_T1_T2_EE, symObjAddr: 0xB0588, symBinAddr: 0x1000B833C, symSize: 0x2C }
  - { offsetInCU: 0x99BC3, offset: 0xAF4D1, size: 0x8, addend: 0x0, symName: __ZN4asio6detail19asio_handler_invokeINS0_7binder2IZN4crow10ConnectionINS3_13SocketAdaptorENS3_4CrowIJEEEJEE7do_readEvEUlRKNSt3__110error_codeEmE_SA_mEESD_SA_mEEvRT_PNS2_IT0_T1_T2_EE, symObjAddr: 0xB92A8, symBinAddr: 0x1000C105C, symSize: 0x2C }
  - { offsetInCU: 0x99CE4, offset: 0xAF5F2, size: 0x8, addend: 0x0, symName: __ZN4asio6detail19asio_handler_invokeINS0_7binder1IZN4crow6ServerINS3_4CrowIJEEENS3_13SocketAdaptorEJEE9do_acceptEvEUlNSt3__110error_codeEE_SA_EESB_SA_EEvRT_PNS2_IT0_T1_EE, symObjAddr: 0xBA180, symBinAddr: 0x1000C1F34, symSize: 0x2C }
  - { offsetInCU: 0x9D881, offset: 0xB318F, size: 0x8, addend: 0x0, symName: __ZN4asio9execution6detail10blocking_tILi0EE5neverE, symObjAddr: 0xC8478, symBinAddr: 0x100102350, symSize: 0x0 }
  - { offsetInCU: 0x9D894, offset: 0xB31A2, size: 0x8, addend: 0x0, symName: __ZN4asio9execution6detail10blocking_tILi0EE8possiblyE, symObjAddr: 0xC8479, symBinAddr: 0x100102351, symSize: 0x0 }
  - { offsetInCU: 0x9D8A7, offset: 0xB31B5, size: 0x8, addend: 0x0, symName: __ZN4asio9execution6detail10blocking_tILi0EE6alwaysE, symObjAddr: 0xC83AC, symBinAddr: 0x100102284, symSize: 0x0 }
  - { offsetInCU: 0x9DC09, offset: 0xB3517, size: 0x8, addend: 0x0, symName: __ZN4asio9execution6detail14relationship_tILi0EE12continuationE, symObjAddr: 0xC84F4, symBinAddr: 0x1001023CC, symSize: 0x0 }
  - { offsetInCU: 0x9DC1C, offset: 0xB352A, size: 0x8, addend: 0x0, symName: __ZN4asio9execution6detail14relationship_tILi0EE4forkE, symObjAddr: 0xC84F5, symBinAddr: 0x1001023CD, symSize: 0x0 }
  - { offsetInCU: 0x9DC2F, offset: 0xB353D, size: 0x8, addend: 0x0, symName: __ZN4asio9execution6detail18outstanding_work_tILi0EE7trackedE, symObjAddr: 0xC89AC, symBinAddr: 0x100102884, symSize: 0x0 }
  - { offsetInCU: 0x9DD7D, offset: 0xB368B, size: 0x8, addend: 0x0, symName: __ZN4asio9execution6detaileqERKNS1_10blocking_tILi0EEES5_, symObjAddr: 0x5BD20, symBinAddr: 0x100063AD4, symSize: 0x30 }
  - { offsetInCU: 0x9DE44, offset: 0xB3752, size: 0x8, addend: 0x0, symName: __ZN4asio9executionL8blockingE, symObjAddr: 0xC83A8, symBinAddr: 0x100102280, symSize: 0x0 }
  - { offsetInCU: 0x9E26A, offset: 0xB3B78, size: 0x8, addend: 0x0, symName: __ZN4asio9executionL7contextE, symObjAddr: 0xC847A, symBinAddr: 0x100102352, symSize: 0x0 }
  - { offsetInCU: 0x9E286, offset: 0xB3B94, size: 0x8, addend: 0x0, symName: __ZN4asio9executionL12relationshipE, symObjAddr: 0xC84F0, symBinAddr: 0x1001023C8, symSize: 0x0 }
  - { offsetInCU: 0x9E2A1, offset: 0xB3BAF, size: 0x8, addend: 0x0, symName: __ZN4asio9executionL16outstanding_workE, symObjAddr: 0xC89A8, symBinAddr: 0x100102880, symSize: 0x0 }
  - { offsetInCU: 0x9E2BC, offset: 0xB3BCA, size: 0x8, addend: 0x0, symName: __ZN4asio9execution5queryINS_10io_context19basic_executor_typeINSt3__19allocatorIvEELm0EEERNS_17execution_contextEEET0_RKT_RKNS0_12context_as_tISA_EEPNS4_9enable_ifIXsr7is_sameIS9_SA_EE5valueEvE4typeEPNSI_IXsr9can_queryISD_RKNS0_6detail9context_tILi0EEEEE5valueEvE4typeE, symObjAddr: 0x5E1B4, symBinAddr: 0x100065F68, symSize: 0x40 }
  - { offsetInCU: 0x9E384, offset: 0xB3C92, size: 0x8, addend: 0x0, symName: __ZN4asio9execution5queryINS_10io_context19basic_executor_typeINSt3__19allocatorIvEELm0EEENS0_6detail8blocking10possibly_tILi0EEEEENS_12query_resultIRKT_RKSB_E4typeESF_RKNS0_11prefer_onlyIT0_EEPNS4_9enable_ifIXsr7is_sameISL_SB_EE5valueEvE4typeEPNSP_IXsr9can_queryISF_SH_EE5valueEvE4typeE, symObjAddr: 0x5F684, symBinAddr: 0x100067438, symSize: 0x44 }
  - { offsetInCU: 0x9E3E4, offset: 0xB3CF2, size: 0x8, addend: 0x0, symName: __ZN4asio9execution6preferINS_10io_context19basic_executor_typeINSt3__19allocatorIvEELm0EEENS0_6detail8blocking10possibly_tILi0EEEEENS_13prefer_resultIRKT_JRKSB_EE4typeESF_RKNS0_11prefer_onlyIT0_EEPNS4_9enable_ifIXsr7is_sameISL_SB_EE5valueEvE4typeEPNSP_IXsr10can_preferISF_SH_EE5valueEvE4typeE, symObjAddr: 0x5F810, symBinAddr: 0x1000675C4, symSize: 0x44 }
  - { offsetInCU: 0x9E444, offset: 0xB3D52, size: 0x8, addend: 0x0, symName: __ZN4asio9execution6preferINS_10io_context19basic_executor_typeINSt3__19allocatorIvEELm0EEENS0_6detail16outstanding_work9tracked_tILi0EEEEENS_13prefer_resultIRKT_JRKSB_EE4typeESF_RKNS0_11prefer_onlyIT0_EEPNS4_9enable_ifIXsr7is_sameISL_SB_EE5valueEvE4typeEPNSP_IXsr10can_preferISF_SH_EE5valueEvE4typeE, symObjAddr: 0x5FB2C, symBinAddr: 0x1000678E0, symSize: 0x44 }
  - { offsetInCU: 0x9E4A4, offset: 0xB3DB2, size: 0x8, addend: 0x0, symName: __ZN4asio9execution5queryINS_10io_context19basic_executor_typeINSt3__19allocatorIvEELm4EEERNS_17execution_contextEEET0_RKT_RKNS0_12context_as_tISA_EEPNS4_9enable_ifIXsr7is_sameIS9_SA_EE5valueEvE4typeEPNSI_IXsr9can_queryISD_RKNS0_6detail9context_tILi0EEEEE5valueEvE4typeE, symObjAddr: 0x60D00, symBinAddr: 0x100068AB4, symSize: 0x40 }
  - { offsetInCU: 0x9E500, offset: 0xB3E0E, size: 0x8, addend: 0x0, symName: __ZN4asio9execution5queryINS_10io_context19basic_executor_typeINSt3__19allocatorIvEELm4EEENS0_6detail8blocking10possibly_tILi0EEEEENS_12query_resultIRKT_RKSB_E4typeESF_RKNS0_11prefer_onlyIT0_EEPNS4_9enable_ifIXsr7is_sameISL_SB_EE5valueEvE4typeEPNSP_IXsr9can_queryISF_SH_EE5valueEvE4typeE, symObjAddr: 0x611DC, symBinAddr: 0x100068F90, symSize: 0x44 }
  - { offsetInCU: 0x9E560, offset: 0xB3E6E, size: 0x8, addend: 0x0, symName: __ZN4asio9execution6preferINS_10io_context19basic_executor_typeINSt3__19allocatorIvEELm4EEENS0_6detail8blocking10possibly_tILi0EEEEENS_13prefer_resultIRKT_JRKSB_EE4typeESF_RKNS0_11prefer_onlyIT0_EEPNS4_9enable_ifIXsr7is_sameISL_SB_EE5valueEvE4typeEPNSP_IXsr10can_preferISF_SH_EE5valueEvE4typeE, symObjAddr: 0x61368, symBinAddr: 0x10006911C, symSize: 0x44 }
  - { offsetInCU: 0x9E5C0, offset: 0xB3ECE, size: 0x8, addend: 0x0, symName: __ZN4asio9execution6preferINS_10io_context19basic_executor_typeINSt3__19allocatorIvEELm4EEENS0_6detail16outstanding_work9tracked_tILi0EEEEENS_13prefer_resultIRKT_JRKSB_EE4typeESF_RKNS0_11prefer_onlyIT0_EEPNS4_9enable_ifIXsr7is_sameISL_SB_EE5valueEvE4typeEPNSP_IXsr10can_preferISF_SH_EE5valueEvE4typeE, symObjAddr: 0x6161C, symBinAddr: 0x1000693D0, symSize: 0x3C }
  - { offsetInCU: 0x9E620, offset: 0xB3F2E, size: 0x8, addend: 0x0, symName: __ZN4asio9execution6preferINS_10io_context19basic_executor_typeINSt3__19allocatorIvEELm4EEENS0_6detail16outstanding_work11untracked_tILi0EEEEENS_13prefer_resultIRKT_JRKSB_EE4typeESF_RKNS0_11prefer_onlyIT0_EEPNS4_9enable_ifIXsr7is_sameISL_SB_EE5valueEvE4typeEPNSP_IXsr10can_preferISF_SH_EE5valueEvE4typeE, symObjAddr: 0x61858, symBinAddr: 0x10006960C, symSize: 0x44 }
  - { offsetInCU: 0x9E680, offset: 0xB3F8E, size: 0x8, addend: 0x0, symName: __ZN4asio9execution5queryINS_10io_context19basic_executor_typeINSt3__19allocatorIvEELm4EEENS0_6detail12relationship6fork_tILi0EEEEENS_12query_resultIRKT_RKSB_E4typeESF_RKNS0_11prefer_onlyIT0_EEPNS4_9enable_ifIXsr7is_sameISL_SB_EE5valueEvE4typeEPNSP_IXsr9can_queryISF_SH_EE5valueEvE4typeE, symObjAddr: 0x61A28, symBinAddr: 0x1000697DC, symSize: 0x44 }
  - { offsetInCU: 0x9E6E0, offset: 0xB3FEE, size: 0x8, addend: 0x0, symName: __ZN4asio9execution6preferINS_10io_context19basic_executor_typeINSt3__19allocatorIvEELm4EEENS0_6detail12relationship6fork_tILi0EEEEENS_13prefer_resultIRKT_JRKSB_EE4typeESF_RKNS0_11prefer_onlyIT0_EEPNS4_9enable_ifIXsr7is_sameISL_SB_EE5valueEvE4typeEPNSP_IXsr10can_preferISF_SH_EE5valueEvE4typeE, symObjAddr: 0x61CA4, symBinAddr: 0x100069A58, symSize: 0x44 }
  - { offsetInCU: 0x9E740, offset: 0xB404E, size: 0x8, addend: 0x0, symName: __ZN4asio9execution5queryINS_10io_context19basic_executor_typeINSt3__19allocatorIvEELm4EEENS0_6detail12relationship14continuation_tILi0EEEEENS_12query_resultIRKT_RKSB_E4typeESF_RKNS0_11prefer_onlyIT0_EEPNS4_9enable_ifIXsr7is_sameISL_SB_EE5valueEvE4typeEPNSP_IXsr9can_queryISF_SH_EE5valueEvE4typeE, symObjAddr: 0x61E78, symBinAddr: 0x100069C2C, symSize: 0x44 }
  - { offsetInCU: 0x9E7A0, offset: 0xB40AE, size: 0x8, addend: 0x0, symName: __ZN4asio9execution6preferINS_10io_context19basic_executor_typeINSt3__19allocatorIvEELm4EEENS0_6detail12relationship14continuation_tILi0EEEEENS_13prefer_resultIRKT_JRKSB_EE4typeESF_RKNS0_11prefer_onlyIT0_EEPNS4_9enable_ifIXsr7is_sameISL_SB_EE5valueEvE4typeEPNSP_IXsr10can_preferISF_SH_EE5valueEvE4typeE, symObjAddr: 0x62004, symBinAddr: 0x100069DB8, symSize: 0x44 }
  - { offsetInCU: 0x9E800, offset: 0xB410E, size: 0x8, addend: 0x0, symName: __ZN4asio9execution6preferINS_10io_context19basic_executor_typeINSt3__19allocatorIvEELm0EEENS0_6detail16outstanding_work11untracked_tILi0EEEEENS_13prefer_resultIRKT_JRKSB_EE4typeESF_RKNS0_11prefer_onlyIT0_EEPNS4_9enable_ifIXsr7is_sameISL_SB_EE5valueEvE4typeEPNSP_IXsr10can_preferISF_SH_EE5valueEvE4typeE, symObjAddr: 0x62314, symBinAddr: 0x10006A0C8, symSize: 0x3C }
  - { offsetInCU: 0x9E860, offset: 0xB416E, size: 0x8, addend: 0x0, symName: __ZN4asio9execution5queryINS_10io_context19basic_executor_typeINSt3__19allocatorIvEELm0EEENS0_6detail12relationship6fork_tILi0EEEEENS_12query_resultIRKT_RKSB_E4typeESF_RKNS0_11prefer_onlyIT0_EEPNS4_9enable_ifIXsr7is_sameISL_SB_EE5valueEvE4typeEPNSP_IXsr9can_queryISF_SH_EE5valueEvE4typeE, symObjAddr: 0x62470, symBinAddr: 0x10006A224, symSize: 0x44 }
  - { offsetInCU: 0x9E8C0, offset: 0xB41CE, size: 0x8, addend: 0x0, symName: __ZN4asio9execution6preferINS_10io_context19basic_executor_typeINSt3__19allocatorIvEELm0EEENS0_6detail12relationship6fork_tILi0EEEEENS_13prefer_resultIRKT_JRKSB_EE4typeESF_RKNS0_11prefer_onlyIT0_EEPNS4_9enable_ifIXsr7is_sameISL_SB_EE5valueEvE4typeEPNSP_IXsr10can_preferISF_SH_EE5valueEvE4typeE, symObjAddr: 0x62660, symBinAddr: 0x10006A414, symSize: 0x44 }
  - { offsetInCU: 0x9E920, offset: 0xB422E, size: 0x8, addend: 0x0, symName: __ZN4asio9execution5queryINS_10io_context19basic_executor_typeINSt3__19allocatorIvEELm0EEENS0_6detail12relationship14continuation_tILi0EEEEENS_12query_resultIRKT_RKSB_E4typeESF_RKNS0_11prefer_onlyIT0_EEPNS4_9enable_ifIXsr7is_sameISL_SB_EE5valueEvE4typeEPNSP_IXsr9can_queryISF_SH_EE5valueEvE4typeE, symObjAddr: 0x62834, symBinAddr: 0x10006A5E8, symSize: 0x44 }
  - { offsetInCU: 0x9E980, offset: 0xB428E, size: 0x8, addend: 0x0, symName: __ZN4asio9execution6preferINS_10io_context19basic_executor_typeINSt3__19allocatorIvEELm0EEENS0_6detail12relationship14continuation_tILi0EEEEENS_13prefer_resultIRKT_JRKSB_EE4typeESF_RKNS0_11prefer_onlyIT0_EEPNS4_9enable_ifIXsr7is_sameISL_SB_EE5valueEvE4typeEPNSP_IXsr10can_preferISF_SH_EE5valueEvE4typeE, symObjAddr: 0x629C0, symBinAddr: 0x10006A774, symSize: 0x44 }
  - { offsetInCU: 0x9F830, offset: 0xB513E, size: 0x8, addend: 0x0, symName: __ZN4asio2ip12make_addressERKNSt3__112basic_stringIcNS1_11char_traitsIcEENS1_9allocatorIcEEEE, symObjAddr: 0x59C70, symBinAddr: 0x100061A24, symSize: 0x34 }
  - { offsetInCU: 0x9F860, offset: 0xB516E, size: 0x8, addend: 0x0, symName: __ZN4asio2ip12make_addressEPKc, symObjAddr: 0x59CA4, symBinAddr: 0x100061A58, symSize: 0x48 }
  - { offsetInCU: 0x9F8B1, offset: 0xB51BF, size: 0x8, addend: 0x0, symName: __ZN4asio2ip12make_addressEPKcRNSt3__110error_codeE, symObjAddr: 0x59CEC, symBinAddr: 0x100061AA0, symSize: 0x94 }
  - { offsetInCU: 0x9F912, offset: 0xB5220, size: 0x8, addend: 0x0, symName: __ZN4asio2ip15make_address_v6EPKcRNSt3__110error_codeE, symObjAddr: 0x59D80, symBinAddr: 0x100061B34, symSize: 0xDC }
  - { offsetInCU: 0x9F976, offset: 0xB5284, size: 0x8, addend: 0x0, symName: __ZN4asio2ip15make_address_v4EPKcRNSt3__110error_codeE, symObjAddr: 0x59E90, symBinAddr: 0x100061C44, symSize: 0x80 }
  - { offsetInCU: 0x9FA30, offset: 0xB533E, size: 0x8, addend: 0x0, symName: __ZN4asio2iplsIcNSt3__111char_traitsIcEENS0_3tcpEEERNS2_13basic_ostreamIT_T0_EESA_RKNS0_14basic_endpointIT1_EE, symObjAddr: 0xB3DAC, symBinAddr: 0x1000BBB60, symSize: 0xB0 }
  - { offsetInCU: 0x9FA9B, offset: 0xB53A9, size: 0x8, addend: 0x0, symName: __ZN4asio2iplsIcNSt3__111char_traitsIcEEEERNS2_13basic_ostreamIT_T0_EES9_RKNS0_7addressE, symObjAddr: 0xB40D0, symBinAddr: 0x1000BBE84, symSize: 0x80 }
  - { offsetInCU: 0x9FD1F, offset: 0xB562D, size: 0x8, addend: 0x0, symName: __ZN4asio15system_categoryEv, symObjAddr: 0x1C1C, symBinAddr: 0x10000C970, symSize: 0x84 }
  - { offsetInCU: 0x9FD48, offset: 0xB5656, size: 0x8, addend: 0x0, symName: __ZZN4asio15system_categoryEvE8instance, symObjAddr: 0xC5128, symBinAddr: 0x1001140A0, symSize: 0x0 }
  - { offsetInCU: 0xA1CBD, offset: 0xB75CB, size: 0x8, addend: 0x0, symName: __ZN4asio11add_serviceINS_6detail9schedulerEEEvRNS_17execution_contextEPT_, symObjAddr: 0x549B0, symBinAddr: 0x10005C764, symSize: 0x30 }
  - { offsetInCU: 0xA1D95, offset: 0xB76A3, size: 0x8, addend: 0x0, symName: __ZN4asio11use_serviceINS_6detail14kqueue_reactorEEERT_RNS_17execution_contextE, symObjAddr: 0x55300, symBinAddr: 0x10005D0B4, symSize: 0x28 }
  - { offsetInCU: 0xA1DCE, offset: 0xB76DC, size: 0x8, addend: 0x0, symName: __ZN4asio11use_serviceINS_6detail9schedulerEEERT_RNS_17execution_contextE, symObjAddr: 0x559D4, symBinAddr: 0x10005D788, symSize: 0x28 }
  - { offsetInCU: 0xA1E08, offset: 0xB7716, size: 0x8, addend: 0x0, symName: __ZN4asio14aligned_deleteEPv, symObjAddr: 0x58CD8, symBinAddr: 0x100060A8C, symSize: 0x24 }
  - { offsetInCU: 0xA1E33, offset: 0xB7741, size: 0x8, addend: 0x0, symName: __ZN4asio11use_serviceINS_6detail23reactive_socket_serviceINS_2ip3tcpEEEEERT_RNS_10io_contextE, symObjAddr: 0x5B3F0, symBinAddr: 0x1000631A4, symSize: 0x2C }
  - { offsetInCU: 0xA1E6C, offset: 0xB777A, size: 0x8, addend: 0x0, symName: __ZN4asioeqERKNS_10io_context19basic_executor_typeINSt3__19allocatorIvEELm0EEES7_, symObjAddr: 0x5BF84, symBinAddr: 0x100063D38, symSize: 0x64 }
  - { offsetInCU: 0xA1EA9, offset: 0xB77B7, size: 0x8, addend: 0x0, symName: __ZN4asio19asio_handler_invokeINS_6detail17executor_functionEEEvRT_z, symObjAddr: 0x5C670, symBinAddr: 0x100064424, symSize: 0x24 }
  - { offsetInCU: 0xA1EE4, offset: 0xB77F2, size: 0x8, addend: 0x0, symName: __ZN4asio11aligned_newEmm, symObjAddr: 0x5CE10, symBinAddr: 0x100064BC4, symSize: 0x28 }
  - { offsetInCU: 0xA1F24, offset: 0xB7832, size: 0x8, addend: 0x0, symName: __ZN4asio19asio_handler_invokeINS_6detail22executor_function_viewEEEvRT_z, symObjAddr: 0x5D620, symBinAddr: 0x1000653D4, symSize: 0x24 }
  - { offsetInCU: 0xA1F5F, offset: 0xB786D, size: 0x8, addend: 0x0, symName: __ZN4asioeqERKNS_10io_context19basic_executor_typeINSt3__19allocatorIvEELm4EEES7_, symObjAddr: 0x600A8, symBinAddr: 0x100067E5C, symSize: 0x64 }
  - { offsetInCU: 0xA1F9C, offset: 0xB78AA, size: 0x8, addend: 0x0, symName: __ZN4asio11use_serviceINS_6detail18signal_set_serviceEEERT_RNS_10io_contextE, symObjAddr: 0x63934, symBinAddr: 0x10006B6E8, symSize: 0x2C }
  - { offsetInCU: 0xA1FD5, offset: 0xB78E3, size: 0x8, addend: 0x0, symName: __ZN4asio11use_serviceINS_6detail22deadline_timer_serviceINS1_18chrono_time_traitsINSt3__16chrono12steady_clockENS_11wait_traitsIS6_EEEEEEEERT_RNS_10io_contextE, symObjAddr: 0x652E4, symBinAddr: 0x10006D098, symSize: 0x2C }
  - { offsetInCU: 0xA200F, offset: 0xB791D, size: 0x8, addend: 0x0, symName: __ZN4asio14async_initiateINSt3__16__bindIMN4crow6detail10task_timerEFvRKNS1_10error_codeEEJPS5_RKNS1_12placeholders4__phILi1EEEEEEJFvS6_EENS_20basic_waitable_timerINS1_6chrono12steady_clockENS_11wait_traitsISL_EENS_15any_io_executorEE19initiate_async_waitEJEEENS_10constraintIXsr6detail31async_result_has_initiate_memfnIT_DpT0_EE5valueEDTclsr12async_resultINS1_5decayISS_E4typeESU_EE8initiatecl7declvalIOT1_EEcl7declvalIOSS_EEspcl7declvalIOT2_EEEEE4typeESZ_RSS_DpS12_, symObjAddr: 0x728B8, symBinAddr: 0x10007A66C, symSize: 0x2C }
  - { offsetInCU: 0xA2073, offset: 0xB7981, size: 0x8, addend: 0x0, symName: __ZN4asio32get_associated_cancellation_slotINSt3__16__bindIMN4crow6detail10task_timerEFvRKNS1_10error_codeEEJPS5_RKNS1_12placeholders4__phILi1EEEEEEEENS_28associated_cancellation_slotIT_NS_17cancellation_slotEE4typeERKSJ_, symObjAddr: 0x72B7C, symBinAddr: 0x10007A930, symSize: 0x2C }
  - { offsetInCU: 0xA20AC, offset: 0xB79BA, size: 0x8, addend: 0x0, symName: __ZN4asio24get_associated_allocatorINSt3__16__bindIMN4crow6detail10task_timerEFvRKNS1_10error_codeEEJPS5_RKNS1_12placeholders4__phILi1EEEEEEEENS_20associated_allocatorIT_NS1_9allocatorIvEEE4typeERKSJ_, symObjAddr: 0x72EF0, symBinAddr: 0x10007ACA4, symSize: 0x24 }
  - { offsetInCU: 0xA20E5, offset: 0xB79F3, size: 0x8, addend: 0x0, symName: __ZN4asio21asio_handler_allocateEmz, symObjAddr: 0x73044, symBinAddr: 0x10007ADF8, symSize: 0x2C }
  - { offsetInCU: 0xA2117, offset: 0xB7A25, size: 0x8, addend: 0x0, symName: __ZN4asio23asio_handler_deallocateEPvmz, symObjAddr: 0x737AC, symBinAddr: 0x10007B560, symSize: 0x30 }
  - { offsetInCU: 0xA2159, offset: 0xB7A67, size: 0x8, addend: 0x0, symName: __ZN4asio19asio_handler_invokeINS_6detail7binder1INSt3__16__bindIMN4crow6detail10task_timerEFvRKNS3_10error_codeEEJPS7_RKNS3_12placeholders4__phILi1EEEEEES8_EEEEvRT_z, symObjAddr: 0x738A8, symBinAddr: 0x10007B65C, symSize: 0x24 }
  - { offsetInCU: 0xA2194, offset: 0xB7AA2, size: 0x8, addend: 0x0, symName: __ZN4asiontENS_17cancellation_typeE, symObjAddr: 0x752E4, symBinAddr: 0x10007D098, symSize: 0x20 }
  - { offsetInCU: 0xA21C0, offset: 0xB7ACE, size: 0x8, addend: 0x0, symName: __ZN4asioanENS_17cancellation_typeES0_, symObjAddr: 0x75304, symBinAddr: 0x10007D0B8, symSize: 0x20 }
  - { offsetInCU: 0xA21FA, offset: 0xB7B08, size: 0x8, addend: 0x0, symName: __ZN4asioorENS_17cancellation_typeES0_, symObjAddr: 0x75324, symBinAddr: 0x10007D0D8, symSize: 0x20 }
  - { offsetInCU: 0xA2235, offset: 0xB7B43, size: 0x8, addend: 0x0, symName: __ZN4asio14async_initiateIZN4crow6ServerINS1_4CrowIJEEENS1_13SocketAdaptorEJEE3runEvEUlRKNSt3__110error_codeEE_JFvS8_EENS_20basic_waitable_timerINS7_6chrono12steady_clockENS_11wait_traitsISF_EENS_15any_io_executorEE19initiate_async_waitEJEEENS_10constraintIXsr6detail31async_result_has_initiate_memfnIT_DpT0_EE5valueEDTclsr12async_resultINS7_5decayISM_E4typeESO_EE8initiatecl7declvalIOT1_EEcl7declvalIOSM_EEspcl7declvalIOT2_EEEEE4typeEST_RSM_DpSW_, symObjAddr: 0x7C59C, symBinAddr: 0x100084350, symSize: 0x2C }
  - { offsetInCU: 0xA2299, offset: 0xB7BA7, size: 0x8, addend: 0x0, symName: __ZN4asio32get_associated_cancellation_slotIZN4crow6ServerINS1_4CrowIJEEENS1_13SocketAdaptorEJEE3runEvEUlRKNSt3__110error_codeEE_EENS_28associated_cancellation_slotIT_NS_17cancellation_slotEE4typeERKSD_, symObjAddr: 0x7C7E4, symBinAddr: 0x100084598, symSize: 0x2C }
  - { offsetInCU: 0xA22D2, offset: 0xB7BE0, size: 0x8, addend: 0x0, symName: __ZN4asio24get_associated_allocatorIZN4crow6ServerINS1_4CrowIJEEENS1_13SocketAdaptorEJEE3runEvEUlRKNSt3__110error_codeEE_EENS_20associated_allocatorIT_NS7_9allocatorIvEEE4typeERKSD_, symObjAddr: 0x7C930, symBinAddr: 0x1000846E4, symSize: 0x24 }
  - { offsetInCU: 0xA230B, offset: 0xB7C19, size: 0x8, addend: 0x0, symName: __ZN4asio19asio_handler_invokeINS_6detail7binder1IZN4crow6ServerINS3_4CrowIJEEENS3_13SocketAdaptorEJEE3runEvEUlRKNSt3__110error_codeEE_SA_EEEEvRT_z, symObjAddr: 0x7CFDC, symBinAddr: 0x100084D90, symSize: 0x24 }
  - { offsetInCU: 0xA2347, offset: 0xB7C55, size: 0x8, addend: 0x0, symName: __ZN4asio14async_initiateIZN4crow6ServerINS1_4CrowIJEEENS1_13SocketAdaptorEJEE7on_tickEvEUlRKNSt3__110error_codeEE_JFvS8_EENS_20basic_waitable_timerINS7_6chrono12steady_clockENS_11wait_traitsISF_EENS_15any_io_executorEE19initiate_async_waitEJEEENS_10constraintIXsr6detail31async_result_has_initiate_memfnIT_DpT0_EE5valueEDTclsr12async_resultINS7_5decayISM_E4typeESO_EE8initiatecl7declvalIOT1_EEcl7declvalIOSM_EEspcl7declvalIOT2_EEEEE4typeEST_RSM_DpSW_, symObjAddr: 0x7D140, symBinAddr: 0x100084EF4, symSize: 0x2C }
  - { offsetInCU: 0xA23AB, offset: 0xB7CB9, size: 0x8, addend: 0x0, symName: __ZN4asio32get_associated_cancellation_slotIZN4crow6ServerINS1_4CrowIJEEENS1_13SocketAdaptorEJEE7on_tickEvEUlRKNSt3__110error_codeEE_EENS_28associated_cancellation_slotIT_NS_17cancellation_slotEE4typeERKSD_, symObjAddr: 0x7D388, symBinAddr: 0x10008513C, symSize: 0x2C }
  - { offsetInCU: 0xA23E4, offset: 0xB7CF2, size: 0x8, addend: 0x0, symName: __ZN4asio24get_associated_allocatorIZN4crow6ServerINS1_4CrowIJEEENS1_13SocketAdaptorEJEE7on_tickEvEUlRKNSt3__110error_codeEE_EENS_20associated_allocatorIT_NS7_9allocatorIvEEE4typeERKSD_, symObjAddr: 0x7D4D4, symBinAddr: 0x100085288, symSize: 0x24 }
  - { offsetInCU: 0xA241D, offset: 0xB7D2B, size: 0x8, addend: 0x0, symName: __ZN4asio19asio_handler_invokeINS_6detail7binder1IZN4crow6ServerINS3_4CrowIJEEENS3_13SocketAdaptorEJEE7on_tickEvEUlRKNSt3__110error_codeEE_SA_EEEEvRT_z, symObjAddr: 0x7DB80, symBinAddr: 0x100085934, symSize: 0x24 }
  - { offsetInCU: 0xA2459, offset: 0xB7D67, size: 0x8, addend: 0x0, symName: __ZN4asio14async_initiateIZN4crow6ServerINS1_4CrowIJEEENS1_13SocketAdaptorEJEE3runEvEUlRKNSt3__110error_codeEiE_JFvS8_iEENS_16basic_signal_setINS_15any_io_executorEE19initiate_async_waitEJEEENS_10constraintIXsr6detail31async_result_has_initiate_memfnIT_DpT0_EE5valueEDTclsr12async_resultINS7_5decayISI_E4typeESK_EE8initiatecl7declvalIOT1_EEcl7declvalIOSI_EEspcl7declvalIOT2_EEEEE4typeESP_RSI_DpSS_, symObjAddr: 0x7EFC4, symBinAddr: 0x100086D78, symSize: 0x2C }
  - { offsetInCU: 0xA24BD, offset: 0xB7DCB, size: 0x8, addend: 0x0, symName: __ZN4asio32get_associated_cancellation_slotIZN4crow6ServerINS1_4CrowIJEEENS1_13SocketAdaptorEJEE3runEvEUlRKNSt3__110error_codeEiE_EENS_28associated_cancellation_slotIT_NS_17cancellation_slotEE4typeERKSD_, symObjAddr: 0x7F238, symBinAddr: 0x100086FEC, symSize: 0x2C }
  - { offsetInCU: 0xA24F6, offset: 0xB7E04, size: 0x8, addend: 0x0, symName: __ZN4asio24get_associated_allocatorIZN4crow6ServerINS1_4CrowIJEEENS1_13SocketAdaptorEJEE3runEvEUlRKNSt3__110error_codeEiE_EENS_20associated_allocatorIT_NS7_9allocatorIvEEE4typeERKSD_, symObjAddr: 0x7F550, symBinAddr: 0x100087304, symSize: 0x24 }
  - { offsetInCU: 0xA252F, offset: 0xB7E3D, size: 0x8, addend: 0x0, symName: __ZN4asio19asio_handler_invokeINS_6detail7binder2IZN4crow6ServerINS3_4CrowIJEEENS3_13SocketAdaptorEJEE3runEvEUlRKNSt3__110error_codeEiE_SA_iEEEEvRT_z, symObjAddr: 0x7FC90, symBinAddr: 0x100087A44, symSize: 0x24 }
  - { offsetInCU: 0xA256B, offset: 0xB7E79, size: 0x8, addend: 0x0, symName: __ZN4asio14async_initiateIZN4crow6ServerINS1_4CrowIJEEENS1_13SocketAdaptorEJEE9do_acceptEvEUlNSt3__110error_codeEE_JFvS8_EENS_21basic_socket_acceptorINS_2ip3tcpENS_15any_io_executorEE21initiate_async_acceptEJPNS_12basic_socketISD_SE_EEPNSC_14basic_endpointISD_EEEEENS_10constraintIXsr6detail31async_result_has_initiate_memfnIT_DpT0_EE5valueEDTclsr12async_resultINS7_5decayISO_E4typeESQ_EE8initiatecl7declvalIOT1_EEcl7declvalIOSO_EEspcl7declvalIOT2_EEEEE4typeESV_RSO_DpSY_, symObjAddr: 0x85910, symBinAddr: 0x10008D6C4, symSize: 0x3C }
  - { offsetInCU: 0xA25FC, offset: 0xB7F0A, size: 0x8, addend: 0x0, symName: __ZN4asio28asio_handler_is_continuationEz, symObjAddr: 0x85F6C, symBinAddr: 0x10008DD20, symSize: 0xC }
  - { offsetInCU: 0xA261E, offset: 0xB7F2C, size: 0x8, addend: 0x0, symName: __ZN4asio32get_associated_cancellation_slotIZN4crow6ServerINS1_4CrowIJEEENS1_13SocketAdaptorEJEE9do_acceptEvEUlNSt3__110error_codeEE_EENS_28associated_cancellation_slotIT_NS_17cancellation_slotEE4typeERKSB_, symObjAddr: 0x85CC0, symBinAddr: 0x10008DA74, symSize: 0x2C }
  - { offsetInCU: 0xA2657, offset: 0xB7F65, size: 0x8, addend: 0x0, symName: __ZN4asio24get_associated_allocatorIZN4crow6ServerINS1_4CrowIJEEENS1_13SocketAdaptorEJEE9do_acceptEvEUlNSt3__110error_codeEE_EENS_20associated_allocatorIT_NS7_9allocatorIvEEE4typeERKSB_, symObjAddr: 0x85FD8, symBinAddr: 0x10008DD8C, symSize: 0x24 }
  - { offsetInCU: 0xA2690, offset: 0xB7F9E, size: 0x8, addend: 0x0, symName: __ZN4asio19asio_handler_invokeINS_6detail7binder1IZN4crow6ServerINS3_4CrowIJEEENS3_13SocketAdaptorEJEE9do_acceptEvEUlNSt3__110error_codeEE_SA_EEEEvRT_z, symObjAddr: 0x86C3C, symBinAddr: 0x10008E9F0, symSize: 0x24 }
  - { offsetInCU: 0xA26CC, offset: 0xB7FDA, size: 0x8, addend: 0x0, symName: __ZN4asio14async_initiateIZZN4crow6ServerINS1_4CrowIJEEENS1_13SocketAdaptorEJEE9do_acceptEvENKUlNSt3__110error_codeEE_clES8_EUlvE_JFvvEENS_10io_context13initiate_postEJPSC_EEENS_10constraintIXsr6detail31async_result_has_initiate_memfnIT_DpT0_EE5valueEDTclsr12async_resultINS7_5decayISG_E4typeESI_EE8initiatecl7declvalIOT1_EEcl7declvalIOSG_EEspcl7declvalIOT2_EEEEE4typeESN_RSG_DpSQ_, symObjAddr: 0x86ED4, symBinAddr: 0x10008EC88, symSize: 0x34 }
  - { offsetInCU: 0xA2747, offset: 0xB8055, size: 0x8, addend: 0x0, symName: __ZN4asio24get_associated_allocatorIZZN4crow6ServerINS1_4CrowIJEEENS1_13SocketAdaptorEJEE9do_acceptEvENKUlNSt3__110error_codeEE_clES8_EUlvE_EENS_20associated_allocatorIT_NS7_9allocatorIvEEE4typeERKSC_, symObjAddr: 0x871B8, symBinAddr: 0x10008EF6C, symSize: 0x24 }
  - { offsetInCU: 0xA2780, offset: 0xB808E, size: 0x8, addend: 0x0, symName: __ZN4asio19asio_handler_invokeIZZN4crow6ServerINS1_4CrowIJEEENS1_13SocketAdaptorEJEE9do_acceptEvENKUlNSt3__110error_codeEE_clES8_EUlvE_EEvRT_z, symObjAddr: 0x87768, symBinAddr: 0x10008F51C, symSize: 0x24 }
  - { offsetInCU: 0xA27BB, offset: 0xB80C9, size: 0x8, addend: 0x0, symName: __ZN4asio6bufferIcLm4096EEENS_17mutable_buffers_1ERNSt3__15arrayIT_XT0_EEE, symObjAddr: 0x8BD64, symBinAddr: 0x100093B18, symSize: 0x48 }
  - { offsetInCU: 0xA27FE, offset: 0xB810C, size: 0x8, addend: 0x0, symName: __ZN4asio14async_initiateIZN4crow10ConnectionINS1_13SocketAdaptorENS1_4CrowIJEEEJEE7do_readEvEUlRKNSt3__110error_codeEmE_JFvS8_mEENS_19basic_stream_socketINS_2ip3tcpENS_15any_io_executorEE22initiate_async_receiveEJRKNS_17mutable_buffers_1EiEEENS_10constraintIXsr6detail31async_result_has_initiate_memfnIT_DpT0_EE5valueEDTclsr12async_resultINS7_5decayISN_E4typeESP_EE8initiatecl7declvalIOT1_EEcl7declvalIOSN_EEspcl7declvalIOT2_EEEEE4typeESU_RSN_DpSX_, symObjAddr: 0x8BDD8, symBinAddr: 0x100093B8C, symSize: 0x3C }
  - { offsetInCU: 0xA288F, offset: 0xB819D, size: 0x8, addend: 0x0, symName: __ZN4asio32get_associated_cancellation_slotIZN4crow10ConnectionINS1_13SocketAdaptorENS1_4CrowIJEEEJEE7do_readEvEUlRKNSt3__110error_codeEmE_EENS_28associated_cancellation_slotIT_NS_17cancellation_slotEE4typeERKSD_, symObjAddr: 0x8C1AC, symBinAddr: 0x100093F60, symSize: 0x2C }
  - { offsetInCU: 0xA293F, offset: 0xB824D, size: 0x8, addend: 0x0, symName: __ZN4asio24get_associated_allocatorIZN4crow10ConnectionINS1_13SocketAdaptorENS1_4CrowIJEEEJEE7do_readEvEUlRKNSt3__110error_codeEmE_EENS_20associated_allocatorIT_NS7_9allocatorIvEEE4typeERKSD_, symObjAddr: 0x8C3E0, symBinAddr: 0x100094194, symSize: 0x24 }
  - { offsetInCU: 0xA2978, offset: 0xB8286, size: 0x8, addend: 0x0, symName: __ZN4asio19asio_handler_invokeINS_6detail7binder2IZN4crow10ConnectionINS3_13SocketAdaptorENS3_4CrowIJEEEJEE7do_readEvEUlRKNSt3__110error_codeEmE_SA_mEEEEvRT_z, symObjAddr: 0x8CC20, symBinAddr: 0x1000949D4, symSize: 0x24 }
  - { offsetInCU: 0xA29B3, offset: 0xB82C1, size: 0x8, addend: 0x0, symName: __ZN4asio5writeINS_19basic_stream_socketINS_2ip3tcpENS_15any_io_executorEEENSt3__16vectorINS_12const_bufferENS6_9allocatorIS8_EEEEEEmRT_RKT0_NS_10constraintIXsr24is_const_buffer_sequenceISE_EE5valueEiE4typeE, symObjAddr: 0xAB664, symBinAddr: 0x1000B3418, symSize: 0x74 }
  - { offsetInCU: 0xA2A25, offset: 0xB8333, size: 0x8, addend: 0x0, symName: __ZN4asio6bufferIcLm16384EEENS_17mutable_buffers_1ERAT0__T_m, symObjAddr: 0xAB890, symBinAddr: 0x1000B3644, symSize: 0x70 }
  - { offsetInCU: 0xA2A77, offset: 0xB8385, size: 0x8, addend: 0x0, symName: __ZN4asio5writeINS_19basic_stream_socketINS_2ip3tcpENS_15any_io_executorEEENSt3__16vectorINS_12const_bufferENS6_9allocatorIS8_EEEENS_6detail14transfer_all_tEEEmRT_RKT0_T1_RNS6_10error_codeENS_10constraintIXsr24is_const_buffer_sequenceISG_EE5valueEiE4typeE, symObjAddr: 0xABA2C, symBinAddr: 0x1000B37E0, symSize: 0x60 }
  - { offsetInCU: 0xA2AF3, offset: 0xB8401, size: 0x8, addend: 0x0, symName: __ZN4asio12transfer_allEv, symObjAddr: 0xABA8C, symBinAddr: 0x1000B3840, symSize: 0x4 }
  - { offsetInCU: 0xA2B10, offset: 0xB841E, size: 0x8, addend: 0x0, symName: __ZN4asio21buffer_sequence_beginINSt3__16vectorINS_12const_bufferENS1_9allocatorIS3_EEEEEEDTcldtfp_5beginEERKT_NS_10constraintIXaantsr14is_convertibleIPS9_PKNS_14mutable_bufferEEE5valuentsr14is_convertibleISC_PKS3_EE5valueEiE4typeE, symObjAddr: 0xABBE8, symBinAddr: 0x1000B399C, symSize: 0x30 }
  - { offsetInCU: 0xA2B53, offset: 0xB8461, size: 0x8, addend: 0x0, symName: __ZN4asio11buffer_sizeINSt3__16vectorINS_12const_bufferENS1_9allocatorIS3_EEEEEEmRKT_, symObjAddr: 0xAC120, symBinAddr: 0x1000B3ED4, symSize: 0x4C }
  - { offsetInCU: 0xA2B8A, offset: 0xB8498, size: 0x8, addend: 0x0, symName: __ZN4asio19buffer_sequence_endINSt3__16vectorINS_12const_bufferENS1_9allocatorIS3_EEEEEEDTcldtfp_3endEERKT_NS_10constraintIXaantsr14is_convertibleIPS9_PKNS_14mutable_bufferEEE5valuentsr14is_convertibleISC_PKS3_EE5valueEiE4typeE, symObjAddr: 0xACB44, symBinAddr: 0x1000B48F8, symSize: 0x30 }
  - { offsetInCU: 0xA2BCD, offset: 0xB84DB, size: 0x8, addend: 0x0, symName: __ZN4asio21buffer_sequence_beginINSt3__16vectorINS_12const_bufferENS1_9allocatorIS3_EEEEEEDTcldtfp_5beginEERT_NS_10constraintIXaantsr14is_convertibleIPKS8_PKNS_14mutable_bufferEEE5valuentsr14is_convertibleISC_PKS3_EE5valueEiE4typeE, symObjAddr: 0xACD1C, symBinAddr: 0x1000B4AD0, symSize: 0x30 }
  - { offsetInCU: 0xA2C10, offset: 0xB851E, size: 0x8, addend: 0x0, symName: __ZN4asio19buffer_sequence_endINSt3__16vectorINS_12const_bufferENS1_9allocatorIS3_EEEEEEDTcldtfp_3endEERT_NS_10constraintIXaantsr14is_convertibleIPKS8_PKNS_14mutable_bufferEEE5valuentsr14is_convertibleISC_PKS3_EE5valueEiE4typeE, symObjAddr: 0xACD88, symBinAddr: 0x1000B4B3C, symSize: 0x30 }
  - { offsetInCU: 0xA2C53, offset: 0xB8561, size: 0x8, addend: 0x0, symName: __ZN4asioplERKNS_12const_bufferEm, symObjAddr: 0xACE08, symBinAddr: 0x1000B4BBC, symSize: 0xA8 }
  - { offsetInCU: 0xA2CBD, offset: 0xB85CB, size: 0x8, addend: 0x0, symName: __ZN4asio21buffer_sequence_beginINS_6detail16prepared_buffersINS_12const_bufferELm64EEEEEDTcldtfp_5beginEERKT_NS_10constraintIXaantsr14is_convertibleIPS7_PKNS_14mutable_bufferEEE5valuentsr14is_convertibleISA_PKS3_EE5valueEiE4typeE, symObjAddr: 0xAD48C, symBinAddr: 0x1000B5240, symSize: 0x38 }
  - { offsetInCU: 0xA2D00, offset: 0xB860E, size: 0x8, addend: 0x0, symName: __ZN4asio19buffer_sequence_endINS_6detail16prepared_buffersINS_12const_bufferELm64EEEEEDTcldtfp_3endEERKT_NS_10constraintIXaantsr14is_convertibleIPS7_PKNS_14mutable_bufferEEE5valuentsr14is_convertibleISA_PKS3_EE5valueEiE4typeE, symObjAddr: 0xAD4C4, symBinAddr: 0x1000B5278, symSize: 0x38 }
  - { offsetInCU: 0xA2D43, offset: 0xB8651, size: 0x8, addend: 0x0, symName: __ZN4asio6bufferERKNS_12const_bufferEm, symObjAddr: 0xAD758, symBinAddr: 0x1000B550C, symSize: 0x7C }
  - { offsetInCU: 0xA2DFA, offset: 0xB8708, size: 0x8, addend: 0x0, symName: __ZN4asio5writeINS_19basic_stream_socketINS_2ip3tcpENS_15any_io_executorEEENSt3__16vectorINS_12const_bufferENS6_9allocatorIS8_EEEEZN4crow10ConnectionINSC_13SocketAdaptorENSC_4CrowIJEEEJEE13do_write_syncERSB_EUlNS6_10error_codeEmE_EEmRT_RKT0_T1_NS_10constraintIXsr24is_const_buffer_sequenceISN_EE5valueEiE4typeE, symObjAddr: 0xADC84, symBinAddr: 0x1000B5A38, symSize: 0x70 }
  - { offsetInCU: 0xA2E83, offset: 0xB8791, size: 0x8, addend: 0x0, symName: __ZN4asio5writeINS_19basic_stream_socketINS_2ip3tcpENS_15any_io_executorEEENSt3__16vectorINS_12const_bufferENS6_9allocatorIS8_EEEEZN4crow10ConnectionINSC_13SocketAdaptorENSC_4CrowIJEEEJEE13do_write_syncERSB_EUlNS6_10error_codeEmE_EEmRT_RKT0_T1_RSJ_NS_10constraintIXsr24is_const_buffer_sequenceISN_EE5valueEiE4typeE, symObjAddr: 0xADCF4, symBinAddr: 0x1000B5AA8, symSize: 0x70 }
  - { offsetInCU: 0xA2EFE, offset: 0xB880C, size: 0x8, addend: 0x0, symName: __ZN4asio6bufferIcNSt3__111char_traitsIcEENS1_9allocatorIcEEEENS_17mutable_buffers_1ERNS1_12basic_stringIT_T0_T1_EE, symObjAddr: 0xAE364, symBinAddr: 0x1000B6118, symSize: 0x7C }
  - { offsetInCU: 0xA2F47, offset: 0xB8855, size: 0x8, addend: 0x0, symName: __ZN4asio11async_writeINS_19basic_stream_socketINS_2ip3tcpENS_15any_io_executorEEENSt3__16vectorINS_12const_bufferENS6_9allocatorIS8_EEEEZN4crow10ConnectionINSC_13SocketAdaptorENSC_4CrowIJEEEJEE8do_writeEvEUlRKNS6_10error_codeEmE_EEDaRT_RKT0_OT1_NS_10constraintIXsr24is_const_buffer_sequenceISP_EE5valueEiE4typeE, symObjAddr: 0xAE4D0, symBinAddr: 0x1000B6284, symSize: 0x60 }
  - { offsetInCU: 0xA2FBB, offset: 0xB88C9, size: 0x8, addend: 0x0, symName: __ZN4asio14async_initiateIZN4crow10ConnectionINS1_13SocketAdaptorENS1_4CrowIJEEEJEE8do_writeEvEUlRKNSt3__110error_codeEmE_JFvS8_mEENS_6detail20initiate_async_writeINS_19basic_stream_socketINS_2ip3tcpENS_15any_io_executorEEEEEJRKNS7_6vectorINS_12const_bufferENS7_9allocatorISM_EEEENSD_14transfer_all_tEEEENS_10constraintIXsr6detail31async_result_has_initiate_memfnIT_DpT0_EE5valueEDTclsr12async_resultINS7_5decayISU_E4typeESW_EE8initiatecl7declvalIOT1_EEcl7declvalIOSU_EEspcl7declvalIOT2_EEEEE4typeES11_RSU_DpS14_, symObjAddr: 0xAE55C, symBinAddr: 0x1000B6310, symSize: 0x3C }
  - { offsetInCU: 0xA307F, offset: 0xB898D, size: 0x8, addend: 0x0, symName: __ZN4asio14async_initiateINS_6detail8write_opINS_19basic_stream_socketINS_2ip3tcpENS_15any_io_executorEEENSt3__16vectorINS_12const_bufferENS8_9allocatorISA_EEEENS8_11__wrap_iterIPKSA_EENS1_14transfer_all_tEZN4crow10ConnectionINSJ_13SocketAdaptorENSJ_4CrowIJEEEJEE8do_writeEvEUlRKNS8_10error_codeEmE_EEJFvSP_mEENS7_19initiate_async_sendEJRKNS1_16prepared_buffersISA_Lm64EEEiEEENS_10constraintIXsr6detail31async_result_has_initiate_memfnIT_DpT0_EE5valueEDTclsr12async_resultINS8_5decayIS11_E4typeES13_EE8initiatecl7declvalIOT1_EEcl7declvalIOS11_EEspcl7declvalIOT2_EEEEE4typeES18_RS11_DpS1B_, symObjAddr: 0xAED10, symBinAddr: 0x1000B6AC4, symSize: 0x3C }
  - { offsetInCU: 0xA3110, offset: 0xB8A1E, size: 0x8, addend: 0x0, symName: __ZN4asio32get_associated_cancellation_slotINS_6detail8write_opINS_19basic_stream_socketINS_2ip3tcpENS_15any_io_executorEEENSt3__16vectorINS_12const_bufferENS8_9allocatorISA_EEEENS8_11__wrap_iterIPKSA_EENS1_14transfer_all_tEZN4crow10ConnectionINSJ_13SocketAdaptorENSJ_4CrowIJEEEJEE8do_writeEvEUlRKNS8_10error_codeEmE_EEEENS_28associated_cancellation_slotIT_NS_17cancellation_slotEE4typeERKSV_, symObjAddr: 0xAF0AC, symBinAddr: 0x1000B6E60, symSize: 0x2C }
  - { offsetInCU: 0xA31CB, offset: 0xB8AD9, size: 0x8, addend: 0x0, symName: __ZN4asio24get_associated_allocatorINS_6detail8write_opINS_19basic_stream_socketINS_2ip3tcpENS_15any_io_executorEEENSt3__16vectorINS_12const_bufferENS8_9allocatorISA_EEEENS8_11__wrap_iterIPKSA_EENS1_14transfer_all_tEZN4crow10ConnectionINSJ_13SocketAdaptorENSJ_4CrowIJEEEJEE8do_writeEvEUlRKNS8_10error_codeEmE_EEEENS_20associated_allocatorIT_NSB_IvEEE4typeERKSV_, symObjAddr: 0xAF3B8, symBinAddr: 0x1000B716C, symSize: 0x24 }
  - { offsetInCU: 0xA3286, offset: 0xB8B94, size: 0x8, addend: 0x0, symName: __ZN4asio19asio_handler_invokeINS_6detail7binder2INS1_8write_opINS_19basic_stream_socketINS_2ip3tcpENS_15any_io_executorEEENSt3__16vectorINS_12const_bufferENS9_9allocatorISB_EEEENS9_11__wrap_iterIPKSB_EENS1_14transfer_all_tEZN4crow10ConnectionINSK_13SocketAdaptorENSK_4CrowIJEEEJEE8do_writeEvEUlRKNS9_10error_codeEmE_EESQ_mEEEEvRT_z, symObjAddr: 0xAFD94, symBinAddr: 0x1000B7B48, symSize: 0x24 }
  - { offsetInCU: 0xA3C6A, offset: 0xB9578, size: 0x8, addend: 0x0, symName: _msgs, symObjAddr: 0x5CB998, symBinAddr: 0x100114860, symSize: 0x0 }
  - { offsetInCU: 0xA4E3A, offset: 0xBA748, size: 0x8, addend: 0x0, symName: __ZN4crow6logger17get_log_level_refEv, symObjAddr: 0x1E2A4, symBinAddr: 0x100027330, symSize: 0xC }
  - { offsetInCU: 0xA4E59, offset: 0xBA767, size: 0x8, addend: 0x0, symName: __ZZN4crow6logger17get_log_level_refEvE13current_level, symObjAddr: 0xC5388, symBinAddr: 0x100114300, symSize: 0x0 }
  - { offsetInCU: 0xA4E65, offset: 0xBA773, size: 0x8, addend: 0x0, symName: __ZN4crow6logger15get_handler_refEv, symObjAddr: 0x1EEA8, symBinAddr: 0x100027D78, symSize: 0xC }
  - { offsetInCU: 0xA4E84, offset: 0xBA792, size: 0x8, addend: 0x0, symName: __ZZN4crow6logger15get_handler_refEvE15default_handler, symObjAddr: 0xC5390, symBinAddr: 0x100114308, symSize: 0x0 }
  - { offsetInCU: 0xA4E9A, offset: 0xBA7A8, size: 0x8, addend: 0x0, symName: __ZZN4crow6logger15get_handler_refEvE15current_handler, symObjAddr: 0xC5398, symBinAddr: 0x100114310, symSize: 0x0 }
  - { offsetInCU: 0xA5F2D, offset: 0xBB83B, size: 0x8, addend: 0x0, symName: __ZNK4crow8mustache10template_t15render_internalEiiRNSt3__16vectorIPKNS_4json6wvalueENS2_9allocatorIS7_EEEERNS2_12basic_stringIcNS2_11char_traitsIcEENS8_IcEEEEi, symObjAddr: 0x32148, symBinAddr: 0x10003A870, symSize: 0xC18 }
  - { offsetInCU: 0xA5F51, offset: 0xBB85F, size: 0x8, addend: 0x0, symName: __ZZNK4crow8mustache10template_t15render_internalEiiRNSt3__16vectorIPKNS_4json6wvalueENS2_9allocatorIS7_EEEERNS2_12basic_stringIcNS2_11char_traitsIcEENS8_IcEEEEiE11nullContext, symObjAddr: 0xC53C8, symBinAddr: 0x100114340, symSize: 0x0 }
  - { offsetInCU: 0xA610B, offset: 0xBBA19, size: 0x8, addend: 0x0, symName: __ZNK4crow8mustache10template_t12find_contextERKNSt3__112basic_stringIcNS2_11char_traitsIcEENS2_9allocatorIcEEEERKNS2_6vectorIPKNS_4json6wvalueENS6_ISF_EEEEb, symObjAddr: 0x34998, symBinAddr: 0x10003D0C0, symSize: 0x694 }
  - { offsetInCU: 0xA612E, offset: 0xBBA3C, size: 0x8, addend: 0x0, symName: __ZZNK4crow8mustache10template_t12find_contextERKNSt3__112basic_stringIcNS2_11char_traitsIcEENS2_9allocatorIcEEEERKNS2_6vectorIPKNS_4json6wvalueENS6_ISF_EEEEbE9empty_str, symObjAddr: 0xC5448, symBinAddr: 0x1001143C0, symSize: 0x0 }
  - { offsetInCU: 0xA6242, offset: 0xBBB50, size: 0x8, addend: 0x0, symName: __ZN5Stats10dockerFlagE, symObjAddr: 0xC54C8, symBinAddr: 0x100114440, symSize: 0x0 }
  - { offsetInCU: 0xA6B37, offset: 0xBC445, size: 0x8, addend: 0x0, symName: __ZN4crow4Trie3addERKNSt3__112basic_stringIcNS1_11char_traitsIcEENS1_9allocatorIcEEEEtjt, symObjAddr: 0x4A5C0, symBinAddr: 0x100052374, symSize: 0x724 }
  - { offsetInCU: 0xA6B5B, offset: 0xBC469, size: 0x8, addend: 0x0, symName: __ZZN4crow4Trie3addERKNSt3__112basic_stringIcNS1_11char_traitsIcEENS1_9allocatorIcEEEEtjtE11paramTraits, symObjAddr: 0xC54D0, symBinAddr: 0x100114448, symSize: 0x0 }
  - { offsetInCU: 0xA6D82, offset: 0xBC690, size: 0x8, addend: 0x0, symName: __ZN4asio6detail14kqueue_reactor3runElRNS0_8op_queueINS0_19scheduler_operationEEE, symObjAddr: 0x56180, symBinAddr: 0x10005DF34, symSize: 0x4B0 }
  - { offsetInCU: 0xA6DA9, offset: 0xBC6B7, size: 0x8, addend: 0x0, symName: __ZZN4asio6detail14kqueue_reactor3runElRNS0_8op_queueINS0_19scheduler_operationEEEE6filter, symObjAddr: 0xC8190, symBinAddr: 0x100102068, symSize: 0x0 }
  - { offsetInCU: 0xA7002, offset: 0xBC910, size: 0x8, addend: 0x0, symName: __ZN4asio9execution6detail17any_executor_base16target_fns_tableINS_10io_context19basic_executor_typeINSt3__19allocatorIvEELm0EEEEEPKNS2_10target_fnsEbPNS6_9enable_ifIXntsr7is_sameIT_vEE5valueEvE4typeE, symObjAddr: 0x5BCE4, symBinAddr: 0x100063A98, symSize: 0x3C }
  - { offsetInCU: 0xA7022, offset: 0xBC930, size: 0x8, addend: 0x0, symName: __ZZN4asio9execution6detail17any_executor_base16target_fns_tableINS_10io_context19basic_executor_typeINSt3__19allocatorIvEELm0EEEEEPKNS2_10target_fnsEbPNS6_9enable_ifIXntsr7is_sameIT_vEE5valueEvE4typeEE16fns_with_execute, symObjAddr: 0xC6758, symBinAddr: 0x1001110D8, symSize: 0x0 }
  - { offsetInCU: 0xA7039, offset: 0xBC947, size: 0x8, addend: 0x0, symName: __ZZN4asio9execution6detail17any_executor_base16target_fns_tableINS_10io_context19basic_executor_typeINSt3__19allocatorIvEELm0EEEEEPKNS2_10target_fnsEbPNS6_9enable_ifIXntsr7is_sameIT_vEE5valueEvE4typeEE25fns_with_blocking_execute, symObjAddr: 0xC6778, symBinAddr: 0x1001110F8, symSize: 0x0 }
  - { offsetInCU: 0xA7074, offset: 0xBC982, size: 0x8, addend: 0x0, symName: __ZN25asio_execution_execute_fn15static_instanceINS_4implEE8instanceE, symObjAddr: 0xC8459, symBinAddr: 0x100102331, symSize: 0x0 }
  - { offsetInCU: 0xA72E8, offset: 0xBCBF6, size: 0x8, addend: 0x0, symName: __ZN13asio_query_fn15static_instanceINS_4implEE8instanceE, symObjAddr: 0xC8477, symBinAddr: 0x10010234F, symSize: 0x0 }
  - { offsetInCU: 0xA77FA, offset: 0xBD108, size: 0x8, addend: 0x0, symName: __ZN4asio9execution6detail17any_executor_base16object_fns_tableINS_10io_context19basic_executor_typeINSt3__19allocatorIvEELm0EEEEEPKNS2_10object_fnsEPNS6_9enable_ifIXaantsr7is_sameIT_vEE5valuentsr7is_sameISE_NS1_22shared_target_executorEEE5valueEvE4typeE, symObjAddr: 0x5DAC0, symBinAddr: 0x100065874, symSize: 0x18 }
  - { offsetInCU: 0xA781A, offset: 0xBD128, size: 0x8, addend: 0x0, symName: __ZZN4asio9execution6detail17any_executor_base16object_fns_tableINS_10io_context19basic_executor_typeINSt3__19allocatorIvEELm0EEEEEPKNS2_10object_fnsEPNS6_9enable_ifIXaantsr7is_sameIT_vEE5valuentsr7is_sameISE_NS1_22shared_target_executorEEE5valueEvE4typeEE3fns, symObjAddr: 0xC6858, symBinAddr: 0x1001111D8, symSize: 0x0 }
  - { offsetInCU: 0xA796E, offset: 0xBD27C, size: 0x8, addend: 0x0, symName: __ZN4asio9execution12any_executorIJNS0_12context_as_tIRNS_17execution_contextEEENS0_6detail8blocking7never_tILi0EEENS0_11prefer_onlyINS7_10possibly_tILi0EEEEENSA_INS6_16outstanding_work9tracked_tILi0EEEEENSA_INSE_11untracked_tILi0EEEEENSA_INS6_12relationship6fork_tILi0EEEEENSA_INSL_14continuation_tILi0EEEEEEE14prop_fns_tableINS_10io_context19basic_executor_typeINSt3__19allocatorIvEELm0EEEEEPKNS6_17any_executor_base8prop_fnsISS_EEv, symObjAddr: 0x5BCD8, symBinAddr: 0x100063A8C, symSize: 0xC }
  - { offsetInCU: 0xA798E, offset: 0xBD29C, size: 0x8, addend: 0x0, symName: __ZZN4asio9execution12any_executorIJNS0_12context_as_tIRNS_17execution_contextEEENS0_6detail8blocking7never_tILi0EEENS0_11prefer_onlyINS7_10possibly_tILi0EEEEENSA_INS6_16outstanding_work9tracked_tILi0EEEEENSA_INSE_11untracked_tILi0EEEEENSA_INS6_12relationship6fork_tILi0EEEEENSA_INSL_14continuation_tILi0EEEEEEE14prop_fns_tableINS_10io_context19basic_executor_typeINSt3__19allocatorIvEELm0EEEEEPKNS6_17any_executor_base8prop_fnsISS_EEvE3fns, symObjAddr: 0xC6878, symBinAddr: 0x1001111F8, symSize: 0x0 }
  - { offsetInCU: 0xA79B4, offset: 0xBD2C2, size: 0x8, addend: 0x0, symName: __ZN4asio9execution12any_executorIJNS0_12context_as_tIRNS_17execution_contextEEENS0_6detail8blocking7never_tILi0EEENS0_11prefer_onlyINS7_10possibly_tILi0EEEEENSA_INS6_16outstanding_work9tracked_tILi0EEEEENSA_INSE_11untracked_tILi0EEEEENSA_INS6_12relationship6fork_tILi0EEEEENSA_INSL_14continuation_tILi0EEEEEEE14prop_fns_tableIvEEPKNS6_17any_executor_base8prop_fnsISS_EEv, symObjAddr: 0x5E30C, symBinAddr: 0x1000660C0, symSize: 0xC }
  - { offsetInCU: 0xA79D4, offset: 0xBD2E2, size: 0x8, addend: 0x0, symName: __ZZN4asio9execution12any_executorIJNS0_12context_as_tIRNS_17execution_contextEEENS0_6detail8blocking7never_tILi0EEENS0_11prefer_onlyINS7_10possibly_tILi0EEEEENSA_INS6_16outstanding_work9tracked_tILi0EEEEENSA_INSE_11untracked_tILi0EEEEENSA_INS6_12relationship6fork_tILi0EEEEENSA_INSL_14continuation_tILi0EEEEEEE14prop_fns_tableIvEEPKNS6_17any_executor_base8prop_fnsISS_EEvE3fns, symObjAddr: 0xC6920, symBinAddr: 0x1001112A0, symSize: 0x0 }
  - { offsetInCU: 0xA79F1, offset: 0xBD2FF, size: 0x8, addend: 0x0, symName: __ZN15asio_require_fn15static_instanceINS_4implEE8instanceE, symObjAddr: 0xC849B, symBinAddr: 0x100102373, symSize: 0x0 }
  - { offsetInCU: 0xA7A9E, offset: 0xBD3AC, size: 0x8, addend: 0x0, symName: __ZN14asio_prefer_fn15static_instanceINS_4implEE8instanceE, symObjAddr: 0xC849C, symBinAddr: 0x100102374, symSize: 0x0 }
  - { offsetInCU: 0xA8077, offset: 0xBD985, size: 0x8, addend: 0x0, symName: __ZN4asio9execution11prefer_onlyINS0_6detail16outstanding_work9tracked_tILi0EEEE14static_query_vINS_10io_context19basic_executor_typeINSt3__19allocatorIvEELm0EEEKNS2_18outstanding_work_tILi0EEEEE, symObjAddr: 0xC84A0, symBinAddr: 0x100102378, symSize: 0x0 }
  - { offsetInCU: 0xA809D, offset: 0xBD9AB, size: 0x8, addend: 0x0, symName: __ZN4asio9execution6detail17any_executor_base16target_fns_tableINS_10io_context19basic_executor_typeINSt3__19allocatorIvEELm4EEEEEPKNS2_10target_fnsEbPNS6_9enable_ifIXntsr7is_sameIT_vEE5valueEvE4typeE, symObjAddr: 0x5FE64, symBinAddr: 0x100067C18, symSize: 0x3C }
  - { offsetInCU: 0xA80BD, offset: 0xBD9CB, size: 0x8, addend: 0x0, symName: __ZZN4asio9execution6detail17any_executor_base16target_fns_tableINS_10io_context19basic_executor_typeINSt3__19allocatorIvEELm4EEEEEPKNS2_10target_fnsEbPNS6_9enable_ifIXntsr7is_sameIT_vEE5valueEvE4typeEE16fns_with_execute, symObjAddr: 0xC6A08, symBinAddr: 0x100111388, symSize: 0x0 }
  - { offsetInCU: 0xA80D4, offset: 0xBD9E2, size: 0x8, addend: 0x0, symName: __ZZN4asio9execution6detail17any_executor_base16target_fns_tableINS_10io_context19basic_executor_typeINSt3__19allocatorIvEELm4EEEEEPKNS2_10target_fnsEbPNS6_9enable_ifIXntsr7is_sameIT_vEE5valueEvE4typeEE25fns_with_blocking_execute, symObjAddr: 0xC6A28, symBinAddr: 0x1001113A8, symSize: 0x0 }
  - { offsetInCU: 0xA8104, offset: 0xBDA12, size: 0x8, addend: 0x0, symName: __ZN4asio9execution6detail17any_executor_base16object_fns_tableINS_10io_context19basic_executor_typeINSt3__19allocatorIvEELm4EEEEEPKNS2_10object_fnsEPNS6_9enable_ifIXaantsr7is_sameIT_vEE5valuentsr7is_sameISE_NS1_22shared_target_executorEEE5valueEvE4typeE, symObjAddr: 0x605C8, symBinAddr: 0x10006837C, symSize: 0x18 }
  - { offsetInCU: 0xA8124, offset: 0xBDA32, size: 0x8, addend: 0x0, symName: __ZZN4asio9execution6detail17any_executor_base16object_fns_tableINS_10io_context19basic_executor_typeINSt3__19allocatorIvEELm4EEEEEPKNS2_10object_fnsEPNS6_9enable_ifIXaantsr7is_sameIT_vEE5valuentsr7is_sameISE_NS1_22shared_target_executorEEE5valueEvE4typeEE3fns, symObjAddr: 0xC6A80, symBinAddr: 0x100111400, symSize: 0x0 }
  - { offsetInCU: 0xA8145, offset: 0xBDA53, size: 0x8, addend: 0x0, symName: __ZN4asio9execution12any_executorIJNS0_12context_as_tIRNS_17execution_contextEEENS0_6detail8blocking7never_tILi0EEENS0_11prefer_onlyINS7_10possibly_tILi0EEEEENSA_INS6_16outstanding_work9tracked_tILi0EEEEENSA_INSE_11untracked_tILi0EEEEENSA_INS6_12relationship6fork_tILi0EEEEENSA_INSL_14continuation_tILi0EEEEEEE14prop_fns_tableINS_10io_context19basic_executor_typeINSt3__19allocatorIvEELm4EEEEEPKNS6_17any_executor_base8prop_fnsISS_EEv, symObjAddr: 0x5FE2C, symBinAddr: 0x100067BE0, symSize: 0xC }
  - { offsetInCU: 0xA8165, offset: 0xBDA73, size: 0x8, addend: 0x0, symName: __ZZN4asio9execution12any_executorIJNS0_12context_as_tIRNS_17execution_contextEEENS0_6detail8blocking7never_tILi0EEENS0_11prefer_onlyINS7_10possibly_tILi0EEEEENSA_INS6_16outstanding_work9tracked_tILi0EEEEENSA_INSE_11untracked_tILi0EEEEENSA_INS6_12relationship6fork_tILi0EEEEENSA_INSL_14continuation_tILi0EEEEEEE14prop_fns_tableINS_10io_context19basic_executor_typeINSt3__19allocatorIvEELm4EEEEEPKNS6_17any_executor_base8prop_fnsISS_EEvE3fns, symObjAddr: 0xC6AA0, symBinAddr: 0x100111420, symSize: 0x0 }
  - { offsetInCU: 0xA8180, offset: 0xBDA8E, size: 0x8, addend: 0x0, symName: __ZN4asio9execution11prefer_onlyINS0_6detail16outstanding_work9tracked_tILi0EEEE14static_query_vINS_10io_context19basic_executor_typeINSt3__19allocatorIvEELm4EEEKNS2_18outstanding_work_tILi0EEEEE, symObjAddr: 0xC84E8, symBinAddr: 0x1001023C0, symSize: 0x0 }
  - { offsetInCU: 0xA81A7, offset: 0xBDAB5, size: 0x8, addend: 0x0, symName: __ZN4asio9execution11prefer_onlyINS0_6detail16outstanding_work11untracked_tILi0EEEE14static_query_vINS_10io_context19basic_executor_typeINSt3__19allocatorIvEELm4EEEKNS2_18outstanding_work_tILi0EEEEE, symObjAddr: 0xC84EC, symBinAddr: 0x1001023C4, symSize: 0x0 }
  - { offsetInCU: 0xA81D3, offset: 0xBDAE1, size: 0x8, addend: 0x0, symName: __ZN4asio9execution11prefer_onlyINS0_6detail16outstanding_work11untracked_tILi0EEEE14static_query_vINS_10io_context19basic_executor_typeINSt3__19allocatorIvEELm0EEEKNS2_18outstanding_work_tILi0EEEEE, symObjAddr: 0xC84F8, symBinAddr: 0x1001023D0, symSize: 0x0 }
  - { offsetInCU: 0xAA56A, offset: 0xBFE78, size: 0x8, addend: 0x0, symName: __ZN4crow10HTTPParserINS_10ConnectionINS_13SocketAdaptorENS_4CrowIJEEEJEEEE4feedEPKci, symObjAddr: 0x8CF04, symBinAddr: 0x100094CB8, symSize: 0xC8 }
  - { offsetInCU: 0xAA58D, offset: 0xBFE9B, size: 0x8, addend: 0x0, symName: __ZZN4crow10HTTPParserINS_10ConnectionINS_13SocketAdaptorENS_4CrowIJEEEJEEEE4feedEPKciE9settings_, symObjAddr: 0xC70A8, symBinAddr: 0x100111A28, symSize: 0x0 }
  - { offsetInCU: 0xAA617, offset: 0xBFF25, size: 0x8, addend: 0x0, symName: __ZN4crow10ConnectionINS_13SocketAdaptorENS_4CrowIJEEEJEE15prepare_buffersEv, symObjAddr: 0xA37B4, symBinAddr: 0x1000AB568, symSize: 0x1558 }
  - { offsetInCU: 0xAA63B, offset: 0xBFF49, size: 0x8, addend: 0x0, symName: __ZZN4crow10ConnectionINS_13SocketAdaptorENS_4CrowIJEEEJEE15prepare_buffersEvE11statusCodes, symObjAddr: 0xC55D8, symBinAddr: 0x100114550, symSize: 0x0 }
  - { offsetInCU: 0xAA652, offset: 0xBFF60, size: 0x8, addend: 0x0, symName: __ZZN4crow10ConnectionINS_13SocketAdaptorENS_4CrowIJEEEJEE15prepare_buffersEvE9seperator, symObjAddr: 0xC5608, symBinAddr: 0x100114580, symSize: 0x0 }
  - { offsetInCU: 0xAA669, offset: 0xBFF77, size: 0x8, addend: 0x0, symName: __ZZN4crow10ConnectionINS_13SocketAdaptorENS_4CrowIJEEEJEE15prepare_buffersEvE18content_length_tag, symObjAddr: 0xC5628, symBinAddr: 0x1001145A0, symSize: 0x0 }
  - { offsetInCU: 0xAA680, offset: 0xBFF8E, size: 0x8, addend: 0x0, symName: __ZZN4crow10ConnectionINS_13SocketAdaptorENS_4CrowIJEEEJEE15prepare_buffersEvE10server_tag, symObjAddr: 0xC5648, symBinAddr: 0x1001145C0, symSize: 0x0 }
  - { offsetInCU: 0xAA697, offset: 0xBFFA5, size: 0x8, addend: 0x0, symName: __ZZN4crow10ConnectionINS_13SocketAdaptorENS_4CrowIJEEEJEE15prepare_buffersEvE8date_tag, symObjAddr: 0xC5668, symBinAddr: 0x1001145E0, symSize: 0x0 }
  - { offsetInCU: 0xAA6AE, offset: 0xBFFBC, size: 0x8, addend: 0x0, symName: __ZZN4crow10ConnectionINS_13SocketAdaptorENS_4CrowIJEEEJEE15prepare_buffersEvE14keep_alive_tag, symObjAddr: 0xC5688, symBinAddr: 0x100114600, symSize: 0x0 }
  - { offsetInCU: 0xAAC14, offset: 0xC0522, size: 0x8, addend: 0x0, symName: __ZN4asio6detail14kqueue_reactor8start_opEiiRPNS1_16descriptor_stateEPNS0_10reactor_opEbbPFvPNS0_19scheduler_operationEbPKvESA_, symObjAddr: 0xB0DD0, symBinAddr: 0x1000B8B84, symSize: 0x510 }
  - { offsetInCU: 0xAAC39, offset: 0xC0547, size: 0x8, addend: 0x0, symName: __ZZN4asio6detail14kqueue_reactor8start_opEiiRPNS1_16descriptor_stateEPNS0_10reactor_opEbbPFvPNS0_19scheduler_operationEbPKvESA_E11num_kevents, symObjAddr: 0xC8CB4, symBinAddr: 0x100102B8C, symSize: 0x0 }
  - { offsetInCU: 0xAAD89, offset: 0xC0697, size: 0x8, addend: 0x0, symName: __ZN4crow10ConnectionINS_13SocketAdaptorENS_4CrowIJEEEJEE13handle_headerEv, symObjAddr: 0xB1AC4, symBinAddr: 0x1000B9878, symSize: 0x23C }
  - { offsetInCU: 0xAADAC, offset: 0xC06BA, size: 0x8, addend: 0x0, symName: __ZZN4crow10ConnectionINS_13SocketAdaptorENS_4CrowIJEEEJEE13handle_headerEvE19expect_100_continue, symObjAddr: 0xC56A8, symBinAddr: 0x100114620, symSize: 0x0 }
  - { offsetInCU: 0xAAE17, offset: 0xC0725, size: 0x8, addend: 0x0, symName: __ZNK4crow4json6wvalue13dump_internalERKS1_RNSt3__112basic_stringIcNS4_11char_traitsIcEENS4_9allocatorIcEEEE, symObjAddr: 0x1D364, symBinAddr: 0x10002641C, symSize: 0x60C }
  - { offsetInCU: 0xAB90C, offset: 0xC121A, size: 0x8, addend: 0x0, symName: __ZNSt3__16vectorINS_10unique_ptrIN4crow8BaseRuleENS_14default_deleteIS3_EEEENS_9allocatorIS6_EEE26__swap_out_circular_bufferERNS_14__split_bufferIS6_RS8_EE, symObjAddr: 0x1917C, symBinAddr: 0x1000223E4, symSize: 0x118 }
  - { offsetInCU: 0xAB9AF, offset: 0xC12BD, size: 0x8, addend: 0x0, symName: _main, symObjAddr: 0xD5C, symBinAddr: 0x10000BCA8, symSize: 0x3D0 }
  - { offsetInCU: 0xABAE9, offset: 0xC13F7, size: 0x8, addend: 0x0, symName: '__ZN4crow10TaggedRuleIJEEclIZ4mainE3$_0EEvOT_', symObjAddr: 0x11E0, symBinAddr: 0x10000C12C, symSize: 0x3C }
  - { offsetInCU: 0xABDD3, offset: 0xC16E1, size: 0x8, addend: 0x0, symName: __ZNSt3__16vectorINS_12basic_stringIcNS_11char_traitsIcEENS_9allocatorIcEEEENS4_IS6_EEE26__swap_out_circular_bufferERNS_14__split_bufferIS6_RS7_EE, symObjAddr: 0x23458, symBinAddr: 0x10002BE2C, symSize: 0x118 }
  - { offsetInCU: 0xABE67, offset: 0xC1775, size: 0x8, addend: 0x0, symName: __ZNSt3__16vectorIN4crow4json6wvalueENS_9allocatorIS3_EEE26__swap_out_circular_bufferERNS_14__split_bufferIS3_RS5_EE, symObjAddr: 0x2508C, symBinAddr: 0x10002DA60, symSize: 0x118 }
  - { offsetInCU: 0xABF0A, offset: 0xC1818, size: 0x8, addend: 0x0, symName: __ZNSt3__16vectorINS_4pairIiiEENS_9allocatorIS2_EEE26__swap_out_circular_bufferERNS_14__split_bufferIS2_RS4_EE, symObjAddr: 0x2AFF4, symBinAddr: 0x10003391C, symSize: 0x118 }
  - { offsetInCU: 0xABF9E, offset: 0xC18AC, size: 0x8, addend: 0x0, symName: __ZNSt3__16vectorIN4crow8mustache6ActionENS_9allocatorIS3_EEE26__swap_out_circular_bufferERNS_14__split_bufferIS3_RS5_EE, symObjAddr: 0x2C970, symBinAddr: 0x100035298, symSize: 0x118 }
  - { offsetInCU: 0xABFF5, offset: 0xC1903, size: 0x8, addend: 0x0, symName: __ZNSt3__16vectorIiNS_9allocatorIiEEE26__swap_out_circular_bufferERNS_14__split_bufferIiRS2_EE, symObjAddr: 0x2DFC4, symBinAddr: 0x1000368C8, symSize: 0x118 }
  - { offsetInCU: 0xAC2EE, offset: 0xC1BFC, size: 0x8, addend: 0x0, symName: __ZNSt3__16vectorIPKN4crow4json6wvalueENS_9allocatorIS5_EEE26__swap_out_circular_bufferERNS_14__split_bufferIS5_RS7_EE, symObjAddr: 0x333E8, symBinAddr: 0x10003BB10, symSize: 0x118 }
  - { offsetInCU: 0xAC350, offset: 0xC1C5E, size: 0x8, addend: 0x0, symName: '__ZN4crow10TaggedRuleIJEEclIZ4mainE3$_1EEvOT_', symObjAddr: 0x121C, symBinAddr: 0x10000C168, symSize: 0x30 }
  - { offsetInCU: 0xAC5EE, offset: 0xC1EFC, size: 0x8, addend: 0x0, symName: '__ZN4crow10TaggedRuleIJEEclIZ4mainE3$_2EEvOT_', symObjAddr: 0x12A0, symBinAddr: 0x10000C1EC, symSize: 0x3C }
  - { offsetInCU: 0xAC863, offset: 0xC2171, size: 0x8, addend: 0x0, symName: '__ZN4crow10TaggedRuleIJEEclIZ4mainE3$_3EEvOT_', symObjAddr: 0x12DC, symBinAddr: 0x10000C228, symSize: 0x30 }
  - { offsetInCU: 0xACAD8, offset: 0xC23E6, size: 0x8, addend: 0x0, symName: '__ZN4crow10TaggedRuleIJEEclIZ4mainE3$_4EEvOT_', symObjAddr: 0x130C, symBinAddr: 0x10000C258, symSize: 0x3C }
  - { offsetInCU: 0xACD6F, offset: 0xC267D, size: 0x8, addend: 0x0, symName: __ZNSt3__118condition_variable10wait_untilINS_6chrono12steady_clockENS2_8durationIxNS_5ratioILl1ELl1000000000EEEEEEENS_9cv_statusERNS_11unique_lockINS_5mutexEEERKNS2_10time_pointIT_T0_EE, symObjAddr: 0x3EF58, symBinAddr: 0x1000470DC, symSize: 0xC0 }
  - { offsetInCU: 0xACE01, offset: 0xC270F, size: 0x8, addend: 0x0, symName: __ZNKSt3__16chrono15__duration_castINS0_8durationIxNS_5ratioILl1ELl1EEEEENS2_IxNS3_ILl1ELl1000000000EEEEENS3_ILl1000000000ELl1EEELb0ELb1EEclB7v160006ERKS5_, symObjAddr: 0x3FB2C, symBinAddr: 0x100047CB0, symSize: 0x4C }
  - { offsetInCU: 0xACE46, offset: 0xC2754, size: 0x8, addend: 0x0, symName: '__ZN4crow10TaggedRuleIJEEclIZ4mainE3$_5EEvOT_', symObjAddr: 0x1348, symBinAddr: 0x10000C294, symSize: 0x3C }
  - { offsetInCU: 0xAD137, offset: 0xC2A45, size: 0x8, addend: 0x0, symName: __ZN4crow4CrowIJEE8validateEv, symObjAddr: 0x4243C, symBinAddr: 0x10004A3F0, symSize: 0x3D0 }
  - { offsetInCU: 0xAD28C, offset: 0xC2B9A, size: 0x8, addend: 0x0, symName: __ZN4crow10TaggedRuleIJNSt3__112basic_stringIcNS1_11char_traitsIcEENS1_9allocatorIcEEEEEEclIZNS_4CrowIJEE8validateEvEUlRNS_8responseES7_E_EEvOT_, symObjAddr: 0x4316C, symBinAddr: 0x10004B080, symSize: 0x74 }
  - { offsetInCU: 0xAD56C, offset: 0xC2E7A, size: 0x8, addend: 0x0, symName: __ZN4crow10TaggedRuleIJNSt3__112basic_stringIcNS1_11char_traitsIcEENS1_9allocatorIcEEEEEEclIZNS_4CrowIJEE8validateEvEUlRNS_8responseES7_E0_EEvOT_, symObjAddr: 0x434D4, symBinAddr: 0x10004B3E8, symSize: 0x74 }
  - { offsetInCU: 0xAD80D, offset: 0xC311B, size: 0x8, addend: 0x0, symName: __ZNSt3__16vectorIN4crow10HTTPMethodENS_9allocatorIS2_EEE26__swap_out_circular_bufferERNS_14__split_bufferIS2_RS4_EE, symObjAddr: 0x4B5AC, symBinAddr: 0x100053360, symSize: 0x118 }
  - { offsetInCU: 0xAD864, offset: 0xC3172, size: 0x8, addend: 0x0, symName: __ZNSt3__16vectorIN4crow4Trie4NodeENS_9allocatorIS3_EEE26__swap_out_circular_bufferERNS_14__split_bufferIS3_RS5_EE, symObjAddr: 0x4D36C, symBinAddr: 0x100055120, symSize: 0x118 }
  - { offsetInCU: 0xAD926, offset: 0xC3234, size: 0x8, addend: 0x0, symName: __ZNSt3__16vectorIiNS_9allocatorIiEEE26__swap_out_circular_bufferERNS_14__split_bufferIiRS2_EEPi, symObjAddr: 0x4F0F8, symBinAddr: 0x100056EAC, symSize: 0x154 }
  - { offsetInCU: 0xAD9DE, offset: 0xC32EC, size: 0x8, addend: 0x0, symName: __ZNSt3__16vectorIPN4crow8BaseRuleENS_9allocatorIS3_EEE26__swap_out_circular_bufferERNS_14__split_bufferIS3_RS5_EE, symObjAddr: 0x52A24, symBinAddr: 0x10005A7D8, symSize: 0x118 }
  - { offsetInCU: 0xADB26, offset: 0xC3434, size: 0x8, addend: 0x0, symName: __ZNSt3__16vectorINS_10unique_ptrIN4asio10io_contextENS_14default_deleteIS3_EEEENS_9allocatorIS6_EEE26__swap_out_circular_bufferERNS_14__split_bufferIS6_RS8_EE, symObjAddr: 0x69488, symBinAddr: 0x10007123C, symSize: 0x118 }
  - { offsetInCU: 0xADBBA, offset: 0xC34C8, size: 0x8, addend: 0x0, symName: __ZNSt3__16vectorINS_8functionIFNS_12basic_stringIcNS_11char_traitsIcEENS_9allocatorIcEEEEvEEENS5_IS9_EEE26__swap_out_circular_bufferERNS_14__split_bufferIS9_RSA_EE, symObjAddr: 0x6ABF8, symBinAddr: 0x1000729AC, symSize: 0x118 }
  - { offsetInCU: 0xADC4E, offset: 0xC355C, size: 0x8, addend: 0x0, symName: __ZNSt3__16vectorIPN4crow6detail10task_timerENS_9allocatorIS4_EEE26__swap_out_circular_bufferERNS_14__split_bufferIS4_RS6_EE, symObjAddr: 0x6C6C0, symBinAddr: 0x100074474, symSize: 0x118 }
  - { offsetInCU: 0xADE02, offset: 0xC3710, size: 0x8, addend: 0x0, symName: __ZNSt3__16vectorINS_6futureIvEENS_9allocatorIS2_EEE26__swap_out_circular_bufferERNS_14__split_bufferIS2_RS4_EE, symObjAddr: 0x6E100, symBinAddr: 0x100075EB4, symSize: 0x118 }
  - { offsetInCU: 0xADE96, offset: 0xC37A4, size: 0x8, addend: 0x0, symName: __ZN4crow6ServerINS_4CrowIJEEENS_13SocketAdaptorEJEE3runEv, symObjAddr: 0x42AF4, symBinAddr: 0x10004AAA8, symSize: 0x514 }
  - { offsetInCU: 0xAE041, offset: 0xC394F, size: 0x8, addend: 0x0, symName: __ZZN4crow6ServerINS_4CrowIJEEENS_13SocketAdaptorEJEE3runEvENKUlvE_clEv, symObjAddr: 0x6FBE8, symBinAddr: 0x10007799C, symSize: 0x300 }
  - { offsetInCU: 0xAE337, offset: 0xC3C45, size: 0x8, addend: 0x0, symName: __ZNKSt3__16chrono13__duration_ltINS0_8durationIxNS_5ratioILl1ELl1000000000EEEEENS2_IxNS3_ILl1ELl1EEEEEEclB7v160006ERKS5_RKS7_, symObjAddr: 0x71DFC, symBinAddr: 0x100079BB0, symSize: 0x6C }
  - { offsetInCU: 0xAE546, offset: 0xC3E54, size: 0x8, addend: 0x0, symName: __ZNSt3__16vectorIN4asio6detail11timer_queueINS2_18chrono_time_traitsINS_6chrono12steady_clockENS1_11wait_traitsIS6_EEEEE10heap_entryENS_9allocatorISB_EEE26__swap_out_circular_bufferERNS_14__split_bufferISB_RSD_EE, symObjAddr: 0x75DB8, symBinAddr: 0x10007DB6C, symSize: 0x118 }
  - { offsetInCU: 0xAE71D, offset: 0xC402B, size: 0x8, addend: 0x0, symName: __ZNSt3__16vectorImNS_9allocatorImEEE26__swap_out_circular_bufferERNS_14__split_bufferImRS2_EE, symObjAddr: 0x77E80, symBinAddr: 0x10007FC34, symSize: 0x118 }
  - { offsetInCU: 0xAE917, offset: 0xC4225, size: 0x8, addend: 0x0, symName: __ZNKSt3__16chrono15__duration_castINS0_8durationIxNS_5ratioILl1ELl1000EEEEENS2_IxNS3_ILl1ELl1000000000EEEEENS3_ILl1000000ELl1EEELb0ELb1EEclB7v160006ERKS5_, symObjAddr: 0x7C550, symBinAddr: 0x100084304, symSize: 0x4C }
  - { offsetInCU: 0xAE96F, offset: 0xC427D, size: 0x8, addend: 0x0, symName: __ZN4crow6ServerINS_4CrowIJEEENS_13SocketAdaptorEJEE7on_tickEv, symObjAddr: 0x7D078, symBinAddr: 0x100084E2C, symSize: 0x8C }
  - { offsetInCU: 0xAEB3A, offset: 0xC4448, size: 0x8, addend: 0x0, symName: __ZNSt3__110shared_ptrIN4crow10ConnectionINS1_13SocketAdaptorENS1_4CrowIJEEEJEEEE18__enable_weak_thisB7v160006IS6_S6_vEEvPKNS_23enable_shared_from_thisIT_EEPT0_, symObjAddr: 0x8539C, symBinAddr: 0x10008D150, symSize: 0x7C }
  - { offsetInCU: 0xAEBC5, offset: 0xC44D3, size: 0x8, addend: 0x0, symName: __ZN4crow6ServerINS_4CrowIJEEENS_13SocketAdaptorEJEE9do_acceptEv, symObjAddr: 0x68C4C, symBinAddr: 0x100070A00, symSize: 0x298 }
  - { offsetInCU: 0xAECBF, offset: 0xC45CD, size: 0x8, addend: 0x0, symName: __ZZN4crow6ServerINS_4CrowIJEEENS_13SocketAdaptorEJEE9do_acceptEvENKUlNSt3__110error_codeEE_clES6_, symObjAddr: 0x86C94, symBinAddr: 0x10008EA48, symSize: 0x1AC }
  - { offsetInCU: 0xAED5D, offset: 0xC466B, size: 0x8, addend: 0x0, symName: __ZN4crow10ConnectionINS_13SocketAdaptorENS_4CrowIJEEEJEE14start_deadlineEv, symObjAddr: 0x87B7C, symBinAddr: 0x10008F930, symSize: 0x228 }
  - { offsetInCU: 0xAF005, offset: 0xC4913, size: 0x8, addend: 0x0, symName: __ZN4crow10ConnectionINS_13SocketAdaptorENS_4CrowIJEEEJEE7do_readEv, symObjAddr: 0x87E54, symBinAddr: 0x10008FC08, symSize: 0xCC }
  - { offsetInCU: 0xAF0BC, offset: 0xC49CA, size: 0x8, addend: 0x0, symName: __ZNSt3__16vectorIPcNS_9allocatorIS1_EEE26__swap_out_circular_bufferERNS_14__split_bufferIS1_RS3_EE, symObjAddr: 0x9400C, symBinAddr: 0x10009BDC0, symSize: 0x118 }
  - { offsetInCU: 0xAF2B7, offset: 0xC4BC5, size: 0x8, addend: 0x0, symName: __ZNSt3__16vectorIxNS_9allocatorIxEEE26__swap_out_circular_bufferERNS_14__split_bufferIxRS2_EE, symObjAddr: 0x9D0B8, symBinAddr: 0x1000A4E6C, symSize: 0x118 }
  - { offsetInCU: 0xAF2FA, offset: 0xC4C08, size: 0x8, addend: 0x0, symName: __ZNSt3__16vectorItNS_9allocatorItEEE26__swap_out_circular_bufferERNS_14__split_bufferItRS2_EE, symObjAddr: 0x9E02C, symBinAddr: 0x1000A5DE0, symSize: 0x118 }
  - { offsetInCU: 0xAF33D, offset: 0xC4C4B, size: 0x8, addend: 0x0, symName: __ZNSt3__16vectorIyNS_9allocatorIyEEE26__swap_out_circular_bufferERNS_14__split_bufferIyRS2_EE, symObjAddr: 0x9FCC4, symBinAddr: 0x1000A7A78, symSize: 0x118 }
  - { offsetInCU: 0xAF380, offset: 0xC4C8E, size: 0x8, addend: 0x0, symName: __ZNSt3__16vectorIdNS_9allocatorIdEEE26__swap_out_circular_bufferERNS_14__split_bufferIdRS2_EE, symObjAddr: 0xA0C9C, symBinAddr: 0x1000A8A50, symSize: 0x118 }
  - { offsetInCU: 0xAF3C3, offset: 0xC4CD1, size: 0x8, addend: 0x0, symName: __ZNSt3__16vectorIPN4crow9BlueprintENS_9allocatorIS3_EEE26__swap_out_circular_bufferERNS_14__split_bufferIS3_RS5_EE, symObjAddr: 0xA26B8, symBinAddr: 0x1000AA46C, symSize: 0x118 }
  - { offsetInCU: 0xAF406, offset: 0xC4D14, size: 0x8, addend: 0x0, symName: __ZNSt3__16vectorIN4asio12const_bufferENS_9allocatorIS2_EEE26__swap_out_circular_bufferERNS_14__split_bufferIS2_RS4_EE, symObjAddr: 0xA9088, symBinAddr: 0x1000B0E3C, symSize: 0x118 }
  - { offsetInCU: 0xAF520, offset: 0xC4E2E, size: 0x8, addend: 0x0, symName: __ZN4crow10ConnectionINS_13SocketAdaptorENS_4CrowIJEEEJEE8do_writeEv, symObjAddr: 0xAE250, symBinAddr: 0x1000B6004, symSize: 0xA8 }
  - { offsetInCU: 0xAF6C7, offset: 0xC4FD5, size: 0x8, addend: 0x0, symName: __ZN4crow10ConnectionINS_13SocketAdaptorENS_4CrowIJEEEJEE6handleEv, symObjAddr: 0xB1D28, symBinAddr: 0x1000B9ADC, symSize: 0x780 }
  - { offsetInCU: 0xB13DF, offset: 0xC6CED, size: 0x8, addend: 0x0, symName: __Z7toupperi, symObjAddr: 0x17DE4, symBinAddr: 0x10002104C, symSize: 0x24 }
  - { offsetInCU: 0xB1DFA, offset: 0xC7708, size: 0x8, addend: 0x0, symName: __ZNSt3__14pairIKNS_12basic_stringIcNS_11char_traitsIcEENS_9allocatorIcEEEES6_EC1B7v160006IRA6_KcRA10_SA_LPv0EEEOT_OT0_, symObjAddr: 0x1D4, symBinAddr: 0x10000B120, symSize: 0x3C }
  - { offsetInCU: 0xB1E6E, offset: 0xC777C, size: 0x8, addend: 0x0, symName: __ZNSt3__14pairIKNS_12basic_stringIcNS_11char_traitsIcEENS_9allocatorIcEEEES6_EC1B7v160006IRA4_KcRA10_SA_LPv0EEEOT_OT0_, symObjAddr: 0x210, symBinAddr: 0x10000B15C, symSize: 0x3C }
  - { offsetInCU: 0xB1EE2, offset: 0xC77F0, size: 0x8, addend: 0x0, symName: __ZNSt3__14pairIKNS_12basic_stringIcNS_11char_traitsIcEENS_9allocatorIcEEEES6_EC1B7v160006IRA5_KcRA10_SA_LPv0EEEOT_OT0_, symObjAddr: 0x24C, symBinAddr: 0x10000B198, symSize: 0x3C }
  - { offsetInCU: 0xB1F56, offset: 0xC7864, size: 0x8, addend: 0x0, symName: __ZNSt3__14pairIKNS_12basic_stringIcNS_11char_traitsIcEENS_9allocatorIcEEEES6_EC1B7v160006IRA4_KcRA9_SA_LPv0EEEOT_OT0_, symObjAddr: 0x288, symBinAddr: 0x10000B1D4, symSize: 0x3C }
  - { offsetInCU: 0xB1FCA, offset: 0xC78D8, size: 0x8, addend: 0x0, symName: __ZNSt3__14pairIKNS_12basic_stringIcNS_11char_traitsIcEENS_9allocatorIcEEEES6_EC1B7v160006IRA4_KcRA11_SA_LPv0EEEOT_OT0_, symObjAddr: 0x2C4, symBinAddr: 0x10000B210, symSize: 0x3C }
  - { offsetInCU: 0xB2028, offset: 0xC7936, size: 0x8, addend: 0x0, symName: __ZNSt3__14pairIKNS_12basic_stringIcNS_11char_traitsIcEENS_9allocatorIcEEEES6_EC1B7v160006IRA5_KcRA11_SA_LPv0EEEOT_OT0_, symObjAddr: 0x300, symBinAddr: 0x10000B24C, symSize: 0x3C }
  - { offsetInCU: 0xB20B2, offset: 0xC79C0, size: 0x8, addend: 0x0, symName: __ZNSt3__14pairIKNS_12basic_stringIcNS_11char_traitsIcEENS_9allocatorIcEEEES6_EC1B7v160006IRA3_KcRA23_SA_LPv0EEEOT_OT0_, symObjAddr: 0x33C, symBinAddr: 0x10000B288, symSize: 0x3C }
  - { offsetInCU: 0xB2126, offset: 0xC7A34, size: 0x8, addend: 0x0, symName: __ZNSt3__14pairIKNS_12basic_stringIcNS_11char_traitsIcEENS_9allocatorIcEEEES6_EC1B7v160006IRA5_KcRA21_SA_LPv0EEEOT_OT0_, symObjAddr: 0x378, symBinAddr: 0x10000B2C4, symSize: 0x3C }
  - { offsetInCU: 0xB219A, offset: 0xC7AA8, size: 0x8, addend: 0x0, symName: __ZNSt3__14pairIKNS_12basic_stringIcNS_11char_traitsIcEENS_9allocatorIcEEEES6_EC1B7v160006IRA4_KcRA20_SA_LPv0EEEOT_OT0_, symObjAddr: 0x3B4, symBinAddr: 0x10000B300, symSize: 0x3C }
  - { offsetInCU: 0xB220E, offset: 0xC7B1C, size: 0x8, addend: 0x0, symName: __ZNSt3__14pairIKNS_12basic_stringIcNS_11char_traitsIcEENS_9allocatorIcEEEES6_EC1B7v160006IRA4_KcRA12_SA_LPv0EEEOT_OT0_, symObjAddr: 0x3F0, symBinAddr: 0x10000B33C, symSize: 0x3C }
  - { offsetInCU: 0xB2282, offset: 0xC7B90, size: 0x8, addend: 0x0, symName: __ZNSt3__14pairIKNS_12basic_stringIcNS_11char_traitsIcEENS_9allocatorIcEEEES6_EC1B7v160006IRA4_KcRA33_SA_LPv0EEEOT_OT0_, symObjAddr: 0x42C, symBinAddr: 0x10000B378, symSize: 0x3C }
  - { offsetInCU: 0xB22F6, offset: 0xC7C04, size: 0x8, addend: 0x0, symName: __ZNSt3__14pairIKNS_12basic_stringIcNS_11char_traitsIcEENS_9allocatorIcEEEES6_EC1B7v160006IRA4_KcRA17_SA_LPv0EEEOT_OT0_, symObjAddr: 0x468, symBinAddr: 0x10000B3B4, symSize: 0x3C }
  - { offsetInCU: 0xB235E, offset: 0xC7C6C, size: 0x8, addend: 0x0, symName: __ZNSt3__14pairIKNS_12basic_stringIcNS_11char_traitsIcEENS_9allocatorIcEEEES6_EC1B7v160006IRA5_KcRA14_SA_LPv0EEEOT_OT0_, symObjAddr: 0x4A4, symBinAddr: 0x10000B3F0, symSize: 0x3C }
  - { offsetInCU: 0xB23BC, offset: 0xC7CCA, size: 0x8, addend: 0x0, symName: __ZNSt3__14pairIKNS_12basic_stringIcNS_11char_traitsIcEENS_9allocatorIcEEEES6_EC1B7v160006IRA4_KcRA14_SA_LPv0EEEOT_OT0_, symObjAddr: 0x4E0, symBinAddr: 0x10000B42C, symSize: 0x3C }
  - { offsetInCU: 0xB2430, offset: 0xC7D3E, size: 0x8, addend: 0x0, symName: __ZNSt3__14pairIKNS_12basic_stringIcNS_11char_traitsIcEENS_9allocatorIcEEEES6_EC1B7v160006IRA5_KcRA19_SA_LPv0EEEOT_OT0_, symObjAddr: 0x51C, symBinAddr: 0x10000B468, symSize: 0x3C }
  - { offsetInCU: 0xB24A4, offset: 0xC7DB2, size: 0x8, addend: 0x0, symName: __ZNSt3__14pairIKNS_12basic_stringIcNS_11char_traitsIcEENS_9allocatorIcEEEES6_EC1B7v160006IRA4_KcRA13_SA_LPv0EEEOT_OT0_, symObjAddr: 0x558, symBinAddr: 0x10000B4A4, symSize: 0x3C }
  - { offsetInCU: 0xB2518, offset: 0xC7E26, size: 0x8, addend: 0x0, symName: __ZNSt3__14pairIKNS_12basic_stringIcNS_11char_traitsIcEENS_9allocatorIcEEEES6_EC1B7v160006IRA4_KcRA15_SA_LPv0EEEOT_OT0_, symObjAddr: 0x594, symBinAddr: 0x10000B4E0, symSize: 0x3C }
  - { offsetInCU: 0xB2576, offset: 0xC7E84, size: 0x8, addend: 0x0, symName: __ZNSt3__14pairIKNS_12basic_stringIcNS_11char_traitsIcEENS_9allocatorIcEEEES6_EC1B7v160006IRA6_KcRA11_SA_LPv0EEEOT_OT0_, symObjAddr: 0x5D0, symBinAddr: 0x10000B51C, symSize: 0x3C }
  - { offsetInCU: 0xB25EA, offset: 0xC7EF8, size: 0x8, addend: 0x0, symName: __ZNSt3__14pairIKNS_12basic_stringIcNS_11char_traitsIcEENS_9allocatorIcEEEES6_EC1B7v160006IRA4_KcRA25_SA_LPv0EEEOT_OT0_, symObjAddr: 0x60C, symBinAddr: 0x10000B558, symSize: 0x3C }
  - { offsetInCU: 0xB2648, offset: 0xC7F56, size: 0x8, addend: 0x0, symName: __ZNSt3__14pairIKNS_12basic_stringIcNS_11char_traitsIcEENS_9allocatorIcEEEES6_EC1B7v160006IRA5_KcRA17_SA_LPv0EEEOT_OT0_, symObjAddr: 0x648, symBinAddr: 0x10000B594, symSize: 0x3C }
  - { offsetInCU: 0xB26A6, offset: 0xC7FB4, size: 0x8, addend: 0x0, symName: __ZNSt3__14pairIKNS_12basic_stringIcNS_11char_traitsIcEENS_9allocatorIcEEEES6_EC1B7v160006IRA4_KcRA19_SA_LPv0EEEOT_OT0_, symObjAddr: 0x684, symBinAddr: 0x10000B5D0, symSize: 0x3C }
  - { offsetInCU: 0xB271A, offset: 0xC8028, size: 0x8, addend: 0x0, symName: __ZNSt3__14pairIKNS_12basic_stringIcNS_11char_traitsIcEENS_9allocatorIcEEEES6_EC1B7v160006IRA4_KcRA16_SA_LPv0EEEOT_OT0_, symObjAddr: 0x6C0, symBinAddr: 0x10000B60C, symSize: 0x3C }
  - { offsetInCU: 0xB2778, offset: 0xC8086, size: 0x8, addend: 0x0, symName: __ZNSt3__14pairIKNS_12basic_stringIcNS_11char_traitsIcEENS_9allocatorIcEEEES6_EC1B7v160006IRA4_KcRA23_SA_LPv0EEEOT_OT0_, symObjAddr: 0x6FC, symBinAddr: 0x10000B648, symSize: 0x3C }
  - { offsetInCU: 0xB27EC, offset: 0xC80FA, size: 0x8, addend: 0x0, symName: __ZNSt3__14pairIKNS_12basic_stringIcNS_11char_traitsIcEENS_9allocatorIcEEEES6_EC1B7v160006IRA5_KcRA30_SA_LPv0EEEOT_OT0_, symObjAddr: 0x738, symBinAddr: 0x10000B684, symSize: 0x3C }
  - { offsetInCU: 0xB2860, offset: 0xC816E, size: 0x8, addend: 0x0, symName: __ZNSt3__14pairIKNS_12basic_stringIcNS_11char_traitsIcEENS_9allocatorIcEEEES6_EC1B7v160006IRA4_KcRA37_SA_LPv0EEEOT_OT0_, symObjAddr: 0x774, symBinAddr: 0x10000B6C0, symSize: 0x3C }
  - { offsetInCU: 0xB28BE, offset: 0xC81CC, size: 0x8, addend: 0x0, symName: __ZNSt3__14pairIKNS_12basic_stringIcNS_11char_traitsIcEENS_9allocatorIcEEEES6_EC1B7v160006IRA4_KcRA30_SA_LPv0EEEOT_OT0_, symObjAddr: 0x7B0, symBinAddr: 0x10000B6FC, symSize: 0x3C }
  - { offsetInCU: 0xB2932, offset: 0xC8240, size: 0x8, addend: 0x0, symName: __ZNSt3__14pairIKNS_12basic_stringIcNS_11char_traitsIcEENS_9allocatorIcEEEES6_EC1B7v160006IRA4_KcRA44_SA_LPv0EEEOT_OT0_, symObjAddr: 0x7EC, symBinAddr: 0x10000B738, symSize: 0x3C }
  - { offsetInCU: 0xB29A6, offset: 0xC82B4, size: 0x8, addend: 0x0, symName: __ZNSt3__14pairIKNS_12basic_stringIcNS_11char_traitsIcEENS_9allocatorIcEEEES6_EC1B7v160006IRA4_KcRA48_SA_LPv0EEEOT_OT0_, symObjAddr: 0x828, symBinAddr: 0x10000B774, symSize: 0x3C }
  - { offsetInCU: 0xB2A1A, offset: 0xC8328, size: 0x8, addend: 0x0, symName: __ZNSt3__14pairIKNS_12basic_stringIcNS_11char_traitsIcEENS_9allocatorIcEEEES6_EC1B7v160006IRA4_KcRA47_SA_LPv0EEEOT_OT0_, symObjAddr: 0x864, symBinAddr: 0x10000B7B0, symSize: 0x3C }
  - { offsetInCU: 0xB2A82, offset: 0xC8390, size: 0x8, addend: 0x0, symName: __ZNSt3__14pairIKNS_12basic_stringIcNS_11char_traitsIcEENS_9allocatorIcEEEES6_EC1B7v160006IRA4_KcRA40_SA_LPv0EEEOT_OT0_, symObjAddr: 0x8A0, symBinAddr: 0x10000B7EC, symSize: 0x3C }
  - { offsetInCU: 0xB2AF6, offset: 0xC8404, size: 0x8, addend: 0x0, symName: __ZNSt3__14pairIKNS_12basic_stringIcNS_11char_traitsIcEENS_9allocatorIcEEEES6_EC1B7v160006IRA5_KcRA74_SA_LPv0EEEOT_OT0_, symObjAddr: 0x8DC, symBinAddr: 0x10000B828, symSize: 0x3C }
  - { offsetInCU: 0xB2B6A, offset: 0xC8478, size: 0x8, addend: 0x0, symName: __ZNSt3__14pairIKNS_12basic_stringIcNS_11char_traitsIcEENS_9allocatorIcEEEES6_EC1B7v160006IRA5_KcRA66_SA_LPv0EEEOT_OT0_, symObjAddr: 0x918, symBinAddr: 0x10000B864, symSize: 0x3C }
  - { offsetInCU: 0xB2BDE, offset: 0xC84EC, size: 0x8, addend: 0x0, symName: __ZNSt3__14pairIKNS_12basic_stringIcNS_11char_traitsIcEENS_9allocatorIcEEEES6_EC1B7v160006IRA5_KcRA72_SA_LPv0EEEOT_OT0_, symObjAddr: 0x954, symBinAddr: 0x10000B8A0, symSize: 0x3C }
  - { offsetInCU: 0xB2C3C, offset: 0xC854A, size: 0x8, addend: 0x0, symName: __ZNSt3__14pairIKNS_12basic_stringIcNS_11char_traitsIcEENS_9allocatorIcEEEES6_EC1B7v160006IRA5_KcRA25_SA_LPv0EEEOT_OT0_, symObjAddr: 0x990, symBinAddr: 0x10000B8DC, symSize: 0x3C }
  - { offsetInCU: 0xB2CB0, offset: 0xC85BE, size: 0x8, addend: 0x0, symName: __ZNSt3__14pairIKNS_12basic_stringIcNS_11char_traitsIcEENS_9allocatorIcEEEES6_EC1B7v160006IRA3_KcRA28_SA_LPv0EEEOT_OT0_, symObjAddr: 0x9CC, symBinAddr: 0x10000B918, symSize: 0x3C }
  - { offsetInCU: 0xB2D2E, offset: 0xC863C, size: 0x8, addend: 0x0, symName: __ZNSt3__14pairIKNS_12basic_stringIcNS_11char_traitsIcEENS_9allocatorIcEEEES6_EC1B7v160006IRA8_KcRA32_SA_LPv0EEEOT_OT0_, symObjAddr: 0xA08, symBinAddr: 0x10000B954, symSize: 0x3C }
  - { offsetInCU: 0xB2DA2, offset: 0xC86B0, size: 0x8, addend: 0x0, symName: __ZNSt3__14pairIKNS_12basic_stringIcNS_11char_traitsIcEENS_9allocatorIcEEEES6_EC1B7v160006IRA5_KcRA29_SA_LPv0EEEOT_OT0_, symObjAddr: 0xA44, symBinAddr: 0x10000B990, symSize: 0x3C }
  - { offsetInCU: 0xB2E00, offset: 0xC870E, size: 0x8, addend: 0x0, symName: __ZNSt3__14pairIKNS_12basic_stringIcNS_11char_traitsIcEENS_9allocatorIcEEEES6_EC1B7v160006IRA3_KcRA19_SA_LPv0EEEOT_OT0_, symObjAddr: 0xA80, symBinAddr: 0x10000B9CC, symSize: 0x3C }
  - { offsetInCU: 0xB2E5E, offset: 0xC876C, size: 0x8, addend: 0x0, symName: __ZNSt3__14pairIKNS_12basic_stringIcNS_11char_traitsIcEENS_9allocatorIcEEEES6_EC1B7v160006IRA4_KcRA29_SA_LPv0EEEOT_OT0_, symObjAddr: 0xABC, symBinAddr: 0x10000BA08, symSize: 0x3C }
  - { offsetInCU: 0xB2ED2, offset: 0xC87E0, size: 0x8, addend: 0x0, symName: __ZNSt3__14pairIKNS_12basic_stringIcNS_11char_traitsIcEENS_9allocatorIcEEEES6_EC1B7v160006IRA4_KcRA18_SA_LPv0EEEOT_OT0_, symObjAddr: 0xAF8, symBinAddr: 0x10000BA44, symSize: 0x3C }
  - { offsetInCU: 0xB2F46, offset: 0xC8854, size: 0x8, addend: 0x0, symName: __ZNSt3__14pairIKNS_12basic_stringIcNS_11char_traitsIcEENS_9allocatorIcEEEES6_EC1B7v160006IRA4_KcRA22_SA_LPv0EEEOT_OT0_, symObjAddr: 0xB34, symBinAddr: 0x10000BA80, symSize: 0x3C }
  - { offsetInCU: 0xB2FA4, offset: 0xC88B2, size: 0x8, addend: 0x0, symName: __ZNSt3__14pairIKNS_12basic_stringIcNS_11char_traitsIcEENS_9allocatorIcEEEES6_EC1B7v160006IRA3_KcRA18_SA_LPv0EEEOT_OT0_, symObjAddr: 0xB70, symBinAddr: 0x10000BABC, symSize: 0x3C }
  - { offsetInCU: 0xB3018, offset: 0xC8926, size: 0x8, addend: 0x0, symName: __ZNSt3__14pairIKNS_12basic_stringIcNS_11char_traitsIcEENS_9allocatorIcEEEES6_EC1B7v160006IRA4_KcRA27_SA_LPv0EEEOT_OT0_, symObjAddr: 0xBAC, symBinAddr: 0x10000BAF8, symSize: 0x3C }
  - { offsetInCU: 0xB308C, offset: 0xC899A, size: 0x8, addend: 0x0, symName: __ZNSt3__14pairIKNS_12basic_stringIcNS_11char_traitsIcEENS_9allocatorIcEEEES6_EC1B7v160006IRA4_KcRA24_SA_LPv0EEEOT_OT0_, symObjAddr: 0xBE8, symBinAddr: 0x10000BB34, symSize: 0x3C }
  - { offsetInCU: 0xB30EA, offset: 0xC89F8, size: 0x8, addend: 0x0, symName: __ZNSt3__14pairIKNS_12basic_stringIcNS_11char_traitsIcEENS_9allocatorIcEEEES6_EC1B7v160006IRA6_KcRA22_SA_LPv0EEEOT_OT0_, symObjAddr: 0xC24, symBinAddr: 0x10000BB70, symSize: 0x3C }
  - { offsetInCU: 0xB3148, offset: 0xC8A56, size: 0x8, addend: 0x0, symName: __ZNSt3__14pairIKNS_12basic_stringIcNS_11char_traitsIcEENS_9allocatorIcEEEES6_EC1B7v160006IRA3_KcRA11_SA_LPv0EEEOT_OT0_, symObjAddr: 0xC60, symBinAddr: 0x10000BBAC, symSize: 0x3C }
  - { offsetInCU: 0xB31A6, offset: 0xC8AB4, size: 0x8, addend: 0x0, symName: __ZNSt3__14pairIKNS_12basic_stringIcNS_11char_traitsIcEENS_9allocatorIcEEEES6_ED1Ev, symObjAddr: 0xC9C, symBinAddr: 0x10000BBE8, symSize: 0x2C }
  - { offsetInCU: 0xB31D2, offset: 0xC8AE0, size: 0x8, addend: 0x0, symName: __ZNSt3__113unordered_mapINS_12basic_stringIcNS_11char_traitsIcEENS_9allocatorIcEEEES6_NS_4hashIS6_EENS_8equal_toIS6_EENS4_INS_4pairIKS6_S6_EEEEEC1ESt16initializer_listISD_E, symObjAddr: 0xCC8, symBinAddr: 0x10000BC14, symSize: 0x3C }
  - { offsetInCU: 0xB320D, offset: 0xC8B1B, size: 0x8, addend: 0x0, symName: __ZNSt3__113unordered_mapINS_12basic_stringIcNS_11char_traitsIcEENS_9allocatorIcEEEES6_NS_4hashIS6_EENS_8equal_toIS6_EENS4_INS_4pairIKS6_S6_EEEEED1B7v160006Ev, symObjAddr: 0xD04, symBinAddr: 0x10000BC50, symSize: 0x2C }
  - { offsetInCU: 0xB3237, offset: 0xC8B45, size: 0x8, addend: 0x0, symName: __ZNSt3__16vectorINS_12basic_stringIcNS_11char_traitsIcEENS_9allocatorIcEEEENS4_IS6_EEED1B7v160006Ev, symObjAddr: 0xD30, symBinAddr: 0x10000BC7C, symSize: 0x2C }
  - { offsetInCU: 0xB3261, offset: 0xC8B6F, size: 0x8, addend: 0x0, symName: __ZN4crow4CrowIJEEC1Ev, symObjAddr: 0x112C, symBinAddr: 0x10000C078, symSize: 0x2C }
  - { offsetInCU: 0xB328B, offset: 0xC8B99, size: 0x8, addend: 0x0, symName: __ZNSt3__16futureINS_12basic_stringIcNS_11char_traitsIcEENS_9allocatorIcEEEEEC1B7v160006Ev, symObjAddr: 0x1158, symBinAddr: 0x10000C0A4, symSize: 0x2C }
  - { offsetInCU: 0xB32B5, offset: 0xC8BC3, size: 0x8, addend: 0x0, symName: __ZNSt3__16vectorI12DockerConfigNS_9allocatorIS1_EEEC1B7v160006Ev, symObjAddr: 0x1184, symBinAddr: 0x10000C0D0, symSize: 0x2C }
  - { offsetInCU: 0xB32E4, offset: 0xC8BF2, size: 0x8, addend: 0x0, symName: __ZN4crow4CrowIJEE5routeILy0EEENSt3__113invoke_resultIDTadsr6RouterE15new_rule_taggedIXT_EEEJNS_6RouterEONS3_12basic_stringIcNS3_11char_traitsIcEENS3_9allocatorIcEEEEEE4typeESD_, symObjAddr: 0x11B0, symBinAddr: 0x10000C0FC, symSize: 0x30 }
  - { offsetInCU: 0xB3322, offset: 0xC8C30, size: 0x8, addend: 0x0, symName: __ZN4crow19RuleParameterTraitsINS_10TaggedRuleIJEEEE7methodsENS_10HTTPMethodE, symObjAddr: 0x124C, symBinAddr: 0x10000C198, symSize: 0x28 }
  - { offsetInCU: 0xB3356, offset: 0xC8C64, size: 0x8, addend: 0x0, symName: __Zli7_methodPKcm, symObjAddr: 0x1274, symBinAddr: 0x10000C1C0, symSize: 0x2C }
  - { offsetInCU: 0xB3391, offset: 0xC8C9F, size: 0x8, addend: 0x0, symName: __ZN4crow4CrowIJEE4portEt, symObjAddr: 0x1384, symBinAddr: 0x10000C2D0, symSize: 0x20 }
  - { offsetInCU: 0xB33C5, offset: 0xC8CD3, size: 0x8, addend: 0x0, symName: __ZN4crow4CrowIJEE11concurrencyEt, symObjAddr: 0x13A4, symBinAddr: 0x10000C2F0, symSize: 0x48 }
  - { offsetInCU: 0xB33F9, offset: 0xC8D07, size: 0x8, addend: 0x0, symName: __ZN4crow4CrowIJEE3runEv, symObjAddr: 0x13EC, symBinAddr: 0x10000C338, symSize: 0x270 }
  - { offsetInCU: 0xB3474, offset: 0xC8D82, size: 0x8, addend: 0x0, symName: __ZNSt3__16vectorI12DockerConfigNS_9allocatorIS1_EEED1B7v160006Ev, symObjAddr: 0x165C, symBinAddr: 0x10000C5A8, symSize: 0x2C }
  - { offsetInCU: 0xB349E, offset: 0xC8DAC, size: 0x8, addend: 0x0, symName: __ZNSt3__16futureINS_12basic_stringIcNS_11char_traitsIcEENS_9allocatorIcEEEEED1Ev, symObjAddr: 0x16B4, symBinAddr: 0x10000C5D4, symSize: 0x2C }
  - { offsetInCU: 0xB34CA, offset: 0xC8DD8, size: 0x8, addend: 0x0, symName: __ZN4crow4CrowIJEED1Ev, symObjAddr: 0x16E0, symBinAddr: 0x10000C600, symSize: 0x2C }
  - { offsetInCU: 0xB34F6, offset: 0xC8E04, size: 0x8, addend: 0x0, symName: __ZN4asio6detail7tss_ptrINS0_10call_stackINS0_14thread_contextENS0_16thread_info_baseEE7contextEEC1Ev, symObjAddr: 0x170C, symBinAddr: 0x10000C62C, symSize: 0x2C }
  - { offsetInCU: 0xB3522, offset: 0xC8E30, size: 0x8, addend: 0x0, symName: __ZN4asio6detail7tss_ptrINS0_10call_stackINS0_14thread_contextENS0_16thread_info_baseEE7contextEED1Ev, symObjAddr: 0x1738, symBinAddr: 0x10000C658, symSize: 0x2C }
  - { offsetInCU: 0xB3553, offset: 0xC8E61, size: 0x8, addend: 0x0, symName: __ZN4asio6detail10service_idINS0_9schedulerEEC1Ev, symObjAddr: 0x1764, symBinAddr: 0x10000C684, symSize: 0x2C }
  - { offsetInCU: 0xB3580, offset: 0xC8E8E, size: 0x8, addend: 0x0, symName: __ZN4asio6detail10service_idINS0_9schedulerEED1Ev, symObjAddr: 0x1790, symBinAddr: 0x10000C6B0, symSize: 0x2C }
  - { offsetInCU: 0xB35B2, offset: 0xC8EC0, size: 0x8, addend: 0x0, symName: __ZN4asio6detail10service_idINS0_14kqueue_reactorEEC1Ev, symObjAddr: 0x17BC, symBinAddr: 0x10000C6DC, symSize: 0x2C }
  - { offsetInCU: 0xB35DF, offset: 0xC8EED, size: 0x8, addend: 0x0, symName: __ZN4asio6detail10service_idINS0_14kqueue_reactorEED1Ev, symObjAddr: 0x17E8, symBinAddr: 0x10000C708, symSize: 0x2C }
  - { offsetInCU: 0xB360C, offset: 0xC8F1A, size: 0x8, addend: 0x0, symName: __ZN4asio6detail7tss_ptrINS0_10call_stackINS0_14strand_service11strand_implEhE7contextEEC1Ev, symObjAddr: 0x1814, symBinAddr: 0x10000C734, symSize: 0x2C }
  - { offsetInCU: 0xB3638, offset: 0xC8F46, size: 0x8, addend: 0x0, symName: __ZN4asio6detail7tss_ptrINS0_10call_stackINS0_14strand_service11strand_implEhE7contextEED1Ev, symObjAddr: 0x1840, symBinAddr: 0x10000C760, symSize: 0x2C }
  - { offsetInCU: 0xB3669, offset: 0xC8F77, size: 0x8, addend: 0x0, symName: __ZN4asio6detail10service_idINS0_14strand_serviceEEC1Ev, symObjAddr: 0x186C, symBinAddr: 0x10000C78C, symSize: 0x2C }
  - { offsetInCU: 0xB3696, offset: 0xC8FA4, size: 0x8, addend: 0x0, symName: __ZN4asio6detail10service_idINS0_14strand_serviceEED1Ev, symObjAddr: 0x1898, symBinAddr: 0x10000C7B8, symSize: 0x2C }
  - { offsetInCU: 0xB36C3, offset: 0xC8FD1, size: 0x8, addend: 0x0, symName: __ZN4asio6detail7tss_ptrINS0_10call_stackINS0_23strand_executor_service11strand_implEhE7contextEEC1Ev, symObjAddr: 0x18C4, symBinAddr: 0x10000C7E4, symSize: 0x2C }
